Certificate:
    Data:
        Version: 3 (0x2)
        Serial Number:
            c1:16:c6:a4:98:5e:15:4e:25:17:01:40:63:d7:31:3c
        Signature Algorithm: sha256WithRSAEncryption
        Issuer: CN=team5-net
        Validity
            Not Before: Aug  9 00:11:29 2022 GMT
            Not After : Jul 24 00:11:29 2025 GMT
        Subject: CN=team5-server
        Subject Public Key Info:
            Public Key Algorithm: rsaEncryption
                RSA Public-Key: (2048 bit)
                Modulus:
                    00:c6:3e:51:98:26:8e:c7:ca:c1:26:72:7a:f5:6c:
                    49:a4:49:3d:a9:72:be:76:58:9c:f9:c2:5a:c6:e6:
                    7e:e1:db:83:1c:e3:4f:af:6f:da:07:b1:68:11:0d:
                    c1:c7:c2:8c:18:5f:cd:c8:0b:90:f2:a2:6d:67:9d:
                    fd:f6:da:40:f5:1f:ce:ec:31:6a:67:91:7b:f4:bf:
                    97:dc:39:13:e6:53:82:86:c9:c5:b5:d5:87:0b:a9:
                    4b:93:f1:31:37:74:6e:7b:1e:cf:d7:b2:ee:7a:b1:
                    7d:61:45:a5:d1:ba:16:4e:66:e2:8a:a1:a3:dd:0d:
                    9b:1c:54:a4:9f:0a:b7:22:81:94:d2:68:d7:47:ea:
                    0c:b0:1a:a5:5d:2b:95:ed:b3:48:3b:a0:9d:07:f3:
                    b3:31:1b:00:7f:57:81:78:45:1e:2d:f1:a7:45:b4:
                    28:fc:2e:2d:86:66:20:ae:05:8d:8e:a9:5e:38:fb:
                    92:c1:52:c9:1d:dc:27:f2:cb:7c:cf:91:98:f7:0f:
                    c0:ba:71:3e:05:23:0b:f2:a1:38:d2:45:77:b9:30:
                    62:6e:19:cf:1a:9c:42:68:e9:35:ae:bb:ab:70:87:
                    58:f2:64:33:37:35:93:e4:f3:9c:09:dd:76:bf:5e:
                    bb:e5:b5:d0:aa:66:85:71:d4:de:0c:92:73:40:7f:
                    59:ab
                Exponent: 65537 (0x10001)
        X509v3 extensions:
            X509v3 Basic Constraints: 
                CA:FALSE
            X509v3 Subject Key Identifier: 
                51:4B:66:3A:47:CF:E7:E6:EF:02:61:6C:27:21:60:B3:94:3A:38:74
            X509v3 Authority Key Identifier: 
                keyid:42:09:22:48:AC:22:3B:1F:1B:CE:32:B6:8A:B2:79:21:B1:2F:17:60
                DirName:/CN=team5-net
                serial:7A:40:D9:C9:F0:87:59:53:6D:01:CC:5F:8B:6F:08:52:8D:1B:B7:AE

            X509v3 Extended Key Usage: 
                TLS Web Server Authentication
            X509v3 Key Usage: 
                Digital Signature, Key Encipherment
            X509v3 Subject Alternative Name: 
                DNS:team5-server
    Signature Algorithm: sha256WithRSAEncryption
         3f:24:62:9b:18:ff:5f:40:c1:95:94:4c:a9:cc:67:4e:bb:ef:
         55:12:e3:b8:4f:6b:a4:b1:8e:61:fb:28:64:5e:38:1e:c9:3a:
         aa:d4:ab:6a:ad:21:60:3d:95:0d:05:69:0e:6a:20:c5:c6:3b:
         6a:5e:a5:35:38:ca:c8:f3:3d:7a:cb:d8:b1:e5:07:3c:c5:ee:
         f8:16:09:88:90:44:65:f7:b7:8b:52:97:01:80:b4:47:d5:03:
         cf:3d:65:cf:cb:5d:93:37:93:02:f6:66:f5:9a:08:1e:86:c9:
         52:fb:00:13:d4:d1:ac:b8:52:e1:f6:2e:3a:82:d4:61:f8:26:
         07:d0:c8:57:74:d3:f5:34:9a:5f:81:26:3c:4f:2a:a9:6c:a4:
         6a:4e:5e:2b:9d:8e:ab:7d:23:6c:dc:06:1e:99:e9:53:99:d2:
         a3:ac:c0:fc:89:2b:4a:33:a5:3e:0e:76:60:1f:37:06:8e:1b:
         14:5f:59:90:ae:d6:0c:a0:a5:37:fd:73:22:36:d4:8c:d1:9e:
         37:5e:62:f0:9a:ab:ea:4f:7d:45:97:4f:9a:16:1e:37:db:3a:
         33:9a:4d:2b:5b:ac:3f:cf:ef:58:cb:59:34:ab:35:4a:9e:eb:
         a9:db:c1:95:44:c3:ba:91:73:a1:b1:52:35:12:65:42:fb:32:
         b9:02:d2:cf
-----BEGIN CERTIFICATE-----
MIIDcDCCAligAwIBAgIRAMEWxqSYXhVOJRcBQGPXMTwwDQYJKoZIhvcNAQELBQAw
FDESMBAGA1UEAwwJdGVhbTUtbmV0MB4XDTIyMDgwOTAwMTEyOVoXDTI1MDcyNDAw
MTEyOVowFzEVMBMGA1UEAwwMdGVhbTUtc2VydmVyMIIBIjANBgkqhkiG9w0BAQEF
AAOCAQ8AMIIBCgKCAQEAxj5RmCaOx8rBJnJ69WxJpEk9qXK+dlic+cJaxuZ+4duD
HONPr2/aB7FoEQ3Bx8KMGF/NyAuQ8qJtZ5399tpA9R/O7DFqZ5F79L+X3DkT5lOC
hsnFtdWHC6lLk/ExN3Ruex7P17LuerF9YUWl0boWTmbiiqGj3Q2bHFSknwq3IoGU
0mjXR+oMsBqlXSuV7bNIO6CdB/OzMRsAf1eBeEUeLfGnRbQo/C4thmYgrgWNjqle
OPuSwVLJHdwn8st8z5GY9w/AunE+BSML8qE40kV3uTBibhnPGpxCaOk1rrurcIdY
8mQzNzWT5POcCd12v1675bXQqmaFcdTeDJJzQH9ZqwIDAQABo4G5MIG2MAkGA1Ud
EwQCMAAwHQYDVR0OBBYEFFFLZjpHz+fm7wJhbCchYLOUOjh0ME8GA1UdIwRIMEaA
FEIJIkisIjsfG84ytoqyeSGxLxdgoRikFjAUMRIwEAYDVQQDDAl0ZWFtNS1uZXSC
FHpA2cnwh1lTbQHMX4tvCFKNG7euMBMGA1UdJQQMMAoGCCsGAQUFBwMBMAsGA1Ud
DwQEAwIFoDAXBgNVHREEEDAOggx0ZWFtNS1zZXJ2ZXIwDQYJKoZIhvcNAQELBQAD
ggEBAD8kYpsY/19AwZWUTKnMZ06771US47hPa6SxjmH7KGReOB7JOqrUq2qtIWA9
lQ0FaQ5qIMXGO2pepTU4ysjzPXrL2LHlBzzF7vgWCYiQRGX3t4tSlwGAtEfVA889
Zc/LXZM3kwL2ZvWaCB6GyVL7ABPU0ay4UuH2LjqC1GH4JgfQyFd00/U0ml+BJjxP
KqlspGpOXiudjqt9I2zcBh6Z6VOZ0qOswPyJK0ozpT4OdmAfNwaOGxRfWZCu1gyg
pTf9cyI21IzRnjdeYvCaq+pPfUWXT5oWHjfbOjOaTStbrD/P71jLWTSrNUqe66nb
wZVEw7qRc6GxUjUSZUL7MrkC0s8=
-----END CERTIFICATE-----
