Certificate:
    Data:
        Version: 3 (0x2)
        Serial Number:
            10:86:7c:86:18:3e:44:6e:be:f8:42:cf:ec:90:f0:a4
        Signature Algorithm: sha256WithRSAEncryption
        Issuer: CN=team18-net
        Validity
            Not Before: Aug  9 00:11:40 2022 GMT
            Not After : Jul 24 00:11:40 2025 GMT
        Subject: CN=team18-server
        Subject Public Key Info:
            Public Key Algorithm: rsaEncryption
                RSA Public-Key: (2048 bit)
                Modulus:
                    00:9a:b8:3b:61:57:b2:c8:57:c8:69:0e:c6:fa:d6:
                    86:3e:7d:b6:e0:4e:01:cd:fb:20:90:96:cc:a9:6f:
                    4e:24:92:d1:29:8d:68:ad:3b:76:47:d8:20:6e:d6:
                    47:07:7e:78:5d:7f:4b:9d:43:b1:42:72:2e:c4:71:
                    ad:23:66:7b:5d:89:e6:86:08:7a:d2:88:ad:fa:27:
                    7d:14:84:7b:43:3e:2f:6a:51:e0:81:9e:71:c3:79:
                    61:e5:da:57:82:66:35:a9:ad:c4:25:4a:5c:2e:fd:
                    e4:45:5c:26:40:6c:16:a4:ff:d8:bb:ff:c0:98:61:
                    3a:fe:f6:2c:ec:78:7b:b8:b0:61:76:b6:0e:61:fa:
                    31:64:53:b6:a5:22:a6:f3:f1:ff:5a:b4:ad:84:e2:
                    b2:be:b1:98:ef:6a:4a:41:dc:5a:9c:76:fc:61:07:
                    f3:dd:31:6b:ec:25:85:c3:37:14:52:bb:b5:57:e8:
                    78:74:bf:94:ea:f8:56:a5:c1:5e:5f:c5:f4:84:c7:
                    0c:bb:36:d1:90:2c:5f:f4:14:5a:3b:1e:25:88:fd:
                    ec:f9:f7:67:a5:8a:72:61:8f:13:11:6d:72:71:e6:
                    83:de:b8:0c:41:e1:7c:e8:78:41:f8:6a:0d:91:f9:
                    13:92:be:2e:2c:d2:06:6b:cd:02:5b:99:ba:6d:b2:
                    31:9d
                Exponent: 65537 (0x10001)
        X509v3 extensions:
            X509v3 Basic Constraints: 
                CA:FALSE
            X509v3 Subject Key Identifier: 
                B2:EC:C7:5A:1B:C6:DE:EB:19:D5:B4:B1:88:FD:08:A8:03:1C:0A:5F
            X509v3 Authority Key Identifier: 
                keyid:B1:D4:15:0A:01:2A:E3:0A:AE:8D:D7:EF:C1:C7:D0:09:D0:68:CA:ED
                DirName:/CN=team18-net
                serial:65:2D:35:E1:C7:52:57:9F:30:5B:11:C0:20:49:1A:14:FB:50:03:ED

            X509v3 Extended Key Usage: 
                TLS Web Server Authentication
            X509v3 Key Usage: 
                Digital Signature, Key Encipherment
            X509v3 Subject Alternative Name: 
                DNS:team18-server
    Signature Algorithm: sha256WithRSAEncryption
         b8:fa:46:f0:14:db:fb:9b:ef:4e:24:dc:16:49:8b:d4:3a:1e:
         28:92:ee:ec:01:67:f6:b6:a1:47:d5:84:02:88:f9:ed:df:3f:
         59:11:53:70:3b:f4:73:ae:39:14:bf:54:42:72:bc:84:00:d7:
         b2:3b:0d:66:c7:09:86:52:fb:4f:7f:c9:e8:73:c2:54:55:b7:
         cd:48:ed:8e:d6:ad:6e:41:ba:20:78:be:34:e2:a7:8f:d1:44:
         2f:69:f4:16:10:4a:d0:57:95:43:7f:80:1c:65:b6:db:f4:fd:
         6e:71:39:76:1a:65:af:79:bb:ca:14:43:bd:f3:bc:7e:3d:b8:
         75:30:c0:33:e6:1e:5c:e4:8b:bf:78:49:5d:b4:9f:e8:98:a1:
         6b:d8:b6:b8:18:fe:1f:f6:47:78:8a:22:99:17:7e:96:7b:ee:
         1b:e7:3e:33:82:23:dc:ad:e8:bf:b0:2e:69:73:ea:80:70:99:
         39:34:58:c2:b0:84:f9:cd:8e:03:f9:7b:20:20:fe:3e:97:78:
         fc:8e:0d:b9:9b:e2:ad:dd:33:70:76:0d:f9:ea:56:9e:54:36:
         22:de:ae:e1:9c:d8:4f:28:ba:3c:a6:8b:e7:46:65:8b:5b:12:
         b6:3e:51:b2:10:a5:56:7a:19:69:1c:e7:75:69:92:1b:5c:16:
         3f:25:54:f2
-----BEGIN CERTIFICATE-----
MIIDczCCAlugAwIBAgIQEIZ8hhg+RG6++ELP7JDwpDANBgkqhkiG9w0BAQsFADAV
MRMwEQYDVQQDDAp0ZWFtMTgtbmV0MB4XDTIyMDgwOTAwMTE0MFoXDTI1MDcyNDAw
MTE0MFowGDEWMBQGA1UEAwwNdGVhbTE4LXNlcnZlcjCCASIwDQYJKoZIhvcNAQEB
BQADggEPADCCAQoCggEBAJq4O2FXsshXyGkOxvrWhj59tuBOAc37IJCWzKlvTiSS
0SmNaK07dkfYIG7WRwd+eF1/S51DsUJyLsRxrSNme12J5oYIetKIrfonfRSEe0M+
L2pR4IGeccN5YeXaV4JmNamtxCVKXC795EVcJkBsFqT/2Lv/wJhhOv72LOx4e7iw
YXa2DmH6MWRTtqUipvPx/1q0rYTisr6xmO9qSkHcWpx2/GEH890xa+wlhcM3FFK7
tVfoeHS/lOr4VqXBXl/F9ITHDLs20ZAsX/QUWjseJYj97Pn3Z6WKcmGPExFtcnHm
g964DEHhfOh4QfhqDZH5E5K+LizSBmvNAluZum2yMZ0CAwEAAaOBuzCBuDAJBgNV
HRMEAjAAMB0GA1UdDgQWBBSy7MdaG8be6xnVtLGI/QioAxwKXzBQBgNVHSMESTBH
gBSx1BUKASrjCq6N1+/Bx9AJ0GjK7aEZpBcwFTETMBEGA1UEAwwKdGVhbTE4LW5l
dIIUZS014cdSV58wWxHAIEkaFPtQA+0wEwYDVR0lBAwwCgYIKwYBBQUHAwEwCwYD
VR0PBAQDAgWgMBgGA1UdEQQRMA+CDXRlYW0xOC1zZXJ2ZXIwDQYJKoZIhvcNAQEL
BQADggEBALj6RvAU2/ub704k3BZJi9Q6HiiS7uwBZ/a2oUfVhAKI+e3fP1kRU3A7
9HOuORS/VEJyvIQA17I7DWbHCYZS+09/yehzwlRVt81I7Y7WrW5BuiB4vjTip4/R
RC9p9BYQStBXlUN/gBxlttv0/W5xOXYaZa95u8oUQ73zvH49uHUwwDPmHlzki794
SV20n+iYoWvYtrgY/h/2R3iKIpkXfpZ77hvnPjOCI9yt6L+wLmlz6oBwmTk0WMKw
hPnNjgP5eyAg/j6XePyODbmb4q3dM3B2DfnqVp5UNiLeruGc2E8oujymi+dGZYtb
ErY+UbIQpVZ6GWkc53VpkhtcFj8lVPI=
-----END CERTIFICATE-----
