Certificate:
    Data:
        Version: 3 (0x2)
        Serial Number:
            d1:20:54:92:3e:a9:09:71:f3:ad:e3:e5:0b:99:e1:98
        Signature Algorithm: sha256WithRSAEncryption
        Issuer: CN=team18-net
        Validity
            Not Before: Aug  9 00:11:39 2022 GMT
            Not After : Jul 24 00:11:39 2025 GMT
        Subject: CN=team18-client
        Subject Public Key Info:
            Public Key Algorithm: rsaEncryption
                RSA Public-Key: (2048 bit)
                Modulus:
                    00:9f:54:70:f6:2c:12:dc:05:b1:23:95:01:6e:77:
                    9d:c9:96:03:5c:ff:81:4a:ea:6f:4c:2a:2d:be:12:
                    89:8a:94:8b:19:c7:ec:dc:46:2f:c7:a3:75:8c:b3:
                    99:b2:af:a0:c0:d4:2f:de:e2:06:4d:f0:84:62:8a:
                    be:57:51:eb:f2:1e:04:7f:ad:3e:39:c8:47:99:1d:
                    70:b7:b0:48:cc:b2:88:86:f4:e5:1f:bf:f5:ff:8a:
                    08:5e:46:4d:2b:ac:86:ef:a6:3a:4c:63:d8:11:8e:
                    02:bc:84:5c:48:d1:07:93:d4:5e:89:bf:0d:6c:66:
                    a5:ab:1c:61:e7:48:31:62:fb:8a:56:67:a0:9e:23:
                    9d:d9:07:f0:18:15:b3:3f:2e:fc:9d:7e:e8:f6:ce:
                    ab:53:16:40:f3:e8:86:ca:6c:f5:81:99:d0:e4:4d:
                    ca:3e:b4:78:3c:33:3e:92:df:db:7a:02:9c:85:bf:
                    3f:d2:b1:8c:58:f4:72:9a:76:0a:c4:6f:51:21:70:
                    dc:4b:09:2c:a3:e2:c1:6c:9c:7c:ae:a0:39:0b:3b:
                    97:b5:ac:2a:33:f3:44:8d:98:fe:c5:26:64:83:61:
                    f3:33:92:3d:02:7a:2a:5d:0d:cb:8a:40:ec:a6:89:
                    f0:e1:b3:69:40:f0:b2:19:5d:c2:fb:55:b4:24:b0:
                    89:1b
                Exponent: 65537 (0x10001)
        X509v3 extensions:
            X509v3 Basic Constraints: 
                CA:FALSE
            X509v3 Subject Key Identifier: 
                5A:03:82:78:05:5A:3F:90:16:6E:0B:4E:C9:F7:29:53:3C:BC:63:F5
            X509v3 Authority Key Identifier: 
                keyid:B1:D4:15:0A:01:2A:E3:0A:AE:8D:D7:EF:C1:C7:D0:09:D0:68:CA:ED
                DirName:/CN=team18-net
                serial:65:2D:35:E1:C7:52:57:9F:30:5B:11:C0:20:49:1A:14:FB:50:03:ED

            X509v3 Extended Key Usage: 
                TLS Web Client Authentication
            X509v3 Key Usage: 
                Digital Signature
    Signature Algorithm: sha256WithRSAEncryption
         58:fa:be:1c:ac:0c:a5:d2:53:af:6f:31:86:5f:e6:87:8f:79:
         68:da:d8:91:2d:6f:b9:77:d7:89:00:a2:2b:3c:19:49:5d:42:
         ec:24:95:2c:ca:b2:2a:ec:fa:8b:6d:18:85:f2:cd:41:b3:8f:
         05:a0:a0:b7:b9:3d:01:39:ca:90:90:2c:fd:5c:32:22:67:e7:
         a3:15:9b:76:8a:32:fc:af:bd:86:33:a8:16:88:41:da:bb:76:
         07:d3:11:92:d9:c9:7b:56:d0:5a:b8:05:2b:73:aa:39:c0:6e:
         69:6b:95:c4:c7:dd:32:a1:ff:9a:71:d9:ba:66:d6:e0:b9:95:
         36:3e:44:18:f0:5e:9a:9e:09:94:69:56:8c:d7:7f:92:fb:2f:
         6c:e5:38:43:9a:39:91:c1:f1:ae:83:4e:6b:d9:f3:95:b1:0a:
         ed:e1:9a:83:49:49:f0:d2:96:0f:aa:d3:4b:4f:dd:07:d0:7c:
         53:94:73:66:91:a1:0d:04:ab:30:8b:e2:e5:02:8d:4c:90:73:
         82:09:55:c0:30:11:e8:e8:f7:af:14:26:f6:24:31:f6:c0:05:
         8f:7c:9d:43:63:01:d9:c4:bc:5b:6e:12:f6:76:ad:c6:52:24:
         ae:8e:0d:52:ac:de:d8:d4:34:6a:25:2b:69:57:12:ec:92:fe:
         f8:67:4b:d7
-----BEGIN CERTIFICATE-----
MIIDWjCCAkKgAwIBAgIRANEgVJI+qQlx863j5QuZ4ZgwDQYJKoZIhvcNAQELBQAw
FTETMBEGA1UEAwwKdGVhbTE4LW5ldDAeFw0yMjA4MDkwMDExMzlaFw0yNTA3MjQw
MDExMzlaMBgxFjAUBgNVBAMMDXRlYW0xOC1jbGllbnQwggEiMA0GCSqGSIb3DQEB
AQUAA4IBDwAwggEKAoIBAQCfVHD2LBLcBbEjlQFud53JlgNc/4FK6m9MKi2+EomK
lIsZx+zcRi/Ho3WMs5myr6DA1C/e4gZN8IRiir5XUevyHgR/rT45yEeZHXC3sEjM
soiG9OUfv/X/igheRk0rrIbvpjpMY9gRjgK8hFxI0QeT1F6Jvw1sZqWrHGHnSDFi
+4pWZ6CeI53ZB/AYFbM/Lvydfuj2zqtTFkDz6IbKbPWBmdDkTco+tHg8Mz6S39t6
ApyFvz/SsYxY9HKadgrEb1EhcNxLCSyj4sFsnHyuoDkLO5e1rCoz80SNmP7FJmSD
YfMzkj0CeipdDcuKQOymifDhs2lA8LIZXcL7VbQksIkbAgMBAAGjgaEwgZ4wCQYD
VR0TBAIwADAdBgNVHQ4EFgQUWgOCeAVaP5AWbgtOyfcpUzy8Y/UwUAYDVR0jBEkw
R4AUsdQVCgEq4wqujdfvwcfQCdBoyu2hGaQXMBUxEzARBgNVBAMMCnRlYW0xOC1u
ZXSCFGUtNeHHUlefMFsRwCBJGhT7UAPtMBMGA1UdJQQMMAoGCCsGAQUFBwMCMAsG
A1UdDwQEAwIHgDANBgkqhkiG9w0BAQsFAAOCAQEAWPq+HKwMpdJTr28xhl/mh495
aNrYkS1vuXfXiQCiKzwZSV1C7CSVLMqyKuz6i20YhfLNQbOPBaCgt7k9ATnKkJAs
/VwyImfnoxWbdooy/K+9hjOoFohB2rt2B9MRktnJe1bQWrgFK3OqOcBuaWuVxMfd
MqH/mnHZumbW4LmVNj5EGPBemp4JlGlWjNd/kvsvbOU4Q5o5kcHxroNOa9nzlbEK
7eGag0lJ8NKWD6rTS0/dB9B8U5RzZpGhDQSrMIvi5QKNTJBzgglVwDAR6Oj3rxQm
9iQx9sAFj3ydQ2MB2cS8W24S9natxlIkro4NUqze2NQ0aiUraVcS7JL++GdL1w==
-----END CERTIFICATE-----
