Certificate:
    Data:
        Version: 3 (0x2)
        Serial Number:
            de:1e:e0:85:ab:a1:71:f9:ec:b0:29:7c:a5:3b:74:22
        Signature Algorithm: sha256WithRSAEncryption
        Issuer: CN=team28-net
        Validity
            Not Before: Aug  9 00:11:48 2022 GMT
            Not After : Jul 24 00:11:48 2025 GMT
        Subject: CN=team28-server
        Subject Public Key Info:
            Public Key Algorithm: rsaEncryption
                RSA Public-Key: (2048 bit)
                Modulus:
                    00:d4:0d:ae:f5:b7:78:aa:4c:1c:5c:69:ae:38:7f:
                    05:77:cc:a5:1d:e8:d6:4c:5d:5d:25:f4:d5:ea:a1:
                    7e:47:a0:38:3f:50:e2:6b:04:26:04:bc:ea:a0:d1:
                    de:44:8a:ee:a6:52:b8:94:b2:73:62:f3:15:33:6f:
                    6c:77:e3:77:48:49:6e:9d:29:c9:c3:4c:29:aa:2e:
                    35:66:a4:09:0b:f5:9a:42:2a:fa:43:84:84:01:e3:
                    84:d8:b2:f7:67:a7:67:d7:cd:bd:45:bf:fe:01:f6:
                    75:dd:e4:92:8d:8e:b0:0a:81:31:05:94:3f:74:01:
                    a1:f3:c0:c5:78:01:b4:06:b0:18:34:a0:d9:fc:6b:
                    f5:72:b9:d6:7f:4c:7b:9d:ca:23:ee:86:b3:e9:7a:
                    fc:7f:d9:b1:4d:c6:91:66:92:75:e5:04:a6:cd:51:
                    6f:b1:81:18:4c:87:81:38:a0:2b:4b:8a:1f:c9:9f:
                    5f:19:f8:d6:96:b4:bb:60:52:f8:e6:0f:e6:db:5d:
                    57:2e:f0:de:25:d3:89:a3:d1:7d:df:25:56:64:24:
                    74:25:38:3e:de:bb:20:11:d2:e3:61:ff:38:84:8f:
                    d8:54:6d:ba:eb:f2:3c:91:50:b9:fd:db:9d:42:e0:
                    d4:e8:da:80:29:a1:ee:2f:08:26:54:53:b7:f3:91:
                    1a:ad
                Exponent: 65537 (0x10001)
        X509v3 extensions:
            X509v3 Basic Constraints: 
                CA:FALSE
            X509v3 Subject Key Identifier: 
                D7:AC:BE:19:62:0F:EE:43:A3:A6:ED:DA:1E:81:01:8C:01:9A:D5:65
            X509v3 Authority Key Identifier: 
                keyid:59:03:03:0F:E5:B3:DA:F3:78:B7:CA:CA:AB:A1:AA:AD:73:F4:21:8A
                DirName:/CN=team28-net
                serial:25:B0:9D:AC:B1:4E:44:83:CD:42:C9:D1:65:BF:CC:DF:4A:63:CC:AE

            X509v3 Extended Key Usage: 
                TLS Web Server Authentication
            X509v3 Key Usage: 
                Digital Signature, Key Encipherment
            X509v3 Subject Alternative Name: 
                DNS:team28-server
    Signature Algorithm: sha256WithRSAEncryption
         a2:8b:47:cf:15:cc:1b:a1:03:b1:fa:b5:02:c7:dd:69:76:fd:
         12:eb:cd:f9:48:8e:be:66:74:33:97:25:73:ee:d5:8b:43:37:
         98:f3:12:93:9b:a7:cd:58:66:75:c2:c0:4a:33:52:79:58:cf:
         da:c5:5d:f8:80:ee:11:9b:33:25:fc:5b:5f:35:4d:f9:7a:87:
         af:80:0e:21:c2:c7:a7:6f:f2:d5:69:2a:9b:ba:cf:bb:eb:13:
         69:c0:12:a4:a2:98:1e:ac:70:53:e6:09:ca:61:f4:91:77:c6:
         06:61:aa:c8:a0:97:28:49:8f:8a:1b:71:0b:ee:a7:ae:0e:72:
         77:9a:5b:69:e6:b3:c7:4a:3b:e6:58:a6:0d:57:e3:bc:31:36:
         6a:aa:df:d7:a8:8c:0d:de:cc:cc:60:c2:38:88:46:a1:35:19:
         fa:53:b6:70:d1:10:cd:33:e8:f8:c9:ff:16:f7:2c:a3:3b:f5:
         65:11:ad:0b:dc:c5:73:99:12:e6:7f:2c:02:87:bf:44:92:7c:
         40:25:ac:dc:cb:1f:5f:47:29:35:ec:b9:c1:18:47:3b:aa:1e:
         cb:ef:d4:46:7c:95:59:64:8a:74:45:13:11:98:fb:65:c0:8d:
         78:52:d0:6e:f2:4d:c5:9f:1b:2d:74:a9:c9:7f:35:5f:58:b0:
         2e:f0:6b:b0
-----BEGIN CERTIFICATE-----
MIIDdDCCAlygAwIBAgIRAN4e4IWroXH57LApfKU7dCIwDQYJKoZIhvcNAQELBQAw
FTETMBEGA1UEAwwKdGVhbTI4LW5ldDAeFw0yMjA4MDkwMDExNDhaFw0yNTA3MjQw
MDExNDhaMBgxFjAUBgNVBAMMDXRlYW0yOC1zZXJ2ZXIwggEiMA0GCSqGSIb3DQEB
AQUAA4IBDwAwggEKAoIBAQDUDa71t3iqTBxcaa44fwV3zKUd6NZMXV0l9NXqoX5H
oDg/UOJrBCYEvOqg0d5Eiu6mUriUsnNi8xUzb2x343dISW6dKcnDTCmqLjVmpAkL
9ZpCKvpDhIQB44TYsvdnp2fXzb1Fv/4B9nXd5JKNjrAKgTEFlD90AaHzwMV4AbQG
sBg0oNn8a/VyudZ/THudyiPuhrPpevx/2bFNxpFmknXlBKbNUW+xgRhMh4E4oCtL
ih/Jn18Z+NaWtLtgUvjmD+bbXVcu8N4l04mj0X3fJVZkJHQlOD7euyAR0uNh/ziE
j9hUbbrr8jyRULn9251C4NTo2oApoe4vCCZUU7fzkRqtAgMBAAGjgbswgbgwCQYD
VR0TBAIwADAdBgNVHQ4EFgQU16y+GWIP7kOjpu3aHoEBjAGa1WUwUAYDVR0jBEkw
R4AUWQMDD+Wz2vN4t8rKq6GqrXP0IYqhGaQXMBUxEzARBgNVBAMMCnRlYW0yOC1u
ZXSCFCWwnayxTkSDzULJ0WW/zN9KY8yuMBMGA1UdJQQMMAoGCCsGAQUFBwMBMAsG
A1UdDwQEAwIFoDAYBgNVHREEETAPgg10ZWFtMjgtc2VydmVyMA0GCSqGSIb3DQEB
CwUAA4IBAQCii0fPFcwboQOx+rUCx91pdv0S6835SI6+ZnQzlyVz7tWLQzeY8xKT
m6fNWGZ1wsBKM1J5WM/axV34gO4RmzMl/FtfNU35eoevgA4hwsenb/LVaSqbus+7
6xNpwBKkopgerHBT5gnKYfSRd8YGYarIoJcoSY+KG3EL7qeuDnJ3mltp5rPHSjvm
WKYNV+O8MTZqqt/XqIwN3szMYMI4iEahNRn6U7Zw0RDNM+j4yf8W9yyjO/VlEa0L
3MVzmRLmfywCh79EknxAJazcyx9fRyk17LnBGEc7qh7L79RGfJVZZIp0RRMRmPtl
wI14UtBu8k3FnxstdKnJfzVfWLAu8Guw
-----END CERTIFICATE-----
