Certificate:
    Data:
        Version: 3 (0x2)
        Serial Number:
            28:32:f9:c1:18:dc:40:c3:cb:d1:22:63:c1:87:bb:b6
        Signature Algorithm: sha256WithRSAEncryption
        Issuer: CN=team27-net
        Validity
            Not Before: Aug  9 18:52:45 2022 GMT
            Not After : Jul 24 18:52:45 2025 GMT
        Subject: CN=team27-client
        Subject Public Key Info:
            Public Key Algorithm: rsaEncryption
                RSA Public-Key: (2048 bit)
                Modulus:
                    00:9c:bd:67:4a:d1:ef:60:90:78:33:ab:10:bb:69:
                    d5:6d:17:03:f8:86:b9:c5:72:b3:c4:de:c3:6e:dc:
                    f0:89:b2:5f:50:46:a9:d8:68:93:12:4e:b6:da:4a:
                    cf:6a:b4:20:49:3b:9c:d8:ca:15:fd:49:73:51:d3:
                    25:9d:6e:6a:7e:fa:ae:75:ab:44:3a:6e:a2:03:9e:
                    ca:64:8c:55:9d:b2:d4:8f:83:0c:de:b2:87:c5:44:
                    4e:a2:50:a6:1e:c0:48:1b:25:e6:58:c5:f2:eb:bf:
                    92:e5:6e:da:a7:e3:a8:7a:3f:fe:72:c0:00:d4:64:
                    6a:59:37:93:c1:4f:fd:8d:63:19:20:64:23:cd:07:
                    64:15:a9:98:9b:ad:32:42:34:4b:79:6c:98:d5:9c:
                    91:76:87:36:ef:e0:e9:4e:cc:5f:c2:b5:98:77:5d:
                    2a:55:71:0d:82:2c:7d:0c:6e:3e:a8:60:dd:3e:b9:
                    22:bb:3d:3f:4f:c8:d0:6d:0a:48:51:fb:ab:e3:53:
                    66:e3:d3:c2:ce:a4:d4:91:c5:0d:67:a5:6e:1b:4d:
                    5b:57:87:3c:5c:67:5a:9f:24:40:fd:0e:1e:8d:48:
                    06:15:43:a7:f2:de:0b:b3:3d:dc:0e:f2:9f:82:20:
                    ac:36:9e:70:0b:14:40:42:a7:70:1f:07:8c:f2:5d:
                    a5:95
                Exponent: 65537 (0x10001)
        X509v3 extensions:
            X509v3 Basic Constraints: 
                CA:FALSE
            X509v3 Subject Key Identifier: 
                E9:73:8E:CE:7B:DD:3C:49:4E:53:F3:E3:E9:0D:DB:78:C5:63:65:98
            X509v3 Authority Key Identifier: 
                keyid:DD:C5:B2:BB:74:EC:EC:EE:99:C1:4B:10:E6:5C:15:17:6F:C7:22:21
                DirName:/CN=team27-net
                serial:78:A5:46:F8:09:B2:11:C7:26:4F:CB:09:90:37:36:3C:40:5F:9E:03

            X509v3 Extended Key Usage: 
                TLS Web Client Authentication
            X509v3 Key Usage: 
                Digital Signature
    Signature Algorithm: sha256WithRSAEncryption
         a1:28:d1:9c:66:8f:79:ce:e8:07:2e:29:d1:3e:d3:50:5e:2d:
         d0:bd:e7:fb:2f:6f:39:9b:96:9a:d8:5e:58:b4:3d:67:5a:4f:
         a7:4a:c3:66:ba:65:a9:4e:33:42:93:6e:18:8d:5e:a1:a7:b1:
         46:b2:c1:69:7d:0a:a4:b7:01:82:13:ee:60:8b:ba:55:bf:5e:
         1a:b3:ee:fa:43:b9:a7:2d:7d:3c:05:d6:c7:34:8d:de:1d:2a:
         39:dc:d7:3b:14:94:33:78:51:78:58:b1:9e:6e:7d:65:a9:f7:
         e6:30:15:e4:63:a8:ca:73:d4:37:11:9f:88:50:ed:ea:3f:45:
         f2:5a:24:71:d0:9f:8d:7c:74:f5:9c:98:26:70:58:72:c8:e3:
         21:93:79:25:a3:33:af:a2:74:0b:c5:8f:0b:58:25:4f:29:32:
         b6:fa:c3:9f:15:2f:d4:8c:76:1d:ce:44:b0:63:6c:70:23:9d:
         78:44:c2:29:a2:96:84:43:3a:5f:0f:02:15:f9:a5:8a:5f:28:
         3f:a5:ef:1d:17:6a:45:7c:5d:4e:ef:99:81:e6:27:4d:7e:cf:
         cc:9c:14:ac:ca:e6:2e:30:b7:13:d9:4e:38:d8:ed:fd:0d:e1:
         cd:69:8b:f3:fc:a0:b4:b3:0a:ef:02:a7:cc:d9:82:12:54:99:
         d8:44:38:a0
-----BEGIN CERTIFICATE-----
MIIDWTCCAkGgAwIBAgIQKDL5wRjcQMPL0SJjwYe7tjANBgkqhkiG9w0BAQsFADAV
MRMwEQYDVQQDDAp0ZWFtMjctbmV0MB4XDTIyMDgwOTE4NTI0NVoXDTI1MDcyNDE4
NTI0NVowGDEWMBQGA1UEAwwNdGVhbTI3LWNsaWVudDCCASIwDQYJKoZIhvcNAQEB
BQADggEPADCCAQoCggEBAJy9Z0rR72CQeDOrELtp1W0XA/iGucVys8Tew27c8Imy
X1BGqdhokxJOttpKz2q0IEk7nNjKFf1Jc1HTJZ1uan76rnWrRDpuogOeymSMVZ2y
1I+DDN6yh8VETqJQph7ASBsl5ljF8uu/kuVu2qfjqHo//nLAANRkalk3k8FP/Y1j
GSBkI80HZBWpmJutMkI0S3lsmNWckXaHNu/g6U7MX8K1mHddKlVxDYIsfQxuPqhg
3T65Irs9P0/I0G0KSFH7q+NTZuPTws6k1JHFDWelbhtNW1eHPFxnWp8kQP0OHo1I
BhVDp/LeC7M93A7yn4IgrDaecAsUQEKncB8HjPJdpZUCAwEAAaOBoTCBnjAJBgNV
HRMEAjAAMB0GA1UdDgQWBBTpc47Oe908SU5T8+PpDdt4xWNlmDBQBgNVHSMESTBH
gBTdxbK7dOzs7pnBSxDmXBUXb8ciIaEZpBcwFTETMBEGA1UEAwwKdGVhbTI3LW5l
dIIUeKVG+AmyEccmT8sJkDc2PEBfngMwEwYDVR0lBAwwCgYIKwYBBQUHAwIwCwYD
VR0PBAQDAgeAMA0GCSqGSIb3DQEBCwUAA4IBAQChKNGcZo95zugHLinRPtNQXi3Q
vef7L285m5aa2F5YtD1nWk+nSsNmumWpTjNCk24YjV6hp7FGssFpfQqktwGCE+5g
i7pVv14as+76Q7mnLX08BdbHNI3eHSo53Nc7FJQzeFF4WLGebn1lqffmMBXkY6jK
c9Q3EZ+IUO3qP0XyWiRx0J+NfHT1nJgmcFhyyOMhk3klozOvonQLxY8LWCVPKTK2
+sOfFS/UjHYdzkSwY2xwI514RMIpopaEQzpfDwIV+aWKXyg/pe8dF2pFfF1O75mB
5idNfs/MnBSsyuYuMLcT2U442O39DeHNaYvz/KC0swrvAqfM2YISVJnYRDig
-----END CERTIFICATE-----
