Certificate:
    Data:
        Version: 3 (0x2)
        Serial Number:
            88:15:d4:79:4d:57:9f:8a:13:24:64:e1:75:e6:b8:d6
        Signature Algorithm: sha256WithRSAEncryption
        Issuer: CN=team25-net
        Validity
            Not Before: Aug  9 00:11:46 2022 GMT
            Not After : Jul 24 00:11:46 2025 GMT
        Subject: CN=team25-client
        Subject Public Key Info:
            Public Key Algorithm: rsaEncryption
                RSA Public-Key: (2048 bit)
                Modulus:
                    00:b9:a0:f0:0f:36:bd:fc:29:f6:e3:62:9e:d4:16:
                    33:e0:1e:e9:47:41:e8:3c:41:84:ef:24:9a:ce:5e:
                    e7:68:77:8a:07:2f:63:c0:f8:94:fb:8d:f2:48:b1:
                    5d:26:a2:eb:3d:79:b2:9f:4a:68:a1:cc:9a:58:4c:
                    d2:fb:de:68:14:b9:58:03:3c:ca:23:4d:86:bb:01:
                    ca:09:96:c5:80:e7:21:21:b2:17:25:33:11:dd:cb:
                    25:64:2d:05:29:7e:94:36:84:46:1d:12:e6:c4:8b:
                    d3:0e:92:e6:6e:54:50:1f:e1:41:82:76:8a:c8:fc:
                    fc:c8:19:0d:5e:59:c7:18:3e:ec:f7:ea:c1:3b:f1:
                    35:01:97:65:46:e6:ec:64:6a:3e:52:f1:65:b0:76:
                    77:45:69:70:3f:e9:5c:9a:8c:57:86:2e:6c:24:1e:
                    01:15:27:aa:2a:4d:e1:1a:b4:5c:b0:76:fc:88:b4:
                    49:e8:f9:7f:74:17:69:c0:24:90:dd:4f:16:50:27:
                    99:7e:79:79:86:1c:c9:5b:64:fc:db:4b:0e:2a:58:
                    04:42:2f:ce:7e:40:d3:54:fa:b3:56:ef:6f:9d:73:
                    a8:f7:86:85:16:2b:75:74:81:85:51:fd:32:1b:09:
                    8c:73:da:50:2f:e2:88:41:e4:f7:cd:4f:f9:3c:9a:
                    dd:cb
                Exponent: 65537 (0x10001)
        X509v3 extensions:
            X509v3 Basic Constraints: 
                CA:FALSE
            X509v3 Subject Key Identifier: 
                F9:62:77:97:B7:D4:43:98:8A:19:41:9F:B2:96:82:37:BB:51:95:C8
            X509v3 Authority Key Identifier: 
                keyid:37:45:78:C9:8F:B9:B0:B5:A4:1A:E9:3C:56:91:6A:35:C3:88:DD:44
                DirName:/CN=team25-net
                serial:08:80:35:C8:81:E0:78:F4:3D:B7:BE:69:50:31:C0:FD:5A:9E:0B:6F

            X509v3 Extended Key Usage: 
                TLS Web Client Authentication
            X509v3 Key Usage: 
                Digital Signature
    Signature Algorithm: sha256WithRSAEncryption
         99:0d:f3:89:8b:d6:b8:2f:a5:9d:d9:6d:49:d1:dc:c6:6f:83:
         a4:6a:33:58:35:c6:91:35:7b:87:61:ed:34:a5:b6:78:17:46:
         e7:7e:ef:b0:e5:0b:74:eb:36:5f:9b:76:8c:bd:a7:db:fa:1f:
         c0:3e:8b:fa:38:d9:dc:57:e5:2a:1d:86:13:43:8a:17:39:7d:
         5d:fb:4c:48:2b:18:4b:fa:a6:d2:72:34:b7:1e:c6:4d:b3:18:
         eb:69:61:b6:1e:d0:29:8c:d1:70:5b:34:84:8b:85:6f:56:a8:
         1d:81:f1:02:34:14:8f:64:2a:4f:15:f2:08:cf:6c:77:29:94:
         3e:97:e8:2e:4d:7e:30:86:fb:e5:17:07:c1:8e:56:4b:fc:1b:
         ee:9f:3d:12:35:82:d8:14:cc:e4:a3:46:10:22:93:41:73:8f:
         36:f9:17:1c:a2:be:c7:d4:eb:33:82:98:a0:d9:fd:7f:7c:70:
         36:82:7f:7d:12:ae:95:2f:45:fb:19:ca:96:c3:f2:52:56:17:
         35:c0:5c:88:22:4a:72:71:9a:25:f3:44:5a:4f:65:a1:72:be:
         06:92:4a:c7:4e:9d:56:08:21:2f:79:4a:c2:04:b8:2f:06:d9:
         2d:d6:c4:e8:0d:eb:bc:d6:a1:50:84:33:ae:9b:43:10:99:58:
         6d:b9:92:09
-----BEGIN CERTIFICATE-----
MIIDWjCCAkKgAwIBAgIRAIgV1HlNV5+KEyRk4XXmuNYwDQYJKoZIhvcNAQELBQAw
FTETMBEGA1UEAwwKdGVhbTI1LW5ldDAeFw0yMjA4MDkwMDExNDZaFw0yNTA3MjQw
MDExNDZaMBgxFjAUBgNVBAMMDXRlYW0yNS1jbGllbnQwggEiMA0GCSqGSIb3DQEB
AQUAA4IBDwAwggEKAoIBAQC5oPAPNr38KfbjYp7UFjPgHulHQeg8QYTvJJrOXudo
d4oHL2PA+JT7jfJIsV0mous9ebKfSmihzJpYTNL73mgUuVgDPMojTYa7AcoJlsWA
5yEhshclMxHdyyVkLQUpfpQ2hEYdEubEi9MOkuZuVFAf4UGCdorI/PzIGQ1eWccY
Puz36sE78TUBl2VG5uxkaj5S8WWwdndFaXA/6VyajFeGLmwkHgEVJ6oqTeEatFyw
dvyItEno+X90F2nAJJDdTxZQJ5l+eXmGHMlbZPzbSw4qWARCL85+QNNU+rNW72+d
c6j3hoUWK3V0gYVR/TIbCYxz2lAv4ohB5PfNT/k8mt3LAgMBAAGjgaEwgZ4wCQYD
VR0TBAIwADAdBgNVHQ4EFgQU+WJ3l7fUQ5iKGUGfspaCN7tRlcgwUAYDVR0jBEkw
R4AUN0V4yY+5sLWkGuk8VpFqNcOI3UShGaQXMBUxEzARBgNVBAMMCnRlYW0yNS1u
ZXSCFAiANciB4Hj0Pbe+aVAxwP1angtvMBMGA1UdJQQMMAoGCCsGAQUFBwMCMAsG
A1UdDwQEAwIHgDANBgkqhkiG9w0BAQsFAAOCAQEAmQ3ziYvWuC+lndltSdHcxm+D
pGozWDXGkTV7h2HtNKW2eBdG537vsOULdOs2X5t2jL2n2/ofwD6L+jjZ3FflKh2G
E0OKFzl9XftMSCsYS/qm0nI0tx7GTbMY62lhth7QKYzRcFs0hIuFb1aoHYHxAjQU
j2QqTxXyCM9sdymUPpfoLk1+MIb75RcHwY5WS/wb7p89EjWC2BTM5KNGECKTQXOP
NvkXHKK+x9TrM4KYoNn9f3xwNoJ/fRKulS9F+xnKlsPyUlYXNcBciCJKcnGaJfNE
Wk9loXK+BpJKx06dVgghL3lKwgS4LwbZLdbE6A3rvNahUIQzrptDEJlYbbmSCQ==
-----END CERTIFICATE-----
