Certificate:
    Data:
        Version: 3 (0x2)
        Serial Number:
            aa:62:f7:8f:a7:e5:c8:03:d1:9b:b8:7b:3b:6c:29:39
        Signature Algorithm: sha256WithRSAEncryption
        Issuer: CN=team25-net
        Validity
            Not Before: Aug  9 00:11:46 2022 GMT
            Not After : Jul 24 00:11:46 2025 GMT
        Subject: CN=team25-server
        Subject Public Key Info:
            Public Key Algorithm: rsaEncryption
                RSA Public-Key: (2048 bit)
                Modulus:
                    00:b2:2a:99:5b:29:82:d5:a4:53:1e:ad:55:d8:39:
                    d8:e8:98:15:9c:1e:0c:fc:5b:3c:09:7f:d4:32:77:
                    e7:d4:5e:cd:f5:2c:eb:98:12:32:c1:4f:72:d9:c2:
                    a8:14:48:50:74:7b:43:30:7b:cf:e1:f3:b8:0a:2c:
                    61:48:61:65:6b:0e:c0:7d:50:c4:9e:c7:2c:fd:6a:
                    dc:2a:7e:fb:56:65:4d:97:8c:f8:fc:5a:b3:f0:52:
                    9d:32:da:ac:c2:f8:4d:6c:5a:19:73:be:53:5e:47:
                    ae:92:89:9b:d5:95:f0:88:63:5e:7e:f3:91:f6:67:
                    85:9e:77:2f:ab:99:96:ac:0f:23:a8:f3:d5:93:40:
                    20:f5:d6:78:89:be:92:2d:18:ce:0f:5b:48:94:ab:
                    36:11:50:db:af:d5:ce:9e:9b:ce:3c:d3:94:79:de:
                    9c:b2:05:52:2c:ff:ad:8d:7b:25:46:0d:eb:f5:ad:
                    2f:7e:ee:a6:1c:14:7d:dd:b0:e5:2a:45:0f:78:3a:
                    ab:5e:da:eb:7e:70:50:a0:3d:13:1e:ad:9d:fe:f5:
                    f7:ed:e4:ca:85:9e:cf:af:35:e7:5a:74:e0:27:dc:
                    54:7e:19:e7:f7:74:02:f6:28:12:5f:cb:8d:b7:cf:
                    b1:1c:7e:08:c6:3c:1e:4a:5c:6f:f4:53:08:1b:75:
                    2b:6f
                Exponent: 65537 (0x10001)
        X509v3 extensions:
            X509v3 Basic Constraints: 
                CA:FALSE
            X509v3 Subject Key Identifier: 
                0F:9A:4E:6D:17:1E:1A:BD:68:B1:AA:9C:DB:93:7C:39:85:66:F0:F8
            X509v3 Authority Key Identifier: 
                keyid:37:45:78:C9:8F:B9:B0:B5:A4:1A:E9:3C:56:91:6A:35:C3:88:DD:44
                DirName:/CN=team25-net
                serial:08:80:35:C8:81:E0:78:F4:3D:B7:BE:69:50:31:C0:FD:5A:9E:0B:6F

            X509v3 Extended Key Usage: 
                TLS Web Server Authentication
            X509v3 Key Usage: 
                Digital Signature, Key Encipherment
            X509v3 Subject Alternative Name: 
                DNS:team25-server
    Signature Algorithm: sha256WithRSAEncryption
         5f:1e:db:a2:e1:6e:02:32:cb:5a:c8:9a:36:89:89:ca:bb:58:
         03:9d:6b:28:08:c9:a1:15:17:2e:f1:1b:7d:3c:86:6a:dd:f1:
         36:dc:b2:14:4d:da:cd:fb:08:d3:4e:c7:60:02:f4:25:2a:6e:
         f4:4c:24:6d:97:ff:17:2f:31:3e:dc:67:1e:ee:cb:75:ef:85:
         96:cf:9c:c1:47:03:ba:e8:36:8f:ce:9b:83:db:f9:43:e0:38:
         b0:78:52:f9:dc:c2:c9:56:9a:59:1f:6a:13:b7:8d:be:5d:02:
         21:bb:7d:af:0b:0c:f1:f0:50:25:aa:f4:94:52:6f:7f:77:f9:
         88:b9:5a:df:d4:ee:b6:45:ef:d2:ba:62:6f:dd:44:95:42:12:
         66:7c:b4:0a:0b:1d:33:25:0d:52:4a:ae:14:f4:46:c7:66:5e:
         87:8d:fe:05:7d:67:fe:ea:bb:3a:8d:60:58:1c:60:a9:f3:1a:
         5d:f3:a6:14:2a:5d:c7:3d:96:c0:ee:e7:26:ee:d1:b7:ae:d6:
         81:7d:1b:21:98:e4:00:dd:67:d2:be:e1:f6:08:46:48:97:8d:
         3f:84:ec:b5:e1:b0:87:72:32:a7:b3:fc:a6:e0:55:19:77:12:
         39:64:64:12:31:25:80:a5:6a:60:ee:27:e0:70:51:7d:c2:ae:
         f6:b4:3e:13
-----BEGIN CERTIFICATE-----
MIIDdDCCAlygAwIBAgIRAKpi94+n5cgD0Zu4eztsKTkwDQYJKoZIhvcNAQELBQAw
FTETMBEGA1UEAwwKdGVhbTI1LW5ldDAeFw0yMjA4MDkwMDExNDZaFw0yNTA3MjQw
MDExNDZaMBgxFjAUBgNVBAMMDXRlYW0yNS1zZXJ2ZXIwggEiMA0GCSqGSIb3DQEB
AQUAA4IBDwAwggEKAoIBAQCyKplbKYLVpFMerVXYOdjomBWcHgz8WzwJf9Qyd+fU
Xs31LOuYEjLBT3LZwqgUSFB0e0Mwe8/h87gKLGFIYWVrDsB9UMSexyz9atwqfvtW
ZU2XjPj8WrPwUp0y2qzC+E1sWhlzvlNeR66SiZvVlfCIY15+85H2Z4Wedy+rmZas
DyOo89WTQCD11niJvpItGM4PW0iUqzYRUNuv1c6em84805R53pyyBVIs/62NeyVG
Dev1rS9+7qYcFH3dsOUqRQ94Oqte2ut+cFCgPRMerZ3+9fft5MqFns+vNedadOAn
3FR+Gef3dAL2KBJfy423z7EcfgjGPB5KXG/0UwgbdStvAgMBAAGjgbswgbgwCQYD
VR0TBAIwADAdBgNVHQ4EFgQUD5pObRceGr1osaqc25N8OYVm8PgwUAYDVR0jBEkw
R4AUN0V4yY+5sLWkGuk8VpFqNcOI3UShGaQXMBUxEzARBgNVBAMMCnRlYW0yNS1u
ZXSCFAiANciB4Hj0Pbe+aVAxwP1angtvMBMGA1UdJQQMMAoGCCsGAQUFBwMBMAsG
A1UdDwQEAwIFoDAYBgNVHREEETAPgg10ZWFtMjUtc2VydmVyMA0GCSqGSIb3DQEB
CwUAA4IBAQBfHtui4W4CMstayJo2iYnKu1gDnWsoCMmhFRcu8Rt9PIZq3fE23LIU
TdrN+wjTTsdgAvQlKm70TCRtl/8XLzE+3Gce7st174WWz5zBRwO66DaPzpuD2/lD
4DiweFL53MLJVppZH2oTt42+XQIhu32vCwzx8FAlqvSUUm9/d/mIuVrf1O62Re/S
umJv3USVQhJmfLQKCx0zJQ1SSq4U9EbHZl6Hjf4FfWf+6rs6jWBYHGCp8xpd86YU
Kl3HPZbA7ucm7tG3rtaBfRshmOQA3WfSvuH2CEZIl40/hOy14bCHcjKns/ym4FUZ
dxI5ZGQSMSWApWpg7ifgcFF9wq72tD4T
-----END CERTIFICATE-----
