Certificate:
    Data:
        Version: 3 (0x2)
        Serial Number:
            8a:8c:0f:8c:d7:f0:b5:2f:c8:01:20:6a:d3:66:16:64
        Signature Algorithm: sha256WithRSAEncryption
        Issuer: CN=team12-net
        Validity
            Not Before: Aug  9 00:11:34 2022 GMT
            Not After : Jul 24 00:11:34 2025 GMT
        Subject: CN=team12-server
        Subject Public Key Info:
            Public Key Algorithm: rsaEncryption
                RSA Public-Key: (2048 bit)
                Modulus:
                    00:b8:aa:b5:b0:8a:41:2f:2d:28:75:36:54:d5:81:
                    75:c1:8f:e9:e5:c3:a8:b5:8a:16:50:2f:e8:a2:b7:
                    e2:19:2b:53:d2:bb:e4:4c:9c:55:c0:90:5a:2b:72:
                    f6:a3:bd:5a:4f:48:45:22:9d:8b:a2:97:c7:48:9a:
                    95:dd:67:c5:4d:f8:7b:0e:d8:8d:60:b1:df:4d:59:
                    63:d6:fc:87:14:d5:d7:b9:02:8b:89:73:b3:ad:b8:
                    1a:3d:a7:6f:9e:7f:87:03:f3:93:eb:ae:08:15:1a:
                    b1:c6:41:3b:42:df:1f:a1:51:73:c4:ec:7d:3d:f9:
                    28:f5:36:00:d4:b5:5e:48:b3:86:de:1b:6c:b1:7b:
                    52:b2:05:57:a9:ec:ae:8e:d5:5e:a8:72:ce:b8:70:
                    fd:be:61:84:81:e4:29:a0:5b:28:61:27:21:d9:5f:
                    02:68:d0:d6:a8:5b:69:65:09:70:79:cc:a9:9a:71:
                    8f:fd:a0:41:cd:37:ce:9d:cf:6d:e2:67:36:0d:e2:
                    24:3f:8b:86:cf:05:6b:d7:27:1a:33:2f:71:02:25:
                    30:64:7a:88:e0:bc:dd:e2:4a:f0:e3:bb:46:2f:8b:
                    81:29:b4:61:af:94:73:2c:b5:b7:d1:cc:34:66:32:
                    d5:3b:48:74:c4:ff:11:ee:0e:16:0a:75:e7:66:96:
                    8a:33
                Exponent: 65537 (0x10001)
        X509v3 extensions:
            X509v3 Basic Constraints: 
                CA:FALSE
            X509v3 Subject Key Identifier: 
                50:0A:CC:F6:45:D3:72:74:06:D3:0D:52:1D:77:AC:52:82:F4:A7:2F
            X509v3 Authority Key Identifier: 
                keyid:47:1B:75:32:DE:DF:44:0D:19:FE:29:66:F4:1A:EA:5F:BD:BB:CC:9E
                DirName:/CN=team12-net
                serial:73:28:44:D8:CB:D0:79:6F:FB:7D:8C:AF:73:67:E2:B9:DC:CA:5C:26

            X509v3 Extended Key Usage: 
                TLS Web Server Authentication
            X509v3 Key Usage: 
                Digital Signature, Key Encipherment
            X509v3 Subject Alternative Name: 
                DNS:team12-server
    Signature Algorithm: sha256WithRSAEncryption
         a2:b0:a3:b1:33:a3:af:e2:34:16:c1:b6:7b:1e:d6:a1:0a:33:
         90:d5:6e:e8:25:3b:bb:fc:3f:59:55:e7:db:83:7b:51:2c:9e:
         e6:03:63:b5:cd:f8:6b:f1:13:6f:fb:c3:2f:4c:eb:43:4f:92:
         57:cc:d9:84:74:9b:01:34:13:24:7c:46:a5:53:3f:10:fb:9a:
         9d:96:e7:6c:04:09:5e:4c:4c:1f:0e:80:e0:6a:77:9c:8d:f2:
         ff:fb:37:bb:93:5c:bf:e1:5b:d8:d3:5f:0b:c6:04:1a:f6:7a:
         a1:d5:0f:b6:fe:8c:3f:ab:f2:8f:f1:30:da:4f:12:54:f7:7d:
         32:da:84:52:72:e3:66:1f:03:77:9c:3a:a8:d3:12:0d:91:ba:
         31:04:af:8a:90:c2:9c:76:99:39:21:55:ff:d8:91:18:05:09:
         91:cb:2c:0e:5f:fe:b5:18:bf:bb:db:61:26:74:79:7b:d4:74:
         01:6a:53:71:ed:54:10:56:8a:69:83:2d:19:b6:b4:7d:43:3b:
         c4:20:e3:d3:dc:fb:c4:12:98:39:b2:82:b3:5c:59:eb:dc:6e:
         a1:26:5b:6c:98:2d:7c:85:10:43:c9:db:40:ed:01:18:a8:c0:
         d9:bd:38:a8:b9:e6:6a:d9:bb:7c:b5:93:ec:e3:34:65:10:29:
         74:4d:86:ed
-----BEGIN CERTIFICATE-----
MIIDdDCCAlygAwIBAgIRAIqMD4zX8LUvyAEgatNmFmQwDQYJKoZIhvcNAQELBQAw
FTETMBEGA1UEAwwKdGVhbTEyLW5ldDAeFw0yMjA4MDkwMDExMzRaFw0yNTA3MjQw
MDExMzRaMBgxFjAUBgNVBAMMDXRlYW0xMi1zZXJ2ZXIwggEiMA0GCSqGSIb3DQEB
AQUAA4IBDwAwggEKAoIBAQC4qrWwikEvLSh1NlTVgXXBj+nlw6i1ihZQL+iit+IZ
K1PSu+RMnFXAkForcvajvVpPSEUinYuil8dImpXdZ8VN+HsO2I1gsd9NWWPW/IcU
1de5AouJc7OtuBo9p2+ef4cD85PrrggVGrHGQTtC3x+hUXPE7H09+Sj1NgDUtV5I
s4beG2yxe1KyBVep7K6O1V6ocs64cP2+YYSB5CmgWyhhJyHZXwJo0NaoW2llCXB5
zKmacY/9oEHNN86dz23iZzYN4iQ/i4bPBWvXJxozL3ECJTBkeojgvN3iSvDju0Yv
i4EptGGvlHMstbfRzDRmMtU7SHTE/xHuDhYKdedmloozAgMBAAGjgbswgbgwCQYD
VR0TBAIwADAdBgNVHQ4EFgQUUArM9kXTcnQG0w1SHXesUoL0py8wUAYDVR0jBEkw
R4AURxt1Mt7fRA0Z/ilm9BrqX727zJ6hGaQXMBUxEzARBgNVBAMMCnRlYW0xMi1u
ZXSCFHMoRNjL0Hlv+32Mr3Nn4rncylwmMBMGA1UdJQQMMAoGCCsGAQUFBwMBMAsG
A1UdDwQEAwIFoDAYBgNVHREEETAPgg10ZWFtMTItc2VydmVyMA0GCSqGSIb3DQEB
CwUAA4IBAQCisKOxM6Ov4jQWwbZ7HtahCjOQ1W7oJTu7/D9ZVefbg3tRLJ7mA2O1
zfhr8RNv+8MvTOtDT5JXzNmEdJsBNBMkfEalUz8Q+5qdludsBAleTEwfDoDganec
jfL/+ze7k1y/4VvY018LxgQa9nqh1Q+2/ow/q/KP8TDaTxJU930y2oRScuNmHwN3
nDqo0xINkboxBK+KkMKcdpk5IVX/2JEYBQmRyywOX/61GL+722EmdHl71HQBalNx
7VQQVoppgy0ZtrR9QzvEIOPT3PvEEpg5soKzXFnr3G6hJltsmC18hRBDydtA7QEY
qMDZvTioueZq2bt8tZPs4zRlECl0TYbt
-----END CERTIFICATE-----
