Certificate:
    Data:
        Version: 3 (0x2)
        Serial Number:
            38:d9:08:be:aa:0e:ac:57:36:1c:53:ab:95:0e:14:8c
        Signature Algorithm: sha256WithRSAEncryption
        Issuer: CN=team6-net
        Validity
            Not Before: Aug  9 00:11:29 2022 GMT
            Not After : Jul 24 00:11:29 2025 GMT
        Subject: CN=team6-client
        Subject Public Key Info:
            Public Key Algorithm: rsaEncryption
                RSA Public-Key: (2048 bit)
                Modulus:
                    00:f6:75:5d:d0:4e:07:23:e0:7f:5d:07:1b:1a:d6:
                    d3:78:dd:ee:47:a6:73:11:ca:7a:8f:88:4e:b8:99:
                    4a:46:47:2d:44:dd:cd:f3:fa:04:41:c4:f6:ba:04:
                    3a:95:a5:73:9e:e7:36:65:e5:67:21:60:72:74:db:
                    24:fe:7d:4b:02:0f:c7:85:38:15:3e:04:05:38:a4:
                    04:eb:68:8a:15:5e:5e:e8:b1:3f:d7:49:cb:97:0e:
                    72:00:c8:7f:c0:6a:67:ba:4c:1c:d9:a5:9c:11:5a:
                    b0:7d:3c:44:69:95:9c:87:6c:ca:5d:40:c1:21:b5:
                    cc:8b:e2:d4:87:0b:10:f5:22:93:32:a3:aa:b8:c7:
                    e1:74:94:2d:b3:98:c1:c1:b3:3a:05:99:9d:20:fa:
                    85:0d:c6:15:2e:b7:8b:c9:6e:da:f3:47:a8:ca:7e:
                    dd:7f:15:30:10:e2:18:31:99:c9:6d:b6:49:e5:36:
                    37:a4:22:80:e0:07:c9:f3:e8:ea:dc:00:9e:67:71:
                    cd:1b:aa:82:06:3a:50:c3:68:a9:b8:3a:2e:9c:6a:
                    db:39:c7:62:36:db:dc:a7:f2:53:f1:6e:53:07:14:
                    14:b5:81:c5:a6:c1:ec:83:48:30:1f:f0:d1:ce:21:
                    68:9e:ac:ec:63:45:11:5b:03:47:73:6e:75:7c:57:
                    a0:6f
                Exponent: 65537 (0x10001)
        X509v3 extensions:
            X509v3 Basic Constraints: 
                CA:FALSE
            X509v3 Subject Key Identifier: 
                98:7A:C0:BE:62:81:CD:2A:4F:4F:68:E3:87:F1:59:EB:A4:F5:24:E0
            X509v3 Authority Key Identifier: 
                keyid:A2:B7:8A:A6:92:50:7D:78:C2:9B:2F:B1:D7:1A:A1:B2:E3:AB:A2:7F
                DirName:/CN=team6-net
                serial:0A:AC:CF:BD:DF:4A:C8:E2:AA:B7:5D:62:9D:44:D0:5E:8A:5A:CC:C0

            X509v3 Extended Key Usage: 
                TLS Web Client Authentication
            X509v3 Key Usage: 
                Digital Signature
    Signature Algorithm: sha256WithRSAEncryption
         35:99:40:e0:26:db:26:c3:3f:ce:2c:4c:e6:5f:65:4c:b3:58:
         fb:dc:bc:c5:11:bc:0e:dc:18:3b:3c:9a:e5:c6:7f:e9:06:ac:
         04:7f:ac:b7:f7:0a:4c:79:a1:bc:f2:b9:72:8c:b1:ae:7c:51:
         02:81:8a:cb:71:2d:b9:cc:8b:ad:f4:51:eb:81:b4:92:40:5c:
         f5:67:b5:e6:94:0d:8a:23:61:a4:91:12:0f:58:bb:38:1a:8b:
         51:56:0b:0a:24:3e:ed:b2:a1:98:5e:e5:6d:cc:85:35:c3:1d:
         9c:8e:c4:72:d9:c0:21:ad:0d:5a:df:40:2f:6b:63:96:f7:7e:
         88:97:dd:c1:53:c4:88:3e:26:e7:af:3d:5a:9c:17:22:d6:cb:
         07:c6:ac:40:c5:58:9e:48:1d:7c:dc:cd:9c:2b:14:48:29:a8:
         28:fd:24:62:b5:32:48:ef:cc:1e:2c:4a:57:c3:71:86:f8:e3:
         f2:13:2f:70:c8:b6:33:59:6e:93:07:7a:ec:3c:ed:ec:a0:a2:
         1f:f5:d8:7c:a5:95:9c:b3:95:69:d5:8e:0f:93:88:43:e9:6e:
         44:04:a3:90:07:40:cb:0e:3e:5b:ad:6e:c3:6b:37:14:3b:2f:
         b7:51:d5:9a:6e:81:1b:bb:d3:c4:6c:72:86:30:0f:eb:5a:e9:
         ca:38:51:39
-----BEGIN CERTIFICATE-----
MIIDVjCCAj6gAwIBAgIQONkIvqoOrFc2HFOrlQ4UjDANBgkqhkiG9w0BAQsFADAU
MRIwEAYDVQQDDAl0ZWFtNi1uZXQwHhcNMjIwODA5MDAxMTI5WhcNMjUwNzI0MDAx
MTI5WjAXMRUwEwYDVQQDDAx0ZWFtNi1jbGllbnQwggEiMA0GCSqGSIb3DQEBAQUA
A4IBDwAwggEKAoIBAQD2dV3QTgcj4H9dBxsa1tN43e5HpnMRynqPiE64mUpGRy1E
3c3z+gRBxPa6BDqVpXOe5zZl5WchYHJ02yT+fUsCD8eFOBU+BAU4pATraIoVXl7o
sT/XScuXDnIAyH/Aame6TBzZpZwRWrB9PERplZyHbMpdQMEhtcyL4tSHCxD1IpMy
o6q4x+F0lC2zmMHBszoFmZ0g+oUNxhUut4vJbtrzR6jKft1/FTAQ4hgxmclttknl
NjekIoDgB8nz6OrcAJ5ncc0bqoIGOlDDaKm4Oi6cats5x2I229yn8lPxblMHFBS1
gcWmweyDSDAf8NHOIWierOxjRRFbA0dzbnV8V6BvAgMBAAGjgaAwgZ0wCQYDVR0T
BAIwADAdBgNVHQ4EFgQUmHrAvmKBzSpPT2jjh/FZ66T1JOAwTwYDVR0jBEgwRoAU
oreKppJQfXjCmy+x1xqhsuOron+hGKQWMBQxEjAQBgNVBAMMCXRlYW02LW5ldIIU
CqzPvd9KyOKqt11inUTQXopazMAwEwYDVR0lBAwwCgYIKwYBBQUHAwIwCwYDVR0P
BAQDAgeAMA0GCSqGSIb3DQEBCwUAA4IBAQA1mUDgJtsmwz/OLEzmX2VMs1j73LzF
EbwO3Bg7PJrlxn/pBqwEf6y39wpMeaG88rlyjLGufFECgYrLcS25zIut9FHrgbSS
QFz1Z7XmlA2KI2GkkRIPWLs4GotRVgsKJD7tsqGYXuVtzIU1wx2cjsRy2cAhrQ1a
30Ava2OW936Il93BU8SIPibnrz1anBci1ssHxqxAxVieSB183M2cKxRIKago/SRi
tTJI78weLEpXw3GG+OPyEy9wyLYzWW6TB3rsPO3soKIf9dh8pZWcs5Vp1Y4Pk4hD
6W5EBKOQB0DLDj5brW7DazcUOy+3UdWaboEbu9PEbHKGMA/rWunKOFE5
-----END CERTIFICATE-----
