Certificate:
    Data:
        Version: 3 (0x2)
        Serial Number:
            75:cd:8f:77:f5:a8:71:1b:d4:1c:d1:31:a6:fa:5e:a6
        Signature Algorithm: sha256WithRSAEncryption
        Issuer: CN=team6-net
        Validity
            Not Before: Aug  4 12:27:49 2022 GMT
            Not After : Jul 19 12:27:49 2025 GMT
        Subject: CN=team6-client
        Subject Public Key Info:
            Public Key Algorithm: rsaEncryption
                RSA Public-Key: (2048 bit)
                Modulus:
                    00:c7:ef:9d:0a:da:82:09:7c:58:9d:61:9e:6c:85:
                    fd:f9:62:0b:04:7a:f9:21:aa:85:85:4f:30:8f:40:
                    70:23:06:bd:7d:0c:aa:81:40:1f:6c:02:a2:63:a1:
                    9a:70:6a:6f:b9:d4:e2:05:43:cd:92:9a:b4:1a:15:
                    6c:b0:74:37:32:1f:97:fa:12:ec:ed:1c:fc:7a:80:
                    53:2e:47:2b:bb:d4:2d:0d:c2:36:e8:f3:c7:f6:64:
                    20:9c:ac:72:42:40:48:40:3f:d4:03:56:91:4f:fc:
                    11:f3:e7:20:94:45:64:6a:a7:c2:b7:5e:1f:e6:4f:
                    4f:9b:f1:bb:a7:e9:53:51:04:ac:ce:b8:da:c8:1d:
                    cf:89:30:ed:11:1d:3c:ec:71:9b:1c:75:8c:7b:48:
                    e7:9d:13:ff:e6:73:4e:6c:f2:72:a3:c6:90:ff:19:
                    e3:95:b7:a1:24:1b:6d:53:ee:cd:de:35:ef:3f:fc:
                    e6:d2:b0:fc:d5:b0:6c:72:46:71:e2:e9:2a:7f:a3:
                    88:6d:d4:15:5b:31:8c:d7:cf:5d:30:61:2f:92:e9:
                    82:c1:2f:9b:16:9f:d5:2e:12:48:da:2a:35:4c:90:
                    7c:ab:56:c3:02:5a:2c:fe:49:50:68:7b:5b:55:2d:
                    18:ce:ab:34:c8:3d:18:a9:cc:29:6b:a8:85:cc:32:
                    aa:2f
                Exponent: 65537 (0x10001)
        X509v3 extensions:
            X509v3 Basic Constraints: 
                CA:FALSE
            X509v3 Subject Key Identifier: 
                29:76:C5:17:9F:6B:1E:17:07:B8:B5:FE:25:AA:3A:63:1A:1A:89:F3
            X509v3 Authority Key Identifier: 
                keyid:BB:85:64:6A:A7:B2:09:5C:2F:9C:15:B4:05:CC:F2:5B:7C:A3:58:E8
                DirName:/CN=team6-net
                serial:2C:98:4F:CF:99:9A:66:98:7F:53:7B:4A:1E:C8:DE:7F:94:2B:6B:68

            X509v3 Extended Key Usage: 
                TLS Web Client Authentication
            X509v3 Key Usage: 
                Digital Signature
    Signature Algorithm: sha256WithRSAEncryption
         29:19:d0:72:7d:4e:2b:82:c8:8c:43:3a:87:70:ff:12:be:a6:
         12:83:76:b0:dd:7d:c4:ba:a2:d4:9c:c1:b5:bb:8b:ed:50:31:
         00:87:7c:74:09:8c:1a:17:d9:70:48:d8:2e:c3:2f:aa:a1:6a:
         49:7f:2c:f2:47:55:73:33:70:4f:a9:9b:66:bc:60:b1:7d:b0:
         53:51:ed:92:21:72:2a:36:e0:3d:63:96:74:3f:d4:7d:2d:c1:
         99:d3:76:11:ce:a7:d6:0c:90:35:c7:0b:a8:3d:49:d5:f1:df:
         47:50:41:b3:a1:53:6b:f8:b5:3e:03:8a:e6:07:f6:79:6b:34:
         b9:31:62:4d:59:d4:93:2a:87:9f:6f:b1:a3:3e:bc:fe:64:fe:
         cf:27:3b:ef:47:4d:64:49:14:7b:c6:77:1f:39:13:9c:1a:12:
         99:44:71:ff:c1:52:d9:65:9e:52:a9:8c:90:ab:d1:e1:b7:8d:
         69:eb:32:50:03:de:0c:8c:cc:97:fc:a6:7c:a8:4a:da:9e:1c:
         81:20:27:2f:bf:65:2c:a5:28:67:c2:ca:47:75:4e:ff:04:03:
         dd:77:db:21:31:d9:90:9f:3d:0c:e8:20:20:5f:f9:f2:ca:58:
         19:13:f0:d1:cd:0d:99:73:35:3f:b4:86:d3:84:4d:8b:02:c2:
         cf:14:b1:52
-----BEGIN CERTIFICATE-----
MIIDVjCCAj6gAwIBAgIQdc2Pd/WocRvUHNExpvpepjANBgkqhkiG9w0BAQsFADAU
MRIwEAYDVQQDDAl0ZWFtNi1uZXQwHhcNMjIwODA0MTIyNzQ5WhcNMjUwNzE5MTIy
NzQ5WjAXMRUwEwYDVQQDDAx0ZWFtNi1jbGllbnQwggEiMA0GCSqGSIb3DQEBAQUA
A4IBDwAwggEKAoIBAQDH750K2oIJfFidYZ5shf35YgsEevkhqoWFTzCPQHAjBr19
DKqBQB9sAqJjoZpwam+51OIFQ82SmrQaFWywdDcyH5f6EuztHPx6gFMuRyu71C0N
wjbo88f2ZCCcrHJCQEhAP9QDVpFP/BHz5yCURWRqp8K3Xh/mT0+b8bun6VNRBKzO
uNrIHc+JMO0RHTzscZscdYx7SOedE//mc05s8nKjxpD/GeOVt6EkG21T7s3eNe8/
/ObSsPzVsGxyRnHi6Sp/o4ht1BVbMYzXz10wYS+S6YLBL5sWn9UuEkjaKjVMkHyr
VsMCWiz+SVBoe1tVLRjOqzTIPRipzClrqIXMMqovAgMBAAGjgaAwgZ0wCQYDVR0T
BAIwADAdBgNVHQ4EFgQUKXbFF59rHhcHuLX+Jao6YxoaifMwTwYDVR0jBEgwRoAU
u4VkaqeyCVwvnBW0BczyW3yjWOihGKQWMBQxEjAQBgNVBAMMCXRlYW02LW5ldIIU
LJhPz5maZph/U3tKHsjef5Qra2gwEwYDVR0lBAwwCgYIKwYBBQUHAwIwCwYDVR0P
BAQDAgeAMA0GCSqGSIb3DQEBCwUAA4IBAQApGdByfU4rgsiMQzqHcP8SvqYSg3aw
3X3EuqLUnMG1u4vtUDEAh3x0CYwaF9lwSNguwy+qoWpJfyzyR1VzM3BPqZtmvGCx
fbBTUe2SIXIqNuA9Y5Z0P9R9LcGZ03YRzqfWDJA1xwuoPUnV8d9HUEGzoVNr+LU+
A4rmB/Z5azS5MWJNWdSTKoefb7GjPrz+ZP7PJzvvR01kSRR7xncfOROcGhKZRHH/
wVLZZZ5SqYyQq9Hht41p6zJQA94MjMyX/KZ8qEranhyBICcvv2UspShnwspHdU7/
BAPdd9shMdmQnz0M6CAgX/nyylgZE/DRzQ2ZczU/tIbThE2LAsLPFLFS
-----END CERTIFICATE-----
