Certificate:
    Data:
        Version: 3 (0x2)
        Serial Number:
            97:e9:a6:f9:37:32:72:17:3d:9c:08:4b:2e:74:67:a2
        Signature Algorithm: sha256WithRSAEncryption
        Issuer: CN=team24-net
        Validity
            Not Before: Aug  9 18:52:43 2022 GMT
            Not After : Jul 24 18:52:43 2025 GMT
        Subject: CN=team24-client
        Subject Public Key Info:
            Public Key Algorithm: rsaEncryption
                RSA Public-Key: (2048 bit)
                Modulus:
                    00:be:51:ca:aa:10:f4:8e:28:70:83:8e:b5:27:47:
                    df:7d:c0:af:44:3c:28:6a:55:d8:af:f4:18:00:8a:
                    ae:9b:9c:e0:63:62:75:5d:e2:80:9e:b2:bc:bd:bd:
                    f5:68:4b:86:0e:a9:6e:ac:0c:2c:30:ae:53:f1:93:
                    27:7f:ec:38:e4:71:c7:d8:1a:15:87:b1:4e:f0:db:
                    84:36:30:67:46:86:a2:41:62:75:32:25:5f:c2:3f:
                    7f:7c:ef:f8:a5:34:2c:86:7d:24:b0:50:db:bd:98:
                    cf:7b:e4:98:c8:25:8a:2d:fd:99:24:f1:73:ff:06:
                    2e:74:69:e8:d0:ae:51:ce:65:be:5f:9f:3e:0c:d8:
                    01:18:21:8a:04:14:da:5e:b2:4a:c2:d3:fe:44:a2:
                    80:02:12:a3:15:ad:6c:17:3e:0c:a1:52:95:d5:07:
                    cd:f4:03:cd:1a:16:9a:46:b0:3e:a6:d8:25:67:a3:
                    a9:ce:8d:0f:27:cd:1f:d0:06:d3:d4:af:85:07:45:
                    23:3a:34:9c:c7:da:4f:4f:be:b8:a7:02:d5:9a:56:
                    2c:e8:6e:89:d4:30:71:28:e6:06:1a:f3:5f:3c:e7:
                    fb:86:ab:c2:dd:cf:e8:57:2f:79:11:da:8b:a8:56:
                    b2:13:47:b9:07:51:05:2a:41:e1:f2:62:54:7b:0d:
                    3b:8f
                Exponent: 65537 (0x10001)
        X509v3 extensions:
            X509v3 Basic Constraints: 
                CA:FALSE
            X509v3 Subject Key Identifier: 
                38:3A:C0:A8:21:47:F0:7C:4F:08:D6:7F:5E:51:CF:D7:DC:69:12:08
            X509v3 Authority Key Identifier: 
                keyid:FD:FB:69:8F:1B:1D:F8:55:83:29:D0:FE:1F:16:3F:56:6F:DA:60:BD
                DirName:/CN=team24-net
                serial:32:07:F0:49:EE:A4:37:4B:30:9B:B0:8A:43:23:6A:0B:0B:A4:E2:7A

            X509v3 Extended Key Usage: 
                TLS Web Client Authentication
            X509v3 Key Usage: 
                Digital Signature
    Signature Algorithm: sha256WithRSAEncryption
         34:8c:a5:13:17:c2:9c:e6:6b:24:87:ec:99:1a:03:be:91:af:
         ef:18:8e:64:fb:19:8f:08:60:56:09:1d:23:a9:4d:e7:97:04:
         49:d2:4e:88:25:11:65:de:9a:28:a8:04:bc:d1:39:0e:67:0c:
         6f:09:f8:10:5d:5f:6c:42:6e:ba:0c:17:14:1e:d4:9d:66:be:
         81:52:a4:03:05:5c:14:3d:cb:05:66:ce:43:db:a0:38:82:88:
         e0:68:ce:a6:3a:b4:e2:ff:20:3a:88:6a:23:71:0b:57:49:18:
         55:97:33:05:39:d2:92:78:73:ff:c4:f6:d8:73:53:b6:91:0d:
         cc:f3:27:43:94:6a:27:6f:f2:7e:62:58:be:f4:b1:25:8b:a1:
         96:30:fe:f3:60:df:98:a9:0d:5d:7e:7b:23:f1:c4:54:bd:f1:
         a9:b6:bb:cd:ec:6c:b3:c0:c5:d7:6c:c6:68:c9:a8:12:a6:38:
         2a:87:a4:08:9c:38:32:68:08:ca:e7:c2:32:fd:f7:fa:5b:75:
         3b:14:18:2d:19:66:8b:11:5e:fc:3a:a7:8b:ca:50:ee:94:0a:
         92:9e:e6:93:19:84:ec:08:b2:00:b0:2d:c8:1b:4f:4e:f3:36:
         09:1d:7e:9d:13:97:a6:08:f5:6b:67:e8:04:b7:d5:7f:6f:56:
         53:3d:fe:69
-----BEGIN CERTIFICATE-----
MIIDWjCCAkKgAwIBAgIRAJfppvk3MnIXPZwISy50Z6IwDQYJKoZIhvcNAQELBQAw
FTETMBEGA1UEAwwKdGVhbTI0LW5ldDAeFw0yMjA4MDkxODUyNDNaFw0yNTA3MjQx
ODUyNDNaMBgxFjAUBgNVBAMMDXRlYW0yNC1jbGllbnQwggEiMA0GCSqGSIb3DQEB
AQUAA4IBDwAwggEKAoIBAQC+UcqqEPSOKHCDjrUnR999wK9EPChqVdiv9BgAiq6b
nOBjYnVd4oCesry9vfVoS4YOqW6sDCwwrlPxkyd/7DjkccfYGhWHsU7w24Q2MGdG
hqJBYnUyJV/CP3987/ilNCyGfSSwUNu9mM975JjIJYot/Zkk8XP/Bi50aejQrlHO
Zb5fnz4M2AEYIYoEFNpeskrC0/5EooACEqMVrWwXPgyhUpXVB830A80aFppGsD6m
2CVno6nOjQ8nzR/QBtPUr4UHRSM6NJzH2k9PvrinAtWaVizobonUMHEo5gYa8188
5/uGq8Ldz+hXL3kR2ouoVrITR7kHUQUqQeHyYlR7DTuPAgMBAAGjgaEwgZ4wCQYD
VR0TBAIwADAdBgNVHQ4EFgQUODrAqCFH8HxPCNZ/XlHP19xpEggwUAYDVR0jBEkw
R4AU/ftpjxsd+FWDKdD+HxY/Vm/aYL2hGaQXMBUxEzARBgNVBAMMCnRlYW0yNC1u
ZXSCFDIH8EnupDdLMJuwikMjagsLpOJ6MBMGA1UdJQQMMAoGCCsGAQUFBwMCMAsG
A1UdDwQEAwIHgDANBgkqhkiG9w0BAQsFAAOCAQEANIylExfCnOZrJIfsmRoDvpGv
7xiOZPsZjwhgVgkdI6lN55cESdJOiCURZd6aKKgEvNE5DmcMbwn4EF1fbEJuugwX
FB7UnWa+gVKkAwVcFD3LBWbOQ9ugOIKI4GjOpjq04v8gOohqI3ELV0kYVZczBTnS
knhz/8T22HNTtpENzPMnQ5RqJ2/yfmJYvvSxJYuhljD+82DfmKkNXX57I/HEVL3x
qba7zexss8DF12zGaMmoEqY4KoekCJw4MmgIyufCMv33+lt1OxQYLRlmixFe/Dqn
i8pQ7pQKkp7mkxmE7AiyALAtyBtPTvM2CR1+nROXpgj1a2foBLfVf29WUz3+aQ==
-----END CERTIFICATE-----
