Certificate:
    Data:
        Version: 3 (0x2)
        Serial Number:
            55:b6:e3:6b:83:ab:34:ba:2e:f0:4d:04:59:92:b8:f7
        Signature Algorithm: sha256WithRSAEncryption
        Issuer: CN=team6-net
        Validity
            Not Before: Aug  4 12:27:49 2022 GMT
            Not After : Jul 19 12:27:49 2025 GMT
        Subject: CN=team6-server
        Subject Public Key Info:
            Public Key Algorithm: rsaEncryption
                RSA Public-Key: (2048 bit)
                Modulus:
                    00:bd:c2:bd:b8:f2:6d:f0:1d:68:36:cb:dd:74:ba:
                    30:0d:1a:aa:d9:2b:96:97:60:7e:c1:40:e5:24:7a:
                    53:c1:c9:99:10:5c:81:af:cb:46:17:43:92:cf:b9:
                    4a:30:8a:55:8a:d8:4b:cf:b4:02:cd:5d:03:e7:fc:
                    ed:22:14:26:ab:c5:70:a1:17:6d:1c:71:82:7e:f4:
                    32:23:bf:11:a7:38:e6:df:61:92:d0:e5:14:ab:c7:
                    e5:a5:ae:ae:05:1d:0f:47:19:74:77:ab:11:73:b2:
                    cd:36:01:e7:7d:8e:1e:1d:55:c5:a7:ca:f6:a7:bc:
                    2f:f8:37:38:b6:26:0c:e3:22:ad:98:20:fb:8b:ac:
                    5c:fc:ff:19:5a:e9:b4:89:27:0b:cb:d3:ab:81:2d:
                    1a:ab:6a:1a:ee:7e:ae:bb:53:e7:89:4e:12:34:fc:
                    5d:ff:d5:01:d7:06:b6:e6:09:1e:e9:da:5f:27:f2:
                    11:c3:8e:8f:3e:72:94:33:30:83:d2:ff:f9:65:3e:
                    35:6a:eb:4d:91:1f:29:58:89:c2:3b:fd:6e:c1:7f:
                    0a:37:75:81:9a:05:b3:4b:39:43:53:74:c8:58:79:
                    7b:d4:04:9b:88:8e:23:bd:0d:1c:eb:f9:14:ff:b0:
                    ad:d8:58:ca:a2:bb:31:e3:d4:b6:00:d3:95:d9:51:
                    97:97
                Exponent: 65537 (0x10001)
        X509v3 extensions:
            X509v3 Basic Constraints: 
                CA:FALSE
            X509v3 Subject Key Identifier: 
                07:8A:8A:74:21:F5:54:1E:F9:34:76:18:C7:1F:26:5F:6D:90:66:2A
            X509v3 Authority Key Identifier: 
                keyid:BB:85:64:6A:A7:B2:09:5C:2F:9C:15:B4:05:CC:F2:5B:7C:A3:58:E8
                DirName:/CN=team6-net
                serial:2C:98:4F:CF:99:9A:66:98:7F:53:7B:4A:1E:C8:DE:7F:94:2B:6B:68

            X509v3 Extended Key Usage: 
                TLS Web Server Authentication
            X509v3 Key Usage: 
                Digital Signature, Key Encipherment
            X509v3 Subject Alternative Name: 
                DNS:team6-server
    Signature Algorithm: sha256WithRSAEncryption
         9b:47:6b:23:c3:b2:ec:79:55:96:6b:6e:9d:3d:b1:84:55:bb:
         76:13:0e:75:5f:59:9e:bb:8e:ba:93:ec:3b:5d:aa:e7:b1:5e:
         15:97:1d:48:bc:a7:79:6b:3b:5a:0c:0c:b9:1b:26:9c:a5:03:
         3d:6d:78:67:5b:84:13:b7:e4:b2:60:e5:d7:17:8a:0d:80:ff:
         9c:1f:6d:69:3e:f2:af:7e:0b:37:e5:ba:eb:3d:9e:b6:76:dc:
         48:77:d1:26:ab:dd:fe:67:c9:ac:2f:96:f5:0b:8d:fb:58:f7:
         d7:e0:d9:30:e4:7f:51:98:96:1d:e0:c0:6b:31:74:fc:03:3a:
         b6:89:a1:1e:11:f4:a3:49:38:4e:2f:db:01:07:57:02:54:05:
         6a:2c:94:e3:7b:58:77:cb:d6:ff:1a:31:3d:dc:17:35:b0:0b:
         da:65:e2:bc:49:71:19:c9:01:92:9e:f4:91:7e:e6:8f:08:eb:
         f8:34:54:9c:cf:84:d1:f4:bd:64:b7:c3:b5:7f:5e:6e:5b:f4:
         0b:59:47:93:aa:36:f0:3c:15:1a:a4:03:4c:6b:9c:98:64:9c:
         63:aa:18:a6:7a:c3:53:95:2c:4a:7e:73:f9:67:a5:3d:cd:84:
         0e:3f:18:77:ea:54:85:23:fb:85:90:84:c0:33:84:a5:70:f5:
         9d:8c:6a:17
-----BEGIN CERTIFICATE-----
MIIDbzCCAlegAwIBAgIQVbbja4OrNLou8E0EWZK49zANBgkqhkiG9w0BAQsFADAU
MRIwEAYDVQQDDAl0ZWFtNi1uZXQwHhcNMjIwODA0MTIyNzQ5WhcNMjUwNzE5MTIy
NzQ5WjAXMRUwEwYDVQQDDAx0ZWFtNi1zZXJ2ZXIwggEiMA0GCSqGSIb3DQEBAQUA
A4IBDwAwggEKAoIBAQC9wr248m3wHWg2y910ujANGqrZK5aXYH7BQOUkelPByZkQ
XIGvy0YXQ5LPuUowilWK2EvPtALNXQPn/O0iFCarxXChF20ccYJ+9DIjvxGnOObf
YZLQ5RSrx+Wlrq4FHQ9HGXR3qxFzss02Aed9jh4dVcWnyvanvC/4Nzi2JgzjIq2Y
IPuLrFz8/xla6bSJJwvL06uBLRqrahrufq67U+eJThI0/F3/1QHXBrbmCR7p2l8n
8hHDjo8+cpQzMIPS//llPjVq602RHylYicI7/W7Bfwo3dYGaBbNLOUNTdMhYeXvU
BJuIjiO9DRzr+RT/sK3YWMqiuzHj1LYA05XZUZeXAgMBAAGjgbkwgbYwCQYDVR0T
BAIwADAdBgNVHQ4EFgQUB4qKdCH1VB75NHYYxx8mX22QZiowTwYDVR0jBEgwRoAU
u4VkaqeyCVwvnBW0BczyW3yjWOihGKQWMBQxEjAQBgNVBAMMCXRlYW02LW5ldIIU
LJhPz5maZph/U3tKHsjef5Qra2gwEwYDVR0lBAwwCgYIKwYBBQUHAwEwCwYDVR0P
BAQDAgWgMBcGA1UdEQQQMA6CDHRlYW02LXNlcnZlcjANBgkqhkiG9w0BAQsFAAOC
AQEAm0drI8Oy7HlVlmtunT2xhFW7dhMOdV9ZnruOupPsO12q57FeFZcdSLyneWs7
WgwMuRsmnKUDPW14Z1uEE7fksmDl1xeKDYD/nB9taT7yr34LN+W66z2etnbcSHfR
Jqvd/mfJrC+W9QuN+1j31+DZMOR/UZiWHeDAazF0/AM6tomhHhH0o0k4Ti/bAQdX
AlQFaiyU43tYd8vW/xoxPdwXNbAL2mXivElxGckBkp70kX7mjwjr+DRUnM+E0fS9
ZLfDtX9eblv0C1lHk6o28DwVGqQDTGucmGScY6oYpnrDU5UsSn5z+WelPc2EDj8Y
d+pUhSP7hZCEwDOEpXD1nYxqFw==
-----END CERTIFICATE-----
