Certificate:
    Data:
        Version: 3 (0x2)
        Serial Number:
            93:f8:31:c5:db:2f:01:ef:de:86:99:36:a6:07:7a:35
        Signature Algorithm: sha256WithRSAEncryption
        Issuer: CN=team6-net
        Validity
            Not Before: Aug  9 00:11:29 2022 GMT
            Not After : Jul 24 00:11:29 2025 GMT
        Subject: CN=team6-server
        Subject Public Key Info:
            Public Key Algorithm: rsaEncryption
                RSA Public-Key: (2048 bit)
                Modulus:
                    00:ac:3d:5f:cf:a8:c3:59:4a:31:ad:b0:3b:54:99:
                    6d:6e:fd:18:bd:53:13:de:cc:18:39:55:4c:51:f8:
                    45:9a:de:36:f3:a1:28:b8:5c:aa:00:ae:60:95:f9:
                    da:60:c0:c5:6d:60:6e:54:04:a5:d2:e9:04:e3:68:
                    0d:aa:c3:9a:cb:40:ac:c4:52:e1:24:28:d0:4a:82:
                    40:74:e2:bd:44:64:17:5a:33:37:ea:9c:e4:c4:36:
                    7a:01:d7:79:38:39:f1:b4:ba:04:ff:18:5e:55:43:
                    8a:4c:e5:46:4c:bf:84:55:92:c0:57:5b:4f:dd:ec:
                    62:aa:bf:8c:93:ee:f4:cd:ec:75:70:2c:0f:d5:c6:
                    e0:ed:7a:71:95:2b:a8:c6:4f:ff:8c:a9:fd:01:dd:
                    b8:24:c2:1f:06:81:86:84:2b:5e:2d:df:c2:74:e6:
                    ca:5b:e5:97:1e:70:71:e5:39:22:9b:4b:7a:75:cc:
                    5f:56:7d:7d:52:b9:15:e6:be:7c:4d:50:73:d3:e8:
                    8c:23:73:1e:81:f9:85:b9:02:6f:0a:96:d9:d8:a5:
                    0f:b9:d5:4f:a0:6a:27:19:47:27:36:7f:fb:2c:6f:
                    a9:c8:ff:5b:b4:e3:68:80:21:b1:bd:55:a2:30:9f:
                    f1:b7:b0:3b:0a:60:f1:0a:7f:25:ce:2f:42:2e:9a:
                    1f:c3
                Exponent: 65537 (0x10001)
        X509v3 extensions:
            X509v3 Basic Constraints: 
                CA:FALSE
            X509v3 Subject Key Identifier: 
                72:14:11:7F:36:08:95:11:DD:8E:8B:36:B2:5C:05:38:5C:2A:70:B7
            X509v3 Authority Key Identifier: 
                keyid:A2:B7:8A:A6:92:50:7D:78:C2:9B:2F:B1:D7:1A:A1:B2:E3:AB:A2:7F
                DirName:/CN=team6-net
                serial:0A:AC:CF:BD:DF:4A:C8:E2:AA:B7:5D:62:9D:44:D0:5E:8A:5A:CC:C0

            X509v3 Extended Key Usage: 
                TLS Web Server Authentication
            X509v3 Key Usage: 
                Digital Signature, Key Encipherment
            X509v3 Subject Alternative Name: 
                DNS:team6-server
    Signature Algorithm: sha256WithRSAEncryption
         52:4a:4f:8d:98:12:4c:5a:44:fa:c7:ca:db:ad:3e:95:4f:1d:
         1b:23:8d:12:51:8a:a1:af:11:60:1e:46:e2:85:ff:d8:52:a3:
         c0:3a:4a:cd:60:e6:79:9d:4c:a8:d4:9d:07:ad:a5:2c:7d:cf:
         75:c2:a6:90:3e:2c:eb:e9:1b:00:58:b9:ef:cf:78:1f:cd:1b:
         66:d2:46:c6:61:c7:83:d0:16:7c:be:9a:59:0c:c2:e1:68:ad:
         bb:3b:2a:0d:5e:22:0c:63:b5:bc:09:b3:2f:06:58:67:d8:6d:
         e4:d4:f2:7c:57:fb:5a:92:da:b7:37:76:e6:16:6e:f0:ab:da:
         6f:2f:86:51:04:03:ef:93:54:0c:57:5b:0d:a7:2d:5a:d7:55:
         34:d9:d6:16:0d:2f:51:e8:44:34:34:89:6f:53:ba:61:a1:70:
         1e:c8:22:79:ff:94:5c:6c:a5:05:11:e0:81:e0:0a:3c:2a:3e:
         fc:71:02:6e:fd:9d:d7:a5:80:44:35:dd:a3:77:fb:c8:36:4b:
         1c:86:47:fc:98:ea:0c:30:f5:5a:05:a2:01:9d:f7:85:14:e1:
         2b:22:80:bf:77:e8:1e:22:0e:7b:ea:e7:99:4d:49:ca:36:10:
         73:a7:72:56:d1:18:d9:3f:d9:ce:bf:3a:aa:85:58:0d:f5:7c:
         d3:5c:06:1b
-----BEGIN CERTIFICATE-----
MIIDcDCCAligAwIBAgIRAJP4McXbLwHv3oaZNqYHejUwDQYJKoZIhvcNAQELBQAw
FDESMBAGA1UEAwwJdGVhbTYtbmV0MB4XDTIyMDgwOTAwMTEyOVoXDTI1MDcyNDAw
MTEyOVowFzEVMBMGA1UEAwwMdGVhbTYtc2VydmVyMIIBIjANBgkqhkiG9w0BAQEF
AAOCAQ8AMIIBCgKCAQEArD1fz6jDWUoxrbA7VJltbv0YvVMT3swYOVVMUfhFmt42
86EouFyqAK5glfnaYMDFbWBuVASl0ukE42gNqsOay0CsxFLhJCjQSoJAdOK9RGQX
WjM36pzkxDZ6Add5ODnxtLoE/xheVUOKTOVGTL+EVZLAV1tP3exiqr+Mk+70zex1
cCwP1cbg7XpxlSuoxk//jKn9Ad24JMIfBoGGhCteLd/CdObKW+WXHnBx5Tkim0t6
dcxfVn19UrkV5r58TVBz0+iMI3MegfmFuQJvCpbZ2KUPudVPoGonGUcnNn/7LG+p
yP9btONogCGxvVWiMJ/xt7A7CmDxCn8lzi9CLpofwwIDAQABo4G5MIG2MAkGA1Ud
EwQCMAAwHQYDVR0OBBYEFHIUEX82CJUR3Y6LNrJcBThcKnC3ME8GA1UdIwRIMEaA
FKK3iqaSUH14wpsvsdcaobLjq6J/oRikFjAUMRIwEAYDVQQDDAl0ZWFtNi1uZXSC
FAqsz73fSsjiqrddYp1E0F6KWszAMBMGA1UdJQQMMAoGCCsGAQUFBwMBMAsGA1Ud
DwQEAwIFoDAXBgNVHREEEDAOggx0ZWFtNi1zZXJ2ZXIwDQYJKoZIhvcNAQELBQAD
ggEBAFJKT42YEkxaRPrHytutPpVPHRsjjRJRiqGvEWAeRuKF/9hSo8A6Ss1g5nmd
TKjUnQetpSx9z3XCppA+LOvpGwBYue/PeB/NG2bSRsZhx4PQFny+mlkMwuForbs7
Kg1eIgxjtbwJsy8GWGfYbeTU8nxX+1qS2rc3duYWbvCr2m8vhlEEA++TVAxXWw2n
LVrXVTTZ1hYNL1HoRDQ0iW9TumGhcB7IInn/lFxspQUR4IHgCjwqPvxxAm79ndel
gEQ13aN3+8g2SxyGR/yY6gww9VoFogGd94UU4SsigL936B4iDnvq55lNSco2EHOn
clbRGNk/2c6/OqqFWA31fNNcBhs=
-----END CERTIFICATE-----
