Certificate:
    Data:
        Version: 3 (0x2)
        Serial Number:
            b9:86:89:08:fc:f6:9e:6d:e7:fe:cb:1b:52:e7:09:68
        Signature Algorithm: sha256WithRSAEncryption
        Issuer: CN=team6-net
        Validity
            Not Before: Aug  9 18:52:29 2022 GMT
            Not After : Jul 24 18:52:29 2025 GMT
        Subject: CN=team6-server
        Subject Public Key Info:
            Public Key Algorithm: rsaEncryption
                RSA Public-Key: (2048 bit)
                Modulus:
                    00:d9:6b:fe:0a:20:d9:30:e1:fa:25:1d:21:48:20:
                    db:5a:ad:8f:c7:3a:d1:ae:b8:8f:04:4c:04:fd:3f:
                    b0:95:4d:63:13:4e:38:55:4f:84:4c:8c:d1:88:fa:
                    0c:85:96:93:0c:49:6b:10:d6:34:36:ce:1a:99:17:
                    2e:7e:73:66:d7:c7:4c:58:b7:db:19:c9:ef:da:63:
                    e7:07:b6:bd:c4:61:df:f6:7c:8d:97:c2:8e:3c:4f:
                    5d:21:57:b8:d9:36:af:70:50:61:fc:8d:87:6b:e1:
                    73:33:34:ef:7f:32:0b:3f:ad:a6:7b:ce:07:4c:17:
                    d8:b5:35:a7:20:2c:25:b4:0a:08:ae:48:6e:9e:a6:
                    b3:28:27:e9:73:4e:53:44:94:d6:6a:1f:21:86:3b:
                    0b:27:3d:3a:a5:eb:5e:7c:56:ca:7a:59:cb:f7:40:
                    c0:b8:49:c4:cc:ca:0a:79:39:9b:31:13:15:18:57:
                    54:4a:6b:7a:74:dd:e2:4f:94:70:8f:7f:81:de:d6:
                    d5:2a:3e:60:2c:b5:87:3b:64:11:dd:54:f3:66:dc:
                    6b:1a:41:0e:2d:04:a0:dc:67:9e:4f:06:60:42:a4:
                    70:75:0f:e3:3f:de:0f:c5:cf:be:96:26:b3:0c:7c:
                    7c:14:11:50:d7:8b:bc:01:84:af:d5:fe:a6:27:50:
                    89:6d
                Exponent: 65537 (0x10001)
        X509v3 extensions:
            X509v3 Basic Constraints: 
                CA:FALSE
            X509v3 Subject Key Identifier: 
                7F:59:BB:33:73:C7:35:F2:34:9D:C8:2F:CA:2E:39:CD:FA:22:E2:2D
            X509v3 Authority Key Identifier: 
                keyid:D8:5F:2F:C8:A1:D0:ED:F2:C0:A4:EB:2D:E7:EC:1C:CC:7F:C2:13:7B
                DirName:/CN=team6-net
                serial:10:B3:C1:A5:13:E0:E6:44:F7:E3:F1:79:15:D4:6F:99:A6:F5:4A:93

            X509v3 Extended Key Usage: 
                TLS Web Server Authentication
            X509v3 Key Usage: 
                Digital Signature, Key Encipherment
            X509v3 Subject Alternative Name: 
                DNS:team6-server
    Signature Algorithm: sha256WithRSAEncryption
         8a:22:71:d3:40:ab:19:1f:55:44:5e:5d:78:72:97:a8:be:2a:
         b7:31:37:11:db:8d:f0:f2:0a:22:52:d8:b6:c7:fd:16:fd:ea:
         c8:d6:7a:cb:79:a5:17:ff:0e:47:e2:b0:f5:80:80:d8:7a:ea:
         d2:b4:fe:13:28:c7:e5:b7:09:79:a0:5b:56:4d:23:4c:84:0c:
         26:ed:85:28:cc:8d:58:94:c3:19:f5:8b:40:79:db:4a:30:c1:
         60:19:ff:b4:5c:88:11:98:dd:47:9c:88:c2:20:7e:2c:9b:4f:
         dc:3c:e9:c8:d3:9e:41:7d:ff:a5:61:0a:ce:92:ff:ff:72:d7:
         24:81:2e:b7:67:1e:75:ad:2a:9e:dc:76:80:89:74:9d:93:68:
         d2:dc:e7:0b:9a:a1:d2:a7:be:c3:b5:ec:a4:30:b8:34:0c:83:
         33:a1:04:b0:71:7c:a5:4c:37:89:9e:e1:13:ba:3c:f2:61:72:
         8a:d4:bd:c0:2c:62:3e:b8:6d:4d:e2:0d:8a:f2:a9:90:fb:e6:
         7a:10:da:d6:7c:16:34:51:0e:64:c2:15:28:e4:35:30:99:cc:
         74:5d:df:b1:4b:9d:2f:53:dc:0a:18:35:d3:0b:02:89:fd:93:
         04:7f:38:10:50:9c:eb:ff:48:f9:08:50:51:e1:02:75:d9:1c:
         09:15:ba:b7
-----BEGIN CERTIFICATE-----
MIIDcDCCAligAwIBAgIRALmGiQj89p5t5/7LG1LnCWgwDQYJKoZIhvcNAQELBQAw
FDESMBAGA1UEAwwJdGVhbTYtbmV0MB4XDTIyMDgwOTE4NTIyOVoXDTI1MDcyNDE4
NTIyOVowFzEVMBMGA1UEAwwMdGVhbTYtc2VydmVyMIIBIjANBgkqhkiG9w0BAQEF
AAOCAQ8AMIIBCgKCAQEA2Wv+CiDZMOH6JR0hSCDbWq2PxzrRrriPBEwE/T+wlU1j
E044VU+ETIzRiPoMhZaTDElrENY0Ns4amRcufnNm18dMWLfbGcnv2mPnB7a9xGHf
9nyNl8KOPE9dIVe42TavcFBh/I2Ha+FzMzTvfzILP62me84HTBfYtTWnICwltAoI
rkhunqazKCfpc05TRJTWah8hhjsLJz06petefFbKelnL90DAuEnEzMoKeTmbMRMV
GFdUSmt6dN3iT5Rwj3+B3tbVKj5gLLWHO2QR3VTzZtxrGkEOLQSg3GeeTwZgQqRw
dQ/jP94Pxc++liazDHx8FBFQ14u8AYSv1f6mJ1CJbQIDAQABo4G5MIG2MAkGA1Ud
EwQCMAAwHQYDVR0OBBYEFH9ZuzNzxzXyNJ3IL8ouOc36IuItME8GA1UdIwRIMEaA
FNhfL8ih0O3ywKTrLefsHMx/whN7oRikFjAUMRIwEAYDVQQDDAl0ZWFtNi1uZXSC
FBCzwaUT4OZE9+PxeRXUb5mm9UqTMBMGA1UdJQQMMAoGCCsGAQUFBwMBMAsGA1Ud
DwQEAwIFoDAXBgNVHREEEDAOggx0ZWFtNi1zZXJ2ZXIwDQYJKoZIhvcNAQELBQAD
ggEBAIoicdNAqxkfVUReXXhyl6i+KrcxNxHbjfDyCiJS2LbH/Rb96sjWest5pRf/
DkfisPWAgNh66tK0/hMox+W3CXmgW1ZNI0yEDCbthSjMjViUwxn1i0B520owwWAZ
/7RciBGY3UeciMIgfiybT9w86cjTnkF9/6VhCs6S//9y1ySBLrdnHnWtKp7cdoCJ
dJ2TaNLc5wuaodKnvsO17KQwuDQMgzOhBLBxfKVMN4me4RO6PPJhcorUvcAsYj64
bU3iDYryqZD75noQ2tZ8FjRRDmTCFSjkNTCZzHRd37FLnS9T3AoYNdMLAon9kwR/
OBBQnOv/SPkIUFHhAnXZHAkVurc=
-----END CERTIFICATE-----
