Certificate:
    Data:
        Version: 3 (0x2)
        Serial Number:
            02:ba:e9:ec:ca:1c:3a:fb:cb:61:91:f7:79:42:db:c2
        Signature Algorithm: sha256WithRSAEncryption
        Issuer: CN=team9-net
        Validity
            Not Before: Aug  9 00:11:31 2022 GMT
            Not After : Jul 24 00:11:31 2025 GMT
        Subject: CN=team9-client
        Subject Public Key Info:
            Public Key Algorithm: rsaEncryption
                RSA Public-Key: (2048 bit)
                Modulus:
                    00:d6:e1:5e:8f:bc:a4:58:f6:a7:eb:26:a9:1b:54:
                    06:d9:f9:94:ef:08:fb:ac:0c:8d:7a:c2:2c:16:f3:
                    24:a9:64:69:2f:15:9d:83:7e:ed:51:a4:61:2c:5e:
                    2c:61:0e:e4:5f:98:17:f2:50:34:12:9a:0c:6d:14:
                    39:aa:be:ac:f2:a1:6b:0f:d4:9a:f6:44:d6:7f:d2:
                    3e:e4:23:9a:9f:ce:32:65:0b:0e:62:9e:07:c3:fb:
                    d5:91:db:3d:48:a9:a9:71:c0:a9:28:b6:13:d3:12:
                    08:2f:60:5a:69:ee:83:09:e2:d6:44:13:d9:d5:1a:
                    2c:16:08:98:c0:6a:49:90:83:fb:fd:ad:09:1c:c1:
                    60:b7:54:59:81:03:d4:a2:7e:81:86:05:b6:e3:fe:
                    22:73:f2:24:6a:44:79:3f:e9:18:12:42:29:a9:ab:
                    fb:c3:19:86:f1:cb:5b:7d:43:57:44:70:e7:2c:44:
                    f1:58:4e:7a:ca:05:2c:84:23:5a:37:57:5a:e0:51:
                    da:21:d0:8b:6f:df:81:a6:6b:6b:fa:1d:3f:b3:5b:
                    d1:4c:08:4d:1a:7d:b1:44:16:44:4c:e6:78:ff:e5:
                    d3:45:18:0b:ce:d8:13:0a:d4:bb:b8:1f:50:f0:3b:
                    fd:39:6c:99:81:32:34:d8:e9:a0:9a:ed:f8:ef:db:
                    e9:b7
                Exponent: 65537 (0x10001)
        X509v3 extensions:
            X509v3 Basic Constraints: 
                CA:FALSE
            X509v3 Subject Key Identifier: 
                E0:63:B6:1C:5A:9A:D0:C1:12:14:62:01:DC:DF:E2:F0:17:3B:F3:3E
            X509v3 Authority Key Identifier: 
                keyid:1A:BB:74:B2:C9:69:6C:AC:B3:AC:FB:06:89:64:38:9C:EE:67:36:F6
                DirName:/CN=team9-net
                serial:10:44:75:70:71:CF:37:DD:AD:2F:03:62:0D:40:66:B4:A6:70:18:34

            X509v3 Extended Key Usage: 
                TLS Web Client Authentication
            X509v3 Key Usage: 
                Digital Signature
    Signature Algorithm: sha256WithRSAEncryption
         0a:a6:a4:74:f3:b2:8d:18:65:21:1f:51:b5:02:e4:a1:7e:31:
         16:fe:1b:3c:8e:81:b8:19:1a:a6:05:d7:29:31:66:f4:31:da:
         26:97:e9:b2:f4:21:52:45:10:f4:b6:a9:d0:bf:d2:f7:7b:9b:
         1f:b2:18:5f:a3:1b:45:f8:33:ed:e2:8a:71:98:a5:6d:04:fe:
         b8:62:c6:7c:ee:0e:18:2c:8a:60:3b:42:29:2b:f4:7e:49:d6:
         4d:a0:c2:ad:f0:82:1f:8b:cb:28:b6:9d:f6:1b:08:2d:cf:19:
         f1:49:62:20:f1:ca:97:04:22:80:92:81:97:9c:cb:44:bd:16:
         63:44:55:84:40:ed:64:31:6e:db:c0:d2:2d:b5:d7:76:b0:f8:
         1d:1d:06:17:21:30:9c:2c:83:a7:25:4d:2a:04:f1:88:48:0e:
         c2:91:7f:9b:e0:3e:13:4d:37:12:7f:be:84:d3:9a:b4:3a:bd:
         9e:95:a4:d0:1d:7b:c3:2f:b6:3d:66:ad:2e:c7:9a:88:b2:f5:
         77:b5:35:df:85:6a:f2:80:14:5d:96:b2:68:e8:e1:c5:ac:8f:
         0d:01:14:b6:f2:c4:bb:6d:9d:c6:10:96:c0:66:87:13:c7:62:
         d9:de:91:10:73:e9:2a:eb:55:54:93:b2:09:79:94:5a:37:1a:
         7c:0f:d8:57
-----BEGIN CERTIFICATE-----
MIIDVjCCAj6gAwIBAgIQArrp7MocOvvLYZH3eULbwjANBgkqhkiG9w0BAQsFADAU
MRIwEAYDVQQDDAl0ZWFtOS1uZXQwHhcNMjIwODA5MDAxMTMxWhcNMjUwNzI0MDAx
MTMxWjAXMRUwEwYDVQQDDAx0ZWFtOS1jbGllbnQwggEiMA0GCSqGSIb3DQEBAQUA
A4IBDwAwggEKAoIBAQDW4V6PvKRY9qfrJqkbVAbZ+ZTvCPusDI16wiwW8ySpZGkv
FZ2Dfu1RpGEsXixhDuRfmBfyUDQSmgxtFDmqvqzyoWsP1Jr2RNZ/0j7kI5qfzjJl
Cw5ingfD+9WR2z1IqalxwKkothPTEggvYFpp7oMJ4tZEE9nVGiwWCJjAakmQg/v9
rQkcwWC3VFmBA9SifoGGBbbj/iJz8iRqRHk/6RgSQimpq/vDGYbxy1t9Q1dEcOcs
RPFYTnrKBSyEI1o3V1rgUdoh0Itv34Gma2v6HT+zW9FMCE0afbFEFkRM5nj/5dNF
GAvO2BMK1Lu4H1DwO/05bJmBMjTY6aCa7fjv2+m3AgMBAAGjgaAwgZ0wCQYDVR0T
BAIwADAdBgNVHQ4EFgQU4GO2HFqa0MESFGIB3N/i8Bc78z4wTwYDVR0jBEgwRoAU
Grt0sslpbKyzrPsGiWQ4nO5nNvahGKQWMBQxEjAQBgNVBAMMCXRlYW05LW5ldIIU
EER1cHHPN92tLwNiDUBmtKZwGDQwEwYDVR0lBAwwCgYIKwYBBQUHAwIwCwYDVR0P
BAQDAgeAMA0GCSqGSIb3DQEBCwUAA4IBAQAKpqR087KNGGUhH1G1AuShfjEW/hs8
joG4GRqmBdcpMWb0Mdoml+my9CFSRRD0tqnQv9L3e5sfshhfoxtF+DPt4opxmKVt
BP64YsZ87g4YLIpgO0IpK/R+SdZNoMKt8IIfi8sotp32GwgtzxnxSWIg8cqXBCKA
koGXnMtEvRZjRFWEQO1kMW7bwNIttdd2sPgdHQYXITCcLIOnJU0qBPGISA7CkX+b
4D4TTTcSf76E05q0Or2elaTQHXvDL7Y9Zq0ux5qIsvV3tTXfhWrygBRdlrJo6OHF
rI8NARS28sS7bZ3GEJbAZocTx2LZ3pEQc+kq61VUk7IJeZRaNxp8D9hX
-----END CERTIFICATE-----
