Certificate:
    Data:
        Version: 3 (0x2)
        Serial Number:
            1b:58:5e:43:49:fb:94:84:da:69:0e:a9:42:20:20:ca
        Signature Algorithm: sha256WithRSAEncryption
        Issuer: CN=team9-net
        Validity
            Not Before: Aug  9 00:11:32 2022 GMT
            Not After : Jul 24 00:11:32 2025 GMT
        Subject: CN=team9-server
        Subject Public Key Info:
            Public Key Algorithm: rsaEncryption
                RSA Public-Key: (2048 bit)
                Modulus:
                    00:d2:7e:41:61:38:62:3a:02:5d:bf:a1:f8:1e:64:
                    9a:98:12:5f:12:d0:a9:f7:c7:61:0f:7c:56:6c:e7:
                    f3:33:6a:13:a2:f5:e3:78:9b:f3:8d:31:55:56:f4:
                    d3:b8:f7:8e:2b:76:ed:95:68:f2:68:62:96:ac:51:
                    21:2d:b2:8b:22:7f:33:93:e9:12:5c:f0:af:75:8e:
                    35:87:37:c5:14:71:13:98:6d:85:2d:02:32:59:ea:
                    a0:43:7a:a0:0c:24:bf:54:cc:31:12:8e:bc:3b:35:
                    12:ca:d0:af:c9:74:1b:05:05:5a:a3:44:75:02:b5:
                    94:a2:36:c6:7e:40:2e:56:3d:4f:b0:65:51:72:a8:
                    76:c3:35:83:5b:d7:79:67:8a:d7:33:c9:d1:78:7c:
                    c0:73:3d:82:8f:b7:eb:b1:7e:8a:d9:f1:b0:b5:6c:
                    9b:08:b2:7b:0b:92:43:a6:cd:5c:e2:20:3d:59:7c:
                    60:ff:dc:82:1a:12:2c:3c:30:7f:cb:ce:d3:fc:fe:
                    4a:9b:20:d0:12:20:c5:7d:38:70:cf:6d:d2:9b:3b:
                    70:72:fa:fc:96:d9:70:9f:85:50:6f:13:cd:33:2d:
                    78:e1:f5:1c:ab:d1:ba:fa:35:88:78:f9:55:d4:21:
                    a4:e6:92:be:bf:21:f0:c1:46:81:d3:5a:e9:5a:30:
                    72:1d
                Exponent: 65537 (0x10001)
        X509v3 extensions:
            X509v3 Basic Constraints: 
                CA:FALSE
            X509v3 Subject Key Identifier: 
                91:F8:37:09:2B:3E:D9:03:D2:BF:D4:EA:51:5C:70:7D:FE:AF:E0:7D
            X509v3 Authority Key Identifier: 
                keyid:1A:BB:74:B2:C9:69:6C:AC:B3:AC:FB:06:89:64:38:9C:EE:67:36:F6
                DirName:/CN=team9-net
                serial:10:44:75:70:71:CF:37:DD:AD:2F:03:62:0D:40:66:B4:A6:70:18:34

            X509v3 Extended Key Usage: 
                TLS Web Server Authentication
            X509v3 Key Usage: 
                Digital Signature, Key Encipherment
            X509v3 Subject Alternative Name: 
                DNS:team9-server
    Signature Algorithm: sha256WithRSAEncryption
         88:b9:a3:db:63:eb:ca:c9:67:e6:cc:1e:8e:1f:e7:71:80:3a:
         cf:2a:01:6a:e5:85:63:4f:25:62:5d:4c:18:54:4b:3f:19:8f:
         d7:96:fe:d4:f6:09:44:f6:9c:cd:c5:82:db:be:56:e6:fa:ba:
         80:97:1d:df:c5:7b:0d:5b:8c:0f:93:7e:e3:17:0b:35:06:3e:
         b3:23:f6:ae:79:ac:e0:24:f0:bf:88:61:ed:4e:c1:89:1c:74:
         90:fb:c2:1d:15:92:1e:ae:e9:d6:64:41:20:8a:1b:bc:57:5c:
         21:db:1c:06:0f:00:0a:97:a1:b1:a3:63:4e:21:34:14:97:90:
         90:05:36:52:51:6f:7f:28:e4:90:96:f8:f4:05:fd:26:bb:49:
         94:57:8d:46:b5:95:5c:17:37:f6:a7:fc:cc:44:a0:b3:2d:22:
         bb:a3:b4:b3:c6:b0:fc:87:b9:5e:96:26:26:f7:fd:05:c7:a0:
         80:26:13:45:f9:59:2f:6b:ac:06:41:e6:0f:85:0c:25:40:75:
         81:1f:c5:5b:76:f7:22:6c:1a:eb:e9:19:58:03:d8:f1:b0:6e:
         11:2f:f5:5b:d2:78:ce:7f:42:3c:da:c8:e4:32:00:29:e5:56:
         5b:1e:0d:b4:20:51:61:93:de:22:68:05:44:47:30:a2:d1:5f:
         12:17:ce:f6
-----BEGIN CERTIFICATE-----
MIIDbzCCAlegAwIBAgIQG1heQ0n7lITaaQ6pQiAgyjANBgkqhkiG9w0BAQsFADAU
MRIwEAYDVQQDDAl0ZWFtOS1uZXQwHhcNMjIwODA5MDAxMTMyWhcNMjUwNzI0MDAx
MTMyWjAXMRUwEwYDVQQDDAx0ZWFtOS1zZXJ2ZXIwggEiMA0GCSqGSIb3DQEBAQUA
A4IBDwAwggEKAoIBAQDSfkFhOGI6Al2/ofgeZJqYEl8S0Kn3x2EPfFZs5/MzahOi
9eN4m/ONMVVW9NO4944rdu2VaPJoYpasUSEtsosifzOT6RJc8K91jjWHN8UUcROY
bYUtAjJZ6qBDeqAMJL9UzDESjrw7NRLK0K/JdBsFBVqjRHUCtZSiNsZ+QC5WPU+w
ZVFyqHbDNYNb13lnitczydF4fMBzPYKPt+uxforZ8bC1bJsIsnsLkkOmzVziID1Z
fGD/3IIaEiw8MH/LztP8/kqbINASIMV9OHDPbdKbO3By+vyW2XCfhVBvE80zLXjh
9Ryr0br6NYh4+VXUIaTmkr6/IfDBRoHTWulaMHIdAgMBAAGjgbkwgbYwCQYDVR0T
BAIwADAdBgNVHQ4EFgQUkfg3CSs+2QPSv9TqUVxwff6v4H0wTwYDVR0jBEgwRoAU
Grt0sslpbKyzrPsGiWQ4nO5nNvahGKQWMBQxEjAQBgNVBAMMCXRlYW05LW5ldIIU
EER1cHHPN92tLwNiDUBmtKZwGDQwEwYDVR0lBAwwCgYIKwYBBQUHAwEwCwYDVR0P
BAQDAgWgMBcGA1UdEQQQMA6CDHRlYW05LXNlcnZlcjANBgkqhkiG9w0BAQsFAAOC
AQEAiLmj22Prysln5swejh/ncYA6zyoBauWFY08lYl1MGFRLPxmP15b+1PYJRPac
zcWC275W5vq6gJcd38V7DVuMD5N+4xcLNQY+syP2rnms4CTwv4hh7U7BiRx0kPvC
HRWSHq7p1mRBIIobvFdcIdscBg8ACpehsaNjTiE0FJeQkAU2UlFvfyjkkJb49AX9
JrtJlFeNRrWVXBc39qf8zESgsy0iu6O0s8aw/Ie5XpYmJvf9BceggCYTRflZL2us
BkHmD4UMJUB1gR/FW3b3Imwa6+kZWAPY8bBuES/1W9J4zn9CPNrI5DIAKeVWWx4N
tCBRYZPeImgFREcwotFfEhfO9g==
-----END CERTIFICATE-----
