Certificate:
    Data:
        Version: 3 (0x2)
        Serial Number:
            2f:cf:22:fb:89:e3:a7:14:10:84:aa:e6:8e:b4:c5:13
        Signature Algorithm: sha256WithRSAEncryption
        Issuer: CN=team9-net
        Validity
            Not Before: Aug  9 18:52:32 2022 GMT
            Not After : Jul 24 18:52:32 2025 GMT
        Subject: CN=team9-client
        Subject Public Key Info:
            Public Key Algorithm: rsaEncryption
                RSA Public-Key: (2048 bit)
                Modulus:
                    00:bb:c8:a8:8c:d9:38:6e:01:eb:06:fa:52:6c:82:
                    6e:25:3c:dd:b4:4f:f4:f5:a1:25:fb:6d:57:8b:d7:
                    02:51:ef:72:fa:b5:23:78:e8:1b:1b:d3:a3:f0:4e:
                    16:bc:3a:4f:cb:c0:92:c3:b9:79:32:0a:c9:a7:ca:
                    43:bb:4a:5e:c2:76:4e:aa:bc:ba:60:00:9a:32:21:
                    c7:11:67:d7:22:00:17:58:41:da:88:6e:ab:3e:ab:
                    f3:cb:62:f9:70:c9:1d:ad:67:f5:bf:dc:c7:57:5d:
                    80:0f:a9:22:8f:a1:9b:68:9d:40:b8:3f:e7:a0:4a:
                    96:c3:28:95:8a:2f:a1:57:7b:f9:a8:bf:22:9e:d2:
                    de:dc:6b:14:eb:b0:38:11:16:33:4c:10:e1:6a:ab:
                    77:1f:b6:3a:4e:7c:4d:09:cf:ea:90:aa:8b:38:5a:
                    b8:e4:e9:9d:c3:1d:ab:51:b8:b5:ff:c9:59:96:c0:
                    cc:39:15:9a:a4:7e:b9:bb:e2:4f:7c:e9:14:65:3a:
                    62:2b:8f:5c:75:ee:a0:09:ba:ab:3b:0c:eb:df:3b:
                    65:d0:e0:e3:cd:b0:53:67:32:87:72:45:61:11:8e:
                    34:6e:0a:cb:be:7a:46:b0:45:cf:07:14:70:55:75:
                    ba:d3:b2:48:db:15:d2:49:a2:6e:f5:6e:ea:10:e3:
                    eb:1b
                Exponent: 65537 (0x10001)
        X509v3 extensions:
            X509v3 Basic Constraints: 
                CA:FALSE
            X509v3 Subject Key Identifier: 
                B7:02:82:6A:84:65:29:1D:42:6C:D4:7A:3A:28:78:DA:99:AB:47:D1
            X509v3 Authority Key Identifier: 
                keyid:D9:BC:3E:E0:C2:AE:F8:1B:DE:78:59:99:02:45:EC:57:74:EE:30:B3
                DirName:/CN=team9-net
                serial:1B:8F:B6:68:11:77:78:E2:D9:D2:15:FE:BE:68:6F:37:78:85:A4:FC

            X509v3 Extended Key Usage: 
                TLS Web Client Authentication
            X509v3 Key Usage: 
                Digital Signature
    Signature Algorithm: sha256WithRSAEncryption
         33:15:13:e5:7b:41:95:06:9e:34:9a:3c:c8:33:98:0c:3a:2c:
         ca:0d:f8:45:d3:d8:51:fb:ec:11:68:15:e7:60:ad:38:55:a7:
         d4:bf:b2:27:c5:24:34:ad:88:9d:b0:2b:0e:ed:4d:8e:b6:64:
         1b:ae:21:41:a2:23:a1:66:80:57:22:77:0d:73:d9:c7:76:d6:
         5f:27:d7:5f:44:c9:2f:af:4e:36:e5:ae:39:e1:20:37:63:55:
         0a:93:13:c0:df:2c:54:b7:f5:3b:f4:16:56:9c:0b:45:72:48:
         0e:3c:d1:76:a9:be:44:e5:99:61:e0:51:0a:c8:e7:b0:a7:85:
         37:64:5c:6f:42:57:94:7c:8c:21:4c:55:5c:62:32:3c:31:3a:
         d4:11:e5:86:a0:aa:36:55:27:db:77:98:07:27:72:e2:1b:d9:
         01:9f:ae:72:ca:7e:03:28:6c:5b:9d:8a:76:a9:0a:c9:42:13:
         c7:93:e2:db:5d:2a:a7:ab:11:97:71:91:f6:6e:a9:86:8d:76:
         6f:18:e7:9d:1a:5c:74:79:e1:90:f9:1b:f5:e7:2e:5c:85:ef:
         56:3f:84:71:eb:d6:b4:f1:61:39:b3:91:e4:73:54:dd:72:ae:
         50:af:a8:44:ed:1f:38:16:f6:20:78:dc:29:ae:30:e7:36:80:
         3c:42:32:2c
-----BEGIN CERTIFICATE-----
MIIDVjCCAj6gAwIBAgIQL88i+4njpxQQhKrmjrTFEzANBgkqhkiG9w0BAQsFADAU
MRIwEAYDVQQDDAl0ZWFtOS1uZXQwHhcNMjIwODA5MTg1MjMyWhcNMjUwNzI0MTg1
MjMyWjAXMRUwEwYDVQQDDAx0ZWFtOS1jbGllbnQwggEiMA0GCSqGSIb3DQEBAQUA
A4IBDwAwggEKAoIBAQC7yKiM2ThuAesG+lJsgm4lPN20T/T1oSX7bVeL1wJR73L6
tSN46Bsb06PwTha8Ok/LwJLDuXkyCsmnykO7Sl7Cdk6qvLpgAJoyIccRZ9ciABdY
QdqIbqs+q/PLYvlwyR2tZ/W/3MdXXYAPqSKPoZtonUC4P+egSpbDKJWKL6FXe/mo
vyKe0t7caxTrsDgRFjNMEOFqq3cftjpOfE0Jz+qQqos4Wrjk6Z3DHatRuLX/yVmW
wMw5FZqkfrm74k986RRlOmIrj1x17qAJuqs7DOvfO2XQ4OPNsFNnModyRWERjjRu
Csu+ekawRc8HFHBVdbrTskjbFdJJom71buoQ4+sbAgMBAAGjgaAwgZ0wCQYDVR0T
BAIwADAdBgNVHQ4EFgQUtwKCaoRlKR1CbNR6Oih42pmrR9EwTwYDVR0jBEgwRoAU
2bw+4MKu+BveeFmZAkXsV3TuMLOhGKQWMBQxEjAQBgNVBAMMCXRlYW05LW5ldIIU
G4+2aBF3eOLZ0hX+vmhvN3iFpPwwEwYDVR0lBAwwCgYIKwYBBQUHAwIwCwYDVR0P
BAQDAgeAMA0GCSqGSIb3DQEBCwUAA4IBAQAzFRPle0GVBp40mjzIM5gMOizKDfhF
09hR++wRaBXnYK04VafUv7InxSQ0rYidsCsO7U2OtmQbriFBoiOhZoBXIncNc9nH
dtZfJ9dfRMkvr0425a454SA3Y1UKkxPA3yxUt/U79BZWnAtFckgOPNF2qb5E5Zlh
4FEKyOewp4U3ZFxvQleUfIwhTFVcYjI8MTrUEeWGoKo2VSfbd5gHJ3LiG9kBn65y
yn4DKGxbnYp2qQrJQhPHk+LbXSqnqxGXcZH2bqmGjXZvGOedGlx0eeGQ+Rv15y5c
he9WP4Rx69a08WE5s5Hkc1Tdcq5Qr6hE7R84FvYgeNwprjDnNoA8QjIs
-----END CERTIFICATE-----
