Certificate:
    Data:
        Version: 3 (0x2)
        Serial Number:
            4f:10:ff:af:ec:3d:48:c6:6d:19:4d:6e:46:77:a1:d5
        Signature Algorithm: sha256WithRSAEncryption
        Issuer: CN=team9-net
        Validity
            Not Before: Aug  4 12:27:52 2022 GMT
            Not After : Jul 19 12:27:52 2025 GMT
        Subject: CN=team9-server
        Subject Public Key Info:
            Public Key Algorithm: rsaEncryption
                RSA Public-Key: (2048 bit)
                Modulus:
                    00:de:4f:5d:98:38:dc:31:28:7d:e4:d4:c3:bc:ce:
                    ad:f7:09:dd:15:99:06:36:6c:bb:dd:a8:4c:ce:98:
                    8d:ff:ad:70:02:5e:42:97:af:12:82:73:6a:13:fb:
                    4c:4a:f2:f9:34:4b:11:3f:f7:67:35:4a:15:8c:81:
                    97:a4:4c:13:e5:00:c4:54:28:6e:9e:44:c5:3a:98:
                    7d:87:fd:1f:13:5f:3c:cb:96:87:32:2d:ba:83:a5:
                    3b:64:d8:8b:9a:de:81:48:93:9a:54:ea:28:11:8c:
                    24:a2:a8:be:04:89:58:9c:c2:e6:ad:a0:81:43:e8:
                    ed:3b:8d:a9:6c:5a:51:cd:98:73:b4:9a:d2:0b:08:
                    1a:25:ce:ef:2d:5f:ee:0a:99:32:9d:eb:93:17:48:
                    c2:3d:81:c8:09:87:b7:96:10:35:6d:ad:bc:fe:75:
                    7d:42:34:d5:cd:fd:06:a8:76:7b:14:9e:49:6c:dc:
                    39:21:4c:42:00:3f:77:a7:2c:de:ba:20:dc:2a:9e:
                    de:8e:fa:3c:97:3f:14:6d:ed:3e:82:8d:22:2b:de:
                    8d:ae:d1:c1:f8:de:a4:05:e9:78:8a:f4:5d:10:4f:
                    f4:66:08:63:d3:a2:92:45:96:93:29:df:38:12:8d:
                    26:82:5e:7d:fd:1a:62:96:ad:cf:bf:0f:9b:88:26:
                    8b:d5
                Exponent: 65537 (0x10001)
        X509v3 extensions:
            X509v3 Basic Constraints: 
                CA:FALSE
            X509v3 Subject Key Identifier: 
                F8:F7:6B:28:BE:2E:AA:7E:4B:48:91:9D:16:94:F2:90:8F:94:50:52
            X509v3 Authority Key Identifier: 
                keyid:68:FA:51:9B:A1:2F:FC:F1:B2:8D:3D:D5:D6:74:17:A4:8A:08:0B:15
                DirName:/CN=team9-net
                serial:19:4D:80:1F:25:D6:50:09:4D:A4:B4:92:7C:6F:E6:96:E0:CD:A1:02

            X509v3 Extended Key Usage: 
                TLS Web Server Authentication
            X509v3 Key Usage: 
                Digital Signature, Key Encipherment
            X509v3 Subject Alternative Name: 
                DNS:team9-server
    Signature Algorithm: sha256WithRSAEncryption
         5b:47:60:aa:c2:9c:84:fe:66:1e:ca:68:08:e7:5a:cf:29:b9:
         2b:76:71:28:e3:d7:52:3d:dc:05:a4:22:16:2a:47:f3:e1:2e:
         0d:56:2c:a2:bb:9f:87:73:b1:65:97:3f:c6:91:a3:b0:70:ae:
         c2:46:75:0d:6e:a1:e6:00:25:69:3d:3a:ab:db:fb:2f:2f:34:
         f8:2e:d6:28:03:1a:61:b3:f6:ad:1d:2f:39:4d:6c:7f:7a:6d:
         0d:ca:4f:76:ad:00:cc:13:b4:ec:12:81:bc:e3:6c:27:27:5a:
         8c:c2:af:bb:6a:3b:7f:9b:04:dd:23:23:05:68:04:fa:28:49:
         61:7c:89:1d:87:ac:3b:2d:79:c6:f5:4f:b6:26:ca:57:6c:ae:
         59:49:a6:9d:e8:00:93:9f:70:b4:a7:ae:c7:41:3a:13:8e:30:
         99:c2:3d:24:b1:8e:57:88:5e:ae:81:1f:26:d2:9e:e2:b5:26:
         ad:22:94:2b:e5:00:a4:71:1a:b3:33:bf:dc:9a:e1:7f:45:d2:
         c8:bd:c5:90:80:1d:10:dc:fd:06:d1:ec:a1:b7:47:ea:3d:72:
         cc:11:be:d3:ea:d4:bf:97:49:00:81:9b:6e:18:04:28:a6:53:
         c6:30:b9:09:1b:40:37:81:2c:6f:03:c2:f4:b5:ca:75:d9:85:
         85:05:7e:a4
-----BEGIN CERTIFICATE-----
MIIDbzCCAlegAwIBAgIQTxD/r+w9SMZtGU1uRneh1TANBgkqhkiG9w0BAQsFADAU
MRIwEAYDVQQDDAl0ZWFtOS1uZXQwHhcNMjIwODA0MTIyNzUyWhcNMjUwNzE5MTIy
NzUyWjAXMRUwEwYDVQQDDAx0ZWFtOS1zZXJ2ZXIwggEiMA0GCSqGSIb3DQEBAQUA
A4IBDwAwggEKAoIBAQDeT12YONwxKH3k1MO8zq33Cd0VmQY2bLvdqEzOmI3/rXAC
XkKXrxKCc2oT+0xK8vk0SxE/92c1ShWMgZekTBPlAMRUKG6eRMU6mH2H/R8TXzzL
locyLbqDpTtk2Iua3oFIk5pU6igRjCSiqL4EiVicwuatoIFD6O07jalsWlHNmHO0
mtILCBolzu8tX+4KmTKd65MXSMI9gcgJh7eWEDVtrbz+dX1CNNXN/QaodnsUnkls
3DkhTEIAP3enLN66INwqnt6O+jyXPxRt7T6CjSIr3o2u0cH43qQF6XiK9F0QT/Rm
CGPTopJFlpMp3zgSjSaCXn39GmKWrc+/D5uIJovVAgMBAAGjgbkwgbYwCQYDVR0T
BAIwADAdBgNVHQ4EFgQU+PdrKL4uqn5LSJGdFpTykI+UUFIwTwYDVR0jBEgwRoAU
aPpRm6Ev/PGyjT3V1nQXpIoICxWhGKQWMBQxEjAQBgNVBAMMCXRlYW05LW5ldIIU
GU2AHyXWUAlNpLSSfG/mluDNoQIwEwYDVR0lBAwwCgYIKwYBBQUHAwEwCwYDVR0P
BAQDAgWgMBcGA1UdEQQQMA6CDHRlYW05LXNlcnZlcjANBgkqhkiG9w0BAQsFAAOC
AQEAW0dgqsKchP5mHspoCOdazym5K3ZxKOPXUj3cBaQiFipH8+EuDVYsorufh3Ox
ZZc/xpGjsHCuwkZ1DW6h5gAlaT06q9v7Ly80+C7WKAMaYbP2rR0vOU1sf3ptDcpP
dq0AzBO07BKBvONsJydajMKvu2o7f5sE3SMjBWgE+ihJYXyJHYesOy15xvVPtibK
V2yuWUmmnegAk59wtKeux0E6E44wmcI9JLGOV4heroEfJtKe4rUmrSKUK+UApHEa
szO/3Jrhf0XSyL3FkIAdENz9BtHsobdH6j1yzBG+0+rUv5dJAIGbbhgEKKZTxjC5
CRtAN4EsbwPC9LXKddmFhQV+pA==
-----END CERTIFICATE-----
