Certificate:
    Data:
        Version: 3 (0x2)
        Serial Number:
            e9:95:6f:c0:3f:1d:2a:70:41:56:06:7e:05:cf:ee:e5
        Signature Algorithm: sha256WithRSAEncryption
        Issuer: CN=team3-net
        Validity
            Not Before: Aug  9 18:52:27 2022 GMT
            Not After : Jul 24 18:52:27 2025 GMT
        Subject: CN=team3-client
        Subject Public Key Info:
            Public Key Algorithm: rsaEncryption
                RSA Public-Key: (2048 bit)
                Modulus:
                    00:b9:40:7c:f8:6d:b8:27:e4:c1:43:33:e0:4c:3c:
                    ca:21:0b:94:fb:85:ac:94:76:0f:a7:98:98:05:e8:
                    82:db:17:5a:20:cb:63:d5:0f:ee:35:80:86:72:3f:
                    2f:36:64:a5:35:51:31:fb:7a:ef:c5:ee:5b:5d:91:
                    ea:76:f9:7d:4a:0a:cf:68:b1:1f:59:8d:b4:d8:82:
                    b8:10:6e:db:90:90:f1:89:23:d5:3b:26:fd:67:9d:
                    0b:fc:81:ad:64:01:11:45:7d:21:ce:4d:bd:3b:40:
                    3c:3f:a6:21:8e:0b:72:14:df:80:76:ae:5d:f7:fe:
                    c8:95:ce:55:c9:b4:c6:1d:43:12:33:f5:ca:ee:94:
                    12:e0:50:51:15:37:ae:d4:10:4a:c4:7f:20:3a:74:
                    02:d6:08:38:e0:41:b6:8d:2b:e9:4f:2c:76:91:f9:
                    81:17:f4:0a:5b:94:de:ee:eb:09:7f:3b:35:9a:64:
                    d8:b2:61:be:2b:cc:54:07:bc:66:a2:73:ec:a2:0d:
                    a4:11:86:d6:2f:4f:8d:58:c6:10:bc:75:54:ea:f3:
                    21:ca:97:dc:27:61:b2:d7:03:fc:2e:5f:1c:aa:1a:
                    65:31:84:3f:1d:5d:a4:94:4e:06:e1:1b:34:6f:b2:
                    2b:2a:76:e2:de:e5:e4:3b:f9:6c:65:15:e8:f9:01:
                    a7:69
                Exponent: 65537 (0x10001)
        X509v3 extensions:
            X509v3 Basic Constraints: 
                CA:FALSE
            X509v3 Subject Key Identifier: 
                5E:41:5B:8D:8C:1B:D0:74:F8:9A:97:7B:0E:99:EF:06:21:83:4A:13
            X509v3 Authority Key Identifier: 
                keyid:F5:E5:18:62:CB:24:1A:6E:20:C4:09:85:7A:D1:9F:F1:C6:46:6C:03
                DirName:/CN=team3-net
                serial:7F:42:AF:5D:A0:8A:66:07:67:B4:76:21:90:A7:DF:58:F3:94:8F:49

            X509v3 Extended Key Usage: 
                TLS Web Client Authentication
            X509v3 Key Usage: 
                Digital Signature
    Signature Algorithm: sha256WithRSAEncryption
         04:01:1f:b4:66:10:56:77:92:8a:71:7e:db:b9:3d:f1:4d:90:
         5e:6c:86:42:04:90:ab:cd:4d:1b:d3:66:bb:be:3f:9b:46:b1:
         43:aa:03:c9:95:7a:2c:6e:a0:77:87:4b:0d:6c:a9:4a:66:43:
         7c:d0:ee:6d:10:ad:b3:d0:28:c4:64:18:00:8c:f7:88:49:66:
         f0:af:76:f0:07:c5:10:ea:44:06:c4:86:f4:f9:d5:89:28:6a:
         db:2c:33:de:32:3c:61:94:c5:4f:2d:27:25:a5:a8:6a:d3:d5:
         a2:ca:f1:fa:a9:66:a4:04:64:a3:b8:a8:6c:77:63:bd:9d:1c:
         0f:7f:16:13:09:de:4a:0e:e0:f4:07:8f:db:e2:36:e0:bf:54:
         e0:43:4d:fe:1e:44:cf:61:18:75:57:92:5d:ed:14:62:8a:10:
         91:a5:33:e8:bf:09:84:4b:4d:58:14:a9:14:46:bf:56:76:63:
         e8:fa:5a:f2:90:0b:65:55:9c:52:61:55:77:68:51:54:10:4b:
         d3:3b:7c:1d:40:50:e0:6a:c1:f6:f3:44:20:80:f9:c2:a0:ed:
         2b:55:f6:53:7d:66:1c:23:e3:28:5c:bd:ed:2b:78:a5:b6:5e:
         9c:36:32:f2:ff:1a:48:f9:5c:78:22:e0:f4:83:d2:dc:11:85:
         ac:b1:b3:b0
-----BEGIN CERTIFICATE-----
MIIDVzCCAj+gAwIBAgIRAOmVb8A/HSpwQVYGfgXP7uUwDQYJKoZIhvcNAQELBQAw
FDESMBAGA1UEAwwJdGVhbTMtbmV0MB4XDTIyMDgwOTE4NTIyN1oXDTI1MDcyNDE4
NTIyN1owFzEVMBMGA1UEAwwMdGVhbTMtY2xpZW50MIIBIjANBgkqhkiG9w0BAQEF
AAOCAQ8AMIIBCgKCAQEAuUB8+G24J+TBQzPgTDzKIQuU+4WslHYPp5iYBeiC2xda
IMtj1Q/uNYCGcj8vNmSlNVEx+3rvxe5bXZHqdvl9SgrPaLEfWY202IK4EG7bkJDx
iSPVOyb9Z50L/IGtZAERRX0hzk29O0A8P6YhjgtyFN+Adq5d9/7Ilc5VybTGHUMS
M/XK7pQS4FBRFTeu1BBKxH8gOnQC1gg44EG2jSvpTyx2kfmBF/QKW5Te7usJfzs1
mmTYsmG+K8xUB7xmonPsog2kEYbWL0+NWMYQvHVU6vMhypfcJ2Gy1wP8Ll8cqhpl
MYQ/HV2klE4G4Rs0b7IrKnbi3uXkO/lsZRXo+QGnaQIDAQABo4GgMIGdMAkGA1Ud
EwQCMAAwHQYDVR0OBBYEFF5BW42MG9B0+JqXew6Z7wYhg0oTME8GA1UdIwRIMEaA
FPXlGGLLJBpuIMQJhXrRn/HGRmwDoRikFjAUMRIwEAYDVQQDDAl0ZWFtMy1uZXSC
FH9Cr12gimYHZ7R2IZCn31jzlI9JMBMGA1UdJQQMMAoGCCsGAQUFBwMCMAsGA1Ud
DwQEAwIHgDANBgkqhkiG9w0BAQsFAAOCAQEABAEftGYQVneSinF+27k98U2QXmyG
QgSQq81NG9Nmu74/m0axQ6oDyZV6LG6gd4dLDWypSmZDfNDubRCts9AoxGQYAIz3
iElm8K928AfFEOpEBsSG9PnViShq2ywz3jI8YZTFTy0nJaWoatPVosrx+qlmpARk
o7iobHdjvZ0cD38WEwneSg7g9AeP2+I24L9U4ENN/h5Ez2EYdVeSXe0UYooQkaUz
6L8JhEtNWBSpFEa/VnZj6Ppa8pALZVWcUmFVd2hRVBBL0zt8HUBQ4GrB9vNEIID5
wqDtK1X2U31mHCPjKFy97St4pbZenDYy8v8aSPlceCLg9IPS3BGFrLGzsA==
-----END CERTIFICATE-----
