Certificate:
    Data:
        Version: 3 (0x2)
        Serial Number:
            82:e1:f8:46:06:47:43:86:e3:c8:6d:e4:7e:fc:2a:0a
        Signature Algorithm: sha256WithRSAEncryption
        Issuer: CN=team3-net
        Validity
            Not Before: Aug  4 12:27:46 2022 GMT
            Not After : Jul 19 12:27:46 2025 GMT
        Subject: CN=team3-client
        Subject Public Key Info:
            Public Key Algorithm: rsaEncryption
                RSA Public-Key: (2048 bit)
                Modulus:
                    00:bd:12:de:60:08:cd:ac:0f:0a:9a:fc:e0:5f:12:
                    69:66:82:2c:ee:a5:04:7c:34:93:e1:c2:8d:19:c8:
                    c7:e3:79:63:d7:14:d9:6b:87:45:a1:18:d6:27:2c:
                    e5:c7:2a:47:1b:59:82:44:45:1f:d2:ce:d9:89:38:
                    79:11:08:c7:28:1e:b2:ce:0d:57:af:62:9a:a9:f9:
                    37:05:0e:1d:43:06:35:1a:8b:2b:aa:8d:9e:e3:5a:
                    7b:ac:db:f9:78:95:07:b0:41:d1:fb:fc:ac:2b:6f:
                    be:47:3f:43:1f:3a:f8:48:6b:ea:df:b4:aa:41:68:
                    a4:78:60:3b:1f:34:e4:65:30:af:9f:84:f7:a9:04:
                    a9:0f:a9:f2:e0:69:2e:e6:34:be:c7:b1:aa:e1:9a:
                    27:28:e3:d5:6c:59:59:c0:c2:2f:5f:23:c2:e6:1d:
                    dd:60:c6:c6:12:8f:cf:c2:f9:a5:e8:cc:41:78:1e:
                    a5:c2:72:91:66:26:e6:2b:80:27:61:5a:d0:52:d0:
                    a7:0e:18:83:25:64:5e:02:a1:47:55:38:c0:74:a6:
                    9e:1e:bc:40:eb:b6:33:49:45:7d:88:f5:ad:cd:91:
                    d5:de:c6:59:3a:54:b7:48:72:b0:d8:0e:03:27:66:
                    04:3a:6a:35:06:33:d3:9a:b3:f2:33:26:d7:e0:47:
                    93:a1
                Exponent: 65537 (0x10001)
        X509v3 extensions:
            X509v3 Basic Constraints: 
                CA:FALSE
            X509v3 Subject Key Identifier: 
                50:2B:41:4D:E0:88:88:70:25:9A:52:C0:0C:ED:40:CD:85:25:D1:71
            X509v3 Authority Key Identifier: 
                keyid:EE:05:FB:2C:A2:FB:9D:D4:1B:3D:51:DE:B6:E0:66:91:07:08:28:65
                DirName:/CN=team3-net
                serial:17:17:8E:45:5B:64:41:38:E8:04:FA:9C:FD:22:6D:B8:E7:EE:1D:2F

            X509v3 Extended Key Usage: 
                TLS Web Client Authentication
            X509v3 Key Usage: 
                Digital Signature
    Signature Algorithm: sha256WithRSAEncryption
         92:f0:3a:62:58:e9:30:9e:f6:57:57:fa:27:5f:ac:e8:70:9f:
         ca:3d:11:af:da:8c:e4:73:80:e6:a7:5b:ff:ae:d8:38:c8:af:
         ba:0b:01:8b:06:e5:a6:06:89:98:80:57:c5:9f:8f:10:35:a5:
         ae:c2:e2:80:f7:76:3a:0b:f6:38:40:81:92:38:7c:8e:ce:c0:
         ed:d6:b4:d1:3c:d8:da:56:1f:68:d2:a1:9f:0d:3d:12:83:2c:
         7b:df:78:be:ab:87:0d:c5:60:a0:ee:7b:a4:9d:49:40:9f:89:
         60:33:72:b6:38:d0:24:78:ba:17:35:67:55:0f:71:d5:c1:e2:
         27:c4:c5:02:12:dd:11:2d:0c:ac:af:9e:86:7b:17:b0:b4:91:
         0a:71:7f:4f:ac:b9:70:a2:9d:de:75:ef:2b:99:6c:bc:5a:1c:
         7f:37:76:99:dd:06:a5:73:52:e9:50:38:15:29:fe:94:3c:da:
         28:12:77:11:3d:af:2f:34:b0:81:1e:28:9e:fa:6f:30:d3:16:
         bf:29:03:a7:d3:f2:e4:23:0c:ad:9a:2f:34:58:6f:53:61:ee:
         7f:7e:fc:9c:94:b7:81:50:28:d3:3c:7e:6a:f1:33:65:49:38:
         6b:fa:68:08:68:d2:1e:0f:f0:35:2e:28:ee:50:fd:79:8a:2c:
         1b:ad:f0:8f
-----BEGIN CERTIFICATE-----
MIIDVzCCAj+gAwIBAgIRAILh+EYGR0OG48ht5H78KgowDQYJKoZIhvcNAQELBQAw
FDESMBAGA1UEAwwJdGVhbTMtbmV0MB4XDTIyMDgwNDEyMjc0NloXDTI1MDcxOTEy
Mjc0NlowFzEVMBMGA1UEAwwMdGVhbTMtY2xpZW50MIIBIjANBgkqhkiG9w0BAQEF
AAOCAQ8AMIIBCgKCAQEAvRLeYAjNrA8KmvzgXxJpZoIs7qUEfDST4cKNGcjH43lj
1xTZa4dFoRjWJyzlxypHG1mCREUf0s7ZiTh5EQjHKB6yzg1Xr2Kaqfk3BQ4dQwY1
Gosrqo2e41p7rNv5eJUHsEHR+/ysK2++Rz9DHzr4SGvq37SqQWikeGA7HzTkZTCv
n4T3qQSpD6ny4Gku5jS+x7Gq4ZonKOPVbFlZwMIvXyPC5h3dYMbGEo/Pwvml6MxB
eB6lwnKRZibmK4AnYVrQUtCnDhiDJWReAqFHVTjAdKaeHrxA67YzSUV9iPWtzZHV
3sZZOlS3SHKw2A4DJ2YEOmo1BjPTmrPyMybX4EeToQIDAQABo4GgMIGdMAkGA1Ud
EwQCMAAwHQYDVR0OBBYEFFArQU3giIhwJZpSwAztQM2FJdFxME8GA1UdIwRIMEaA
FO4F+yyi+53UGz1R3rbgZpEHCChloRikFjAUMRIwEAYDVQQDDAl0ZWFtMy1uZXSC
FBcXjkVbZEE46AT6nP0ibbjn7h0vMBMGA1UdJQQMMAoGCCsGAQUFBwMCMAsGA1Ud
DwQEAwIHgDANBgkqhkiG9w0BAQsFAAOCAQEAkvA6YljpMJ72V1f6J1+s6HCfyj0R
r9qM5HOA5qdb/67YOMivugsBiwblpgaJmIBXxZ+PEDWlrsLigPd2Ogv2OECBkjh8
js7A7da00TzY2lYfaNKhnw09EoMse994vquHDcVgoO57pJ1JQJ+JYDNytjjQJHi6
FzVnVQ9x1cHiJ8TFAhLdES0MrK+ehnsXsLSRCnF/T6y5cKKd3nXvK5lsvFocfzd2
md0GpXNS6VA4FSn+lDzaKBJ3ET2vLzSwgR4onvpvMNMWvykDp9Py5CMMrZovNFhv
U2Huf378nJS3gVAo0zx+avEzZUk4a/poCGjSHg/wNS4o7lD9eYosG63wjw==
-----END CERTIFICATE-----
