Certificate:
    Data:
        Version: 3 (0x2)
        Serial Number:
            5a:29:c3:6a:56:b9:50:47:74:75:29:d9:82:d3:b7:71
        Signature Algorithm: sha256WithRSAEncryption
        Issuer: CN=team1-net
        Validity
            Not Before: Aug  4 12:27:45 2022 GMT
            Not After : Jul 19 12:27:45 2025 GMT
        Subject: CN=team1-client
        Subject Public Key Info:
            Public Key Algorithm: rsaEncryption
                RSA Public-Key: (2048 bit)
                Modulus:
                    00:be:ac:b6:65:3d:fe:40:da:a0:4d:a3:1d:50:40:
                    51:84:80:e5:a5:59:b9:26:ca:4a:71:c4:d1:bb:7f:
                    39:fa:61:d0:74:4b:7f:53:27:17:59:63:ba:8c:9d:
                    bd:de:79:43:43:a1:21:fa:05:95:f0:3a:07:12:2f:
                    6e:06:e2:bd:bb:ad:11:d9:e3:4a:fe:47:7d:ce:da:
                    65:f6:2e:fa:43:87:46:fb:03:75:8e:d5:51:29:12:
                    5e:35:bb:07:c2:6a:fd:8b:eb:a1:70:93:62:42:cd:
                    23:c0:80:03:d2:9f:c0:08:0b:28:69:11:17:d9:df:
                    ff:9c:72:f8:38:53:07:2a:a4:a0:66:e4:de:c9:cf:
                    06:ff:53:26:9e:4a:79:a8:61:f1:f2:62:25:9f:55:
                    27:88:88:6d:3f:d4:c7:ee:d1:fa:8b:58:45:7d:92:
                    d0:4a:ef:f3:6e:c4:65:df:8b:4f:c2:b5:73:a0:2a:
                    16:e3:8d:17:e2:02:ff:56:bc:98:f5:2b:c1:52:85:
                    19:9b:09:e4:fe:70:9e:92:44:82:bb:2a:8b:39:2d:
                    84:92:8f:33:87:c6:49:5a:93:5f:fa:b7:79:8b:42:
                    52:88:9b:83:c4:53:cd:02:b3:e3:72:3f:b1:f8:a1:
                    b0:25:61:a8:3f:3e:29:2e:b6:13:b6:6b:1e:41:fc:
                    83:77
                Exponent: 65537 (0x10001)
        X509v3 extensions:
            X509v3 Basic Constraints: 
                CA:FALSE
            X509v3 Subject Key Identifier: 
                98:1A:57:C5:77:8D:96:D7:BC:98:BF:61:FB:5A:98:B7:A9:EB:DC:EA
            X509v3 Authority Key Identifier: 
                keyid:94:28:C1:0D:36:3F:F2:62:0B:A7:7B:30:73:CF:F0:32:F7:49:EA:78
                DirName:/CN=team1-net
                serial:3B:C7:CC:20:EA:6F:27:A7:E3:30:9A:DA:3B:22:5C:03:33:C0:7F:F1

            X509v3 Extended Key Usage: 
                TLS Web Client Authentication
            X509v3 Key Usage: 
                Digital Signature
    Signature Algorithm: sha256WithRSAEncryption
         6e:47:59:43:4c:96:e1:60:5f:23:6b:c8:c3:8b:8a:29:f4:50:
         61:8d:44:be:2e:32:ee:cb:5b:cf:41:de:66:cf:7c:d4:b3:e2:
         4e:73:3b:86:39:0f:4e:2d:27:82:6f:9c:53:a9:e2:aa:d7:15:
         1c:36:6a:57:54:e9:06:55:b0:23:0b:06:88:9b:50:29:49:7b:
         86:c4:72:10:d7:90:6d:e1:0b:f6:bc:8d:61:27:0c:d5:01:bd:
         9a:95:53:c2:ca:b8:a6:d3:a9:53:42:cc:0b:d2:52:fc:8d:a8:
         c9:bb:89:e7:d3:ab:ea:76:a5:0e:db:69:75:b9:8d:87:7b:15:
         62:fd:d1:fd:73:04:0e:1c:13:7b:27:c0:f5:e3:34:fe:5c:62:
         1c:0d:1b:6c:1e:aa:d0:d4:b2:a7:d9:83:0d:32:b3:1b:82:0a:
         5d:13:a5:48:47:f8:e7:1d:1d:ad:13:30:b5:0e:2d:75:43:7b:
         42:5a:a9:cb:0c:06:47:a0:63:60:62:aa:91:97:be:c4:53:9c:
         d5:68:85:9b:2a:dc:ce:1c:93:15:33:2c:3f:12:83:9a:a1:e1:
         61:c8:7b:a9:5b:2c:cb:ec:e5:1a:2a:83:36:ca:f9:ba:d7:ee:
         c8:47:c2:ab:9a:e4:be:53:de:0e:61:1b:1a:4d:56:63:2a:be:
         0b:6f:19:1c
-----BEGIN CERTIFICATE-----
MIIDVjCCAj6gAwIBAgIQWinDala5UEd0dSnZgtO3cTANBgkqhkiG9w0BAQsFADAU
MRIwEAYDVQQDDAl0ZWFtMS1uZXQwHhcNMjIwODA0MTIyNzQ1WhcNMjUwNzE5MTIy
NzQ1WjAXMRUwEwYDVQQDDAx0ZWFtMS1jbGllbnQwggEiMA0GCSqGSIb3DQEBAQUA
A4IBDwAwggEKAoIBAQC+rLZlPf5A2qBNox1QQFGEgOWlWbkmykpxxNG7fzn6YdB0
S39TJxdZY7qMnb3eeUNDoSH6BZXwOgcSL24G4r27rRHZ40r+R33O2mX2LvpDh0b7
A3WO1VEpEl41uwfCav2L66Fwk2JCzSPAgAPSn8AICyhpERfZ3/+ccvg4UwcqpKBm
5N7Jzwb/UyaeSnmoYfHyYiWfVSeIiG0/1Mfu0fqLWEV9ktBK7/NuxGXfi0/CtXOg
KhbjjRfiAv9WvJj1K8FShRmbCeT+cJ6SRIK7Kos5LYSSjzOHxklak1/6t3mLQlKI
m4PEU80Cs+NyP7H4obAlYag/PikuthO2ax5B/IN3AgMBAAGjgaAwgZ0wCQYDVR0T
BAIwADAdBgNVHQ4EFgQUmBpXxXeNlte8mL9h+1qYt6nr3OowTwYDVR0jBEgwRoAU
lCjBDTY/8mILp3swc8/wMvdJ6nihGKQWMBQxEjAQBgNVBAMMCXRlYW0xLW5ldIIU
O8fMIOpvJ6fjMJraOyJcAzPAf/EwEwYDVR0lBAwwCgYIKwYBBQUHAwIwCwYDVR0P
BAQDAgeAMA0GCSqGSIb3DQEBCwUAA4IBAQBuR1lDTJbhYF8ja8jDi4op9FBhjUS+
LjLuy1vPQd5mz3zUs+JOczuGOQ9OLSeCb5xTqeKq1xUcNmpXVOkGVbAjCwaIm1Ap
SXuGxHIQ15Bt4Qv2vI1hJwzVAb2alVPCyrim06lTQswL0lL8jajJu4nn06vqdqUO
22l1uY2HexVi/dH9cwQOHBN7J8D14zT+XGIcDRtsHqrQ1LKn2YMNMrMbggpdE6VI
R/jnHR2tEzC1Di11Q3tCWqnLDAZHoGNgYqqRl77EU5zVaIWbKtzOHJMVMyw/EoOa
oeFhyHupWyzL7OUaKoM2yvm61+7IR8KrmuS+U94OYRsaTVZjKr4Lbxkc
-----END CERTIFICATE-----
