Certificate:
    Data:
        Version: 3 (0x2)
        Serial Number:
            20:f0:fa:a6:eb:cd:3f:9e:64:ce:10:48:33:2c:6a:2e
        Signature Algorithm: sha256WithRSAEncryption
        Issuer: CN=team4-net
        Validity
            Not Before: Aug  4 12:27:47 2022 GMT
            Not After : Jul 19 12:27:47 2025 GMT
        Subject: CN=team4-client
        Subject Public Key Info:
            Public Key Algorithm: rsaEncryption
                RSA Public-Key: (2048 bit)
                Modulus:
                    00:f4:40:cb:2f:25:2a:9f:c2:0d:89:73:52:9b:4e:
                    27:29:d4:c4:ab:d6:80:17:b4:42:46:0d:60:19:ba:
                    f2:7a:3a:d4:5f:55:79:c2:79:fe:95:7c:dc:c0:6e:
                    d6:52:cb:14:4c:07:71:d3:35:60:41:4a:7b:70:bb:
                    43:00:1a:19:3b:2e:e8:a2:54:a0:92:99:b0:18:0d:
                    85:44:11:6c:5b:b8:c7:a2:1c:76:7b:99:40:bd:27:
                    f2:ed:05:63:83:ad:51:20:1c:ff:36:1d:c1:ed:04:
                    ef:b3:33:0d:0d:5a:1f:48:02:9c:1f:ca:bf:ae:38:
                    42:b7:01:c5:da:e4:2f:ee:6b:52:65:c5:22:73:fd:
                    25:12:d3:12:92:3d:9d:1c:ab:de:dd:23:4c:61:94:
                    31:96:ba:3b:0c:7a:ef:5f:d1:fb:58:17:80:85:6c:
                    9a:ce:cf:a5:ba:57:71:ec:b1:78:22:aa:4c:2c:bc:
                    02:5b:a9:ab:a1:31:98:1d:bd:20:4c:58:30:3d:ff:
                    76:c3:19:40:af:16:ec:d0:44:08:bd:09:37:a2:05:
                    44:e9:81:07:07:3d:b3:26:bd:72:90:ba:55:c5:49:
                    e7:df:7b:ea:48:f8:ae:e5:26:22:2e:48:5d:2a:cc:
                    c8:e9:1f:31:c5:0f:cf:3d:18:b7:4a:6b:54:9b:70:
                    bb:73
                Exponent: 65537 (0x10001)
        X509v3 extensions:
            X509v3 Basic Constraints: 
                CA:FALSE
            X509v3 Subject Key Identifier: 
                F0:3E:1F:37:6D:77:3B:1D:A9:84:29:4D:5F:42:A3:A8:37:69:C5:ED
            X509v3 Authority Key Identifier: 
                keyid:BF:9A:A6:20:34:B4:71:C2:CF:AD:63:A7:10:6C:AF:12:A6:90:D1:6A
                DirName:/CN=team4-net
                serial:19:BB:CA:65:2A:CF:05:D9:03:1A:8C:B5:0A:23:2A:4E:0B:21:02:00

            X509v3 Extended Key Usage: 
                TLS Web Client Authentication
            X509v3 Key Usage: 
                Digital Signature
    Signature Algorithm: sha256WithRSAEncryption
         58:7a:e8:11:63:ce:7c:10:7d:1d:d7:c7:31:a3:8e:65:d3:43:
         bd:b2:94:38:40:57:83:e5:87:af:66:44:15:54:a8:78:cd:1b:
         24:83:f5:90:9f:e6:f2:04:0b:0f:20:23:92:69:27:9a:b1:46:
         b6:39:f6:a5:03:66:52:78:6e:cd:9c:8d:4f:c1:e3:79:db:00:
         cc:d6:75:66:02:26:e1:09:f7:0c:e8:50:99:da:33:68:c2:db:
         db:ff:13:f4:a2:95:d0:41:c2:5b:8a:57:05:59:92:b4:b8:ad:
         da:9f:b8:a2:a3:52:70:bd:1e:71:31:1a:a9:ea:eb:2b:04:71:
         f1:d5:09:45:4f:1a:5b:21:3b:16:18:17:76:92:c3:1f:f5:11:
         09:27:66:2e:fe:cf:d7:18:1a:cb:8d:92:da:36:47:75:ab:12:
         5f:18:ef:44:49:65:20:5f:88:0d:1d:41:37:27:5b:c1:dc:28:
         a8:6f:ac:6f:a2:66:1c:b2:62:07:03:50:6d:a3:43:58:7f:b8:
         bd:f7:ef:e0:ff:f3:ad:de:6c:d9:67:c3:88:27:9b:5e:04:08:
         9d:71:19:eb:ab:2c:01:ef:de:df:ae:24:54:b8:43:f2:72:90:
         c3:0f:26:02:0a:bb:89:0a:e5:b9:76:2b:fc:8e:5c:d2:57:25:
         d4:d6:85:06
-----BEGIN CERTIFICATE-----
MIIDVjCCAj6gAwIBAgIQIPD6puvNP55kzhBIMyxqLjANBgkqhkiG9w0BAQsFADAU
MRIwEAYDVQQDDAl0ZWFtNC1uZXQwHhcNMjIwODA0MTIyNzQ3WhcNMjUwNzE5MTIy
NzQ3WjAXMRUwEwYDVQQDDAx0ZWFtNC1jbGllbnQwggEiMA0GCSqGSIb3DQEBAQUA
A4IBDwAwggEKAoIBAQD0QMsvJSqfwg2Jc1KbTicp1MSr1oAXtEJGDWAZuvJ6OtRf
VXnCef6VfNzAbtZSyxRMB3HTNWBBSntwu0MAGhk7LuiiVKCSmbAYDYVEEWxbuMei
HHZ7mUC9J/LtBWODrVEgHP82HcHtBO+zMw0NWh9IApwfyr+uOEK3AcXa5C/ua1Jl
xSJz/SUS0xKSPZ0cq97dI0xhlDGWujsMeu9f0ftYF4CFbJrOz6W6V3HssXgiqkws
vAJbqauhMZgdvSBMWDA9/3bDGUCvFuzQRAi9CTeiBUTpgQcHPbMmvXKQulXFSeff
e+pI+K7lJiIuSF0qzMjpHzHFD889GLdKa1SbcLtzAgMBAAGjgaAwgZ0wCQYDVR0T
BAIwADAdBgNVHQ4EFgQU8D4fN213Ox2phClNX0KjqDdpxe0wTwYDVR0jBEgwRoAU
v5qmIDS0ccLPrWOnEGyvEqaQ0WqhGKQWMBQxEjAQBgNVBAMMCXRlYW00LW5ldIIU
GbvKZSrPBdkDGoy1CiMqTgshAgAwEwYDVR0lBAwwCgYIKwYBBQUHAwIwCwYDVR0P
BAQDAgeAMA0GCSqGSIb3DQEBCwUAA4IBAQBYeugRY858EH0d18cxo45l00O9spQ4
QFeD5YevZkQVVKh4zRskg/WQn+byBAsPICOSaSeasUa2OfalA2ZSeG7NnI1PweN5
2wDM1nVmAibhCfcM6FCZ2jNowtvb/xP0opXQQcJbilcFWZK0uK3an7iio1JwvR5x
MRqp6usrBHHx1QlFTxpbITsWGBd2ksMf9REJJ2Yu/s/XGBrLjZLaNkd1qxJfGO9E
SWUgX4gNHUE3J1vB3Ciob6xvomYcsmIHA1Bto0NYf7i99+/g//Ot3mzZZ8OIJ5te
BAidcRnrqywB797friRUuEPycpDDDyYCCruJCuW5div8jlzSVyXU1oUG
-----END CERTIFICATE-----
