Certificate:
    Data:
        Version: 3 (0x2)
        Serial Number:
            41:9d:08:e8:85:66:72:61:65:8c:ce:32:7f:21:54:94
        Signature Algorithm: sha256WithRSAEncryption
        Issuer: CN=team4-net
        Validity
            Not Before: Aug  4 12:27:47 2022 GMT
            Not After : Jul 19 12:27:47 2025 GMT
        Subject: CN=team4-server
        Subject Public Key Info:
            Public Key Algorithm: rsaEncryption
                RSA Public-Key: (2048 bit)
                Modulus:
                    00:ae:a3:cd:9f:43:ea:18:af:11:89:31:17:b8:dc:
                    9c:e3:6d:6b:92:41:47:54:c3:0f:43:4a:34:bc:0c:
                    0c:97:fa:4a:b9:9c:51:28:28:46:b1:89:8c:ad:9b:
                    77:86:2a:6a:97:2e:d3:b3:07:ad:a3:6e:c0:c0:c9:
                    2b:f3:71:e7:3d:e1:2a:d6:c1:b9:55:ec:f1:5d:d1:
                    20:99:c2:35:3a:b1:3b:ba:8a:6f:34:c9:35:ed:b1:
                    99:26:f7:ec:4e:8c:42:c0:db:0e:6a:81:67:c6:1a:
                    ee:e7:94:74:04:ff:b3:74:00:98:3f:1a:29:81:89:
                    9b:a0:0b:80:e0:5a:1f:c4:f0:06:ed:52:6e:57:25:
                    aa:c5:7a:ec:94:f5:1d:9e:9d:6a:6d:af:2c:b6:73:
                    01:fa:36:34:1a:15:19:a6:d9:8d:20:50:a0:b2:31:
                    03:fc:3f:1e:1b:2e:94:51:17:95:3e:63:b2:38:13:
                    88:ec:37:28:b1:68:86:6a:87:f7:16:c0:05:ea:0c:
                    52:02:0a:4f:a4:9c:f5:bb:48:3a:dd:66:54:71:4f:
                    72:95:30:a5:6a:10:23:b1:ee:f6:98:13:29:95:38:
                    d9:b8:c1:84:b7:50:bc:32:6c:4b:9a:58:18:10:80:
                    62:45:86:53:3b:db:5a:98:00:04:2d:38:15:ab:a1:
                    1e:27
                Exponent: 65537 (0x10001)
        X509v3 extensions:
            X509v3 Basic Constraints: 
                CA:FALSE
            X509v3 Subject Key Identifier: 
                D5:67:56:25:B8:32:3B:53:4B:4A:FB:6D:9A:B6:45:87:2A:3E:BA:B1
            X509v3 Authority Key Identifier: 
                keyid:BF:9A:A6:20:34:B4:71:C2:CF:AD:63:A7:10:6C:AF:12:A6:90:D1:6A
                DirName:/CN=team4-net
                serial:19:BB:CA:65:2A:CF:05:D9:03:1A:8C:B5:0A:23:2A:4E:0B:21:02:00

            X509v3 Extended Key Usage: 
                TLS Web Server Authentication
            X509v3 Key Usage: 
                Digital Signature, Key Encipherment
            X509v3 Subject Alternative Name: 
                DNS:team4-server
    Signature Algorithm: sha256WithRSAEncryption
         63:71:73:ea:bf:11:06:25:24:06:84:f8:52:f3:28:90:e5:f3:
         74:ba:a3:ae:99:7a:6e:8c:76:98:9a:75:fa:a4:1a:e7:69:d0:
         09:df:06:fe:4e:a5:fa:ba:26:ae:60:38:df:f8:e8:d3:3e:dd:
         7d:0b:4a:ba:dc:d2:49:c4:1d:6a:65:db:c4:9c:89:6e:24:4a:
         e5:4d:df:f0:c5:72:a5:6a:3e:57:47:fa:f4:5d:9e:19:04:53:
         44:2f:b9:63:1c:42:a2:be:a0:cc:ba:e3:c9:ab:1c:3d:92:48:
         46:46:d3:2c:8a:81:79:75:ea:b7:6d:1e:84:f9:bd:d8:8e:30:
         54:3d:17:ec:2f:1a:ca:a6:8f:fe:fe:11:09:fa:51:b6:dd:c0:
         97:f6:57:cf:2f:b9:c9:17:18:ca:8d:ce:90:4b:f6:70:02:4e:
         b0:c7:64:bf:5d:29:a2:5b:db:7d:19:93:c4:d8:69:5e:4a:70:
         be:6b:82:e7:64:b1:c9:0f:a6:68:68:58:9c:10:7e:52:ab:0f:
         fe:96:2e:7d:5b:55:ae:a3:2f:40:1e:d2:1f:84:89:cd:da:65:
         62:77:30:aa:c1:9b:0f:d4:54:eb:3e:6e:75:5a:4e:d2:8a:4c:
         d3:4e:ec:49:64:b3:90:aa:a6:cb:a0:a5:ed:18:45:29:c7:79:
         0b:44:cc:9c
-----BEGIN CERTIFICATE-----
MIIDbzCCAlegAwIBAgIQQZ0I6IVmcmFljM4yfyFUlDANBgkqhkiG9w0BAQsFADAU
MRIwEAYDVQQDDAl0ZWFtNC1uZXQwHhcNMjIwODA0MTIyNzQ3WhcNMjUwNzE5MTIy
NzQ3WjAXMRUwEwYDVQQDDAx0ZWFtNC1zZXJ2ZXIwggEiMA0GCSqGSIb3DQEBAQUA
A4IBDwAwggEKAoIBAQCuo82fQ+oYrxGJMRe43JzjbWuSQUdUww9DSjS8DAyX+kq5
nFEoKEaxiYytm3eGKmqXLtOzB62jbsDAySvzcec94SrWwblV7PFd0SCZwjU6sTu6
im80yTXtsZkm9+xOjELA2w5qgWfGGu7nlHQE/7N0AJg/GimBiZugC4DgWh/E8Abt
Um5XJarFeuyU9R2enWptryy2cwH6NjQaFRmm2Y0gUKCyMQP8Px4bLpRRF5U+Y7I4
E4jsNyixaIZqh/cWwAXqDFICCk+knPW7SDrdZlRxT3KVMKVqECOx7vaYEymVONm4
wYS3ULwybEuaWBgQgGJFhlM721qYAAQtOBWroR4nAgMBAAGjgbkwgbYwCQYDVR0T
BAIwADAdBgNVHQ4EFgQU1WdWJbgyO1NLSvttmrZFhyo+urEwTwYDVR0jBEgwRoAU
v5qmIDS0ccLPrWOnEGyvEqaQ0WqhGKQWMBQxEjAQBgNVBAMMCXRlYW00LW5ldIIU
GbvKZSrPBdkDGoy1CiMqTgshAgAwEwYDVR0lBAwwCgYIKwYBBQUHAwEwCwYDVR0P
BAQDAgWgMBcGA1UdEQQQMA6CDHRlYW00LXNlcnZlcjANBgkqhkiG9w0BAQsFAAOC
AQEAY3Fz6r8RBiUkBoT4UvMokOXzdLqjrpl6box2mJp1+qQa52nQCd8G/k6l+rom
rmA43/jo0z7dfQtKutzSScQdamXbxJyJbiRK5U3f8MVypWo+V0f69F2eGQRTRC+5
YxxCor6gzLrjyascPZJIRkbTLIqBeXXqt20ehPm92I4wVD0X7C8ayqaP/v4RCfpR
tt3Al/ZXzy+5yRcYyo3OkEv2cAJOsMdkv10polvbfRmTxNhpXkpwvmuC52SxyQ+m
aGhYnBB+UqsP/pYufVtVrqMvQB7SH4SJzdplYncwqsGbD9RU6z5udVpO0opM007s
SWSzkKqmy6Cl7RhFKcd5C0TMnA==
-----END CERTIFICATE-----
