Certificate:
    Data:
        Version: 3 (0x2)
        Serial Number:
            a9:06:69:f4:83:b0:ec:36:13:bb:ec:a6:71:25:c9:9d
        Signature Algorithm: sha256WithRSAEncryption
        Issuer: CN=team4-net
        Validity
            Not Before: Aug  9 00:11:27 2022 GMT
            Not After : Jul 24 00:11:27 2025 GMT
        Subject: CN=team4-server
        Subject Public Key Info:
            Public Key Algorithm: rsaEncryption
                RSA Public-Key: (2048 bit)
                Modulus:
                    00:c4:2d:1c:cd:e8:88:3d:20:b6:1f:f6:ed:04:a3:
                    41:08:68:a3:7a:db:26:57:0f:0f:64:20:07:ff:6e:
                    26:61:6e:3c:bf:f2:e2:0f:9f:e5:84:f0:4a:7b:44:
                    93:b0:de:18:b1:f2:47:86:80:be:7d:55:42:e3:0f:
                    33:01:21:cb:8e:e6:06:87:63:3d:d9:dc:36:8b:c7:
                    df:93:b8:c0:80:65:f5:1a:75:0f:24:a3:02:73:f4:
                    d0:d1:69:f5:42:b4:3e:e1:d6:97:76:5a:f0:b7:33:
                    a0:01:04:2b:11:85:e2:c1:e9:a7:3d:d0:06:c9:a2:
                    19:18:84:15:4d:c1:80:ac:2f:84:59:a1:dd:60:87:
                    20:d4:c4:8b:1d:16:f5:3b:e8:15:c7:69:5f:b2:09:
                    8d:78:9a:0a:8b:31:cc:8b:a9:c6:d6:0c:e5:0f:ea:
                    bb:5e:47:8a:72:04:e6:29:61:a0:2f:7a:15:10:95:
                    e6:55:bd:78:bc:10:55:d8:48:3f:f9:b5:01:b5:32:
                    d9:6a:51:09:12:fc:bf:7a:7a:4a:1d:8b:a3:e4:7c:
                    0e:03:ee:13:03:dc:23:cf:ca:c6:48:6a:1a:b4:57:
                    da:44:38:96:c6:54:be:a5:3f:ca:4a:19:d5:eb:19:
                    98:10:ee:f7:18:39:3d:f8:a9:5c:dc:d3:33:68:2c:
                    8c:c9
                Exponent: 65537 (0x10001)
        X509v3 extensions:
            X509v3 Basic Constraints: 
                CA:FALSE
            X509v3 Subject Key Identifier: 
                5F:42:3D:E5:AD:89:68:FB:25:EF:92:BE:A5:F2:EC:53:17:E2:C3:53
            X509v3 Authority Key Identifier: 
                keyid:16:58:BF:67:16:67:58:77:55:63:10:35:A9:F4:E9:B6:90:6D:AB:75
                DirName:/CN=team4-net
                serial:21:33:22:FA:02:82:EA:A3:A0:7E:BB:FC:8D:1D:4B:F8:0B:75:F2:6A

            X509v3 Extended Key Usage: 
                TLS Web Server Authentication
            X509v3 Key Usage: 
                Digital Signature, Key Encipherment
            X509v3 Subject Alternative Name: 
                DNS:team4-server
    Signature Algorithm: sha256WithRSAEncryption
         9f:c5:52:b5:a2:03:5d:61:67:28:ca:83:83:fc:eb:d1:f9:11:
         c8:8d:a5:62:0b:07:c6:74:27:4a:07:4f:0d:da:89:f2:14:89:
         d0:75:bd:9a:9f:68:a6:fd:35:e1:2f:2f:04:b3:2a:18:1e:c5:
         bd:0c:e6:a2:f8:dd:a0:83:c8:22:09:01:30:4d:cd:eb:18:71:
         7a:7e:f2:b7:98:7e:c3:b3:4f:d0:66:7b:b6:4c:e2:44:19:98:
         ef:32:41:87:cf:37:ec:4a:85:16:8d:c3:d4:de:6a:b3:2c:f3:
         ee:07:b8:02:72:ba:00:d6:ee:e5:5e:65:b5:e4:e8:d4:94:df:
         3b:af:b1:71:dd:3e:ae:bf:93:b8:6a:82:4b:0c:f9:2b:f6:7e:
         03:59:dd:7a:cf:2d:85:78:18:f8:d9:db:c2:6b:07:66:88:b7:
         21:51:9f:61:94:b9:b4:e9:f3:c9:5d:84:26:c0:ad:88:1f:f5:
         d6:3e:3d:f7:41:f1:4e:b6:7d:97:0c:d9:69:5d:4e:2b:1e:6d:
         27:de:82:18:6e:d7:57:25:98:26:f6:38:f1:93:db:9c:3e:5a:
         9f:19:ae:49:b5:23:01:02:f4:ac:7e:5c:96:9d:bb:be:db:06:
         47:63:2b:b5:48:8f:34:09:98:e9:58:c6:4e:70:b4:04:45:73:
         b0:45:93:9c
-----BEGIN CERTIFICATE-----
MIIDcDCCAligAwIBAgIRAKkGafSDsOw2E7vspnElyZ0wDQYJKoZIhvcNAQELBQAw
FDESMBAGA1UEAwwJdGVhbTQtbmV0MB4XDTIyMDgwOTAwMTEyN1oXDTI1MDcyNDAw
MTEyN1owFzEVMBMGA1UEAwwMdGVhbTQtc2VydmVyMIIBIjANBgkqhkiG9w0BAQEF
AAOCAQ8AMIIBCgKCAQEAxC0czeiIPSC2H/btBKNBCGijetsmVw8PZCAH/24mYW48
v/LiD5/lhPBKe0STsN4YsfJHhoC+fVVC4w8zASHLjuYGh2M92dw2i8ffk7jAgGX1
GnUPJKMCc/TQ0Wn1QrQ+4daXdlrwtzOgAQQrEYXiwemnPdAGyaIZGIQVTcGArC+E
WaHdYIcg1MSLHRb1O+gVx2lfsgmNeJoKizHMi6nG1gzlD+q7XkeKcgTmKWGgL3oV
EJXmVb14vBBV2Eg/+bUBtTLZalEJEvy/enpKHYuj5HwOA+4TA9wjz8rGSGoatFfa
RDiWxlS+pT/KShnV6xmYEO73GDk9+Klc3NMzaCyMyQIDAQABo4G5MIG2MAkGA1Ud
EwQCMAAwHQYDVR0OBBYEFF9CPeWtiWj7Je+SvqXy7FMX4sNTME8GA1UdIwRIMEaA
FBZYv2cWZ1h3VWMQNan06baQbat1oRikFjAUMRIwEAYDVQQDDAl0ZWFtNC1uZXSC
FCEzIvoCguqjoH67/I0dS/gLdfJqMBMGA1UdJQQMMAoGCCsGAQUFBwMBMAsGA1Ud
DwQEAwIFoDAXBgNVHREEEDAOggx0ZWFtNC1zZXJ2ZXIwDQYJKoZIhvcNAQELBQAD
ggEBAJ/FUrWiA11hZyjKg4P869H5EciNpWILB8Z0J0oHTw3aifIUidB1vZqfaKb9
NeEvLwSzKhgexb0M5qL43aCDyCIJATBNzesYcXp+8reYfsOzT9Bme7ZM4kQZmO8y
QYfPN+xKhRaNw9TearMs8+4HuAJyugDW7uVeZbXk6NSU3zuvsXHdPq6/k7hqgksM
+Sv2fgNZ3XrPLYV4GPjZ28JrB2aItyFRn2GUubTp88ldhCbArYgf9dY+PfdB8U62
fZcM2WldTisebSfeghhu11clmCb2OPGT25w+Wp8Zrkm1IwEC9Kx+XJadu77bBkdj
K7VIjzQJmOlYxk5wtARFc7BFk5w=
-----END CERTIFICATE-----
