Certificate:
    Data:
        Version: 3 (0x2)
        Serial Number:
            06:7b:ba:55:cb:3c:8c:28:3a:51:ad:eb:40:06:b3:16
        Signature Algorithm: sha256WithRSAEncryption
        Issuer: CN=team3-net
        Validity
            Not Before: Aug  9 18:52:27 2022 GMT
            Not After : Jul 24 18:52:27 2025 GMT
        Subject: CN=team3-server
        Subject Public Key Info:
            Public Key Algorithm: rsaEncryption
                RSA Public-Key: (2048 bit)
                Modulus:
                    00:f3:15:40:7f:42:ee:0f:97:00:fe:97:0f:6f:a2:
                    c3:4f:a1:32:2e:32:d2:b1:f6:75:62:9f:d9:9b:2c:
                    3c:74:e2:42:a7:7f:ae:db:a1:4a:76:fd:a3:18:3b:
                    14:ed:d7:de:7c:85:54:bf:f6:9e:09:d9:ce:b4:83:
                    e8:32:4c:1b:ef:04:2b:de:e2:0f:bc:6f:af:01:86:
                    e4:e8:a4:22:52:41:a3:8a:55:ad:d8:73:9e:4b:4c:
                    48:51:ad:e5:00:1c:1c:59:27:e7:74:83:14:ad:48:
                    55:fc:f9:87:81:fc:5d:04:23:0f:d9:b2:aa:c8:64:
                    40:79:2d:a6:88:71:da:12:2e:d5:bc:72:a5:41:1d:
                    d1:e4:9f:82:e9:b9:5e:63:62:e5:fe:77:4f:fc:8a:
                    e1:c9:5c:6f:88:f1:3f:cb:3d:1c:68:36:05:56:5d:
                    36:89:5e:26:22:01:85:65:d3:6f:f5:25:02:46:79:
                    17:1a:6e:97:2a:c3:e9:6f:20:4f:3b:c7:97:7a:bc:
                    78:3e:88:85:e3:a5:94:9c:71:3d:a2:fc:a1:7d:bf:
                    11:cd:c2:db:98:cb:13:09:89:69:b6:eb:fc:91:7f:
                    30:58:64:fb:a3:22:b2:04:19:e9:44:27:e5:70:c5:
                    52:43:68:ad:18:4a:0a:b2:b4:89:55:fa:fb:ef:cc:
                    9c:b1
                Exponent: 65537 (0x10001)
        X509v3 extensions:
            X509v3 Basic Constraints: 
                CA:FALSE
            X509v3 Subject Key Identifier: 
                5B:B5:48:C6:DA:6D:D6:9E:02:E5:F3:6E:68:09:73:06:39:20:29:4F
            X509v3 Authority Key Identifier: 
                keyid:F5:E5:18:62:CB:24:1A:6E:20:C4:09:85:7A:D1:9F:F1:C6:46:6C:03
                DirName:/CN=team3-net
                serial:7F:42:AF:5D:A0:8A:66:07:67:B4:76:21:90:A7:DF:58:F3:94:8F:49

            X509v3 Extended Key Usage: 
                TLS Web Server Authentication
            X509v3 Key Usage: 
                Digital Signature, Key Encipherment
            X509v3 Subject Alternative Name: 
                DNS:team3-server
    Signature Algorithm: sha256WithRSAEncryption
         01:45:6c:f5:7d:45:74:84:ba:8f:7d:27:ab:55:d9:4e:69:aa:
         bf:e2:d2:6c:e6:ab:ea:99:48:44:d4:ca:2f:5c:0b:5a:fc:e9:
         d7:67:f0:51:18:15:a4:51:0e:8a:5a:a6:73:5f:f5:6f:0f:35:
         c1:a8:52:24:84:02:2a:47:4f:3f:fd:47:82:b0:fe:fb:c9:45:
         8e:e9:58:eb:9c:98:c0:d1:b1:4c:80:6e:92:e3:fc:11:ea:d8:
         91:1e:e3:b5:53:c4:5a:fd:2a:52:94:75:17:7a:0a:fe:ae:54:
         9a:66:68:d8:ac:3f:ba:a9:27:bc:e2:2e:ce:ca:dd:79:5d:9b:
         67:c2:fc:9c:83:b9:e1:b2:bb:05:81:e9:4e:17:04:33:f4:b5:
         e4:11:59:44:e3:27:2d:da:ee:4a:f6:3f:3c:68:38:15:66:e0:
         5c:90:4a:eb:ff:8a:87:23:03:d3:ac:97:58:8a:87:c5:45:2c:
         6e:c9:68:8d:1b:23:21:6f:b4:a1:42:d7:1c:63:71:ab:fd:24:
         25:e2:e9:07:33:61:84:14:aa:5c:38:bb:f8:d2:9f:b5:27:cf:
         3f:d9:d8:8d:43:a0:63:f4:44:cd:05:90:e4:21:98:e3:05:87:
         19:ad:b1:3b:d9:e1:d7:57:2b:85:a7:2f:7a:86:75:b3:5f:c7:
         3c:2b:78:13
-----BEGIN CERTIFICATE-----
MIIDbzCCAlegAwIBAgIQBnu6Vcs8jCg6Ua3rQAazFjANBgkqhkiG9w0BAQsFADAU
MRIwEAYDVQQDDAl0ZWFtMy1uZXQwHhcNMjIwODA5MTg1MjI3WhcNMjUwNzI0MTg1
MjI3WjAXMRUwEwYDVQQDDAx0ZWFtMy1zZXJ2ZXIwggEiMA0GCSqGSIb3DQEBAQUA
A4IBDwAwggEKAoIBAQDzFUB/Qu4PlwD+lw9vosNPoTIuMtKx9nVin9mbLDx04kKn
f67boUp2/aMYOxTt1958hVS/9p4J2c60g+gyTBvvBCve4g+8b68BhuTopCJSQaOK
Va3Yc55LTEhRreUAHBxZJ+d0gxStSFX8+YeB/F0EIw/ZsqrIZEB5LaaIcdoSLtW8
cqVBHdHkn4LpuV5jYuX+d0/8iuHJXG+I8T/LPRxoNgVWXTaJXiYiAYVl02/1JQJG
eRcabpcqw+lvIE87x5d6vHg+iIXjpZSccT2i/KF9vxHNwtuYyxMJiWm26/yRfzBY
ZPujIrIEGelEJ+VwxVJDaK0YSgqytIlV+vvvzJyxAgMBAAGjgbkwgbYwCQYDVR0T
BAIwADAdBgNVHQ4EFgQUW7VIxtpt1p4C5fNuaAlzBjkgKU8wTwYDVR0jBEgwRoAU
9eUYYsskGm4gxAmFetGf8cZGbAOhGKQWMBQxEjAQBgNVBAMMCXRlYW0zLW5ldIIU
f0KvXaCKZgdntHYhkKffWPOUj0kwEwYDVR0lBAwwCgYIKwYBBQUHAwEwCwYDVR0P
BAQDAgWgMBcGA1UdEQQQMA6CDHRlYW0zLXNlcnZlcjANBgkqhkiG9w0BAQsFAAOC
AQEAAUVs9X1FdIS6j30nq1XZTmmqv+LSbOar6plIRNTKL1wLWvzp12fwURgVpFEO
ilqmc1/1bw81wahSJIQCKkdPP/1HgrD++8lFjulY65yYwNGxTIBukuP8EerYkR7j
tVPEWv0qUpR1F3oK/q5UmmZo2Kw/uqknvOIuzsrdeV2bZ8L8nIO54bK7BYHpThcE
M/S15BFZROMnLdruSvY/PGg4FWbgXJBK6/+KhyMD06yXWIqHxUUsbslojRsjIW+0
oULXHGNxq/0kJeLpBzNhhBSqXDi7+NKftSfPP9nYjUOgY/REzQWQ5CGY4wWHGa2x
O9nh11crhacveoZ1s1/HPCt4Ew==
-----END CERTIFICATE-----
