Certificate:
    Data:
        Version: 3 (0x2)
        Serial Number:
            56:80:40:3e:cd:e1:63:8c:0c:72:cc:ab:0e:b2:25:5c
        Signature Algorithm: sha256WithRSAEncryption
        Issuer: CN=team3-net
        Validity
            Not Before: Aug  9 00:11:27 2022 GMT
            Not After : Jul 24 00:11:27 2025 GMT
        Subject: CN=team3-server
        Subject Public Key Info:
            Public Key Algorithm: rsaEncryption
                RSA Public-Key: (2048 bit)
                Modulus:
                    00:99:7d:62:ef:a4:a7:3d:e7:32:83:5c:1c:6c:f6:
                    24:ff:93:1e:e3:c3:cb:86:ac:ef:d8:e4:60:77:3b:
                    7f:1b:1a:07:a9:0b:4d:44:6f:37:67:44:89:1d:a7:
                    a8:f8:92:d9:38:2c:ed:58:4c:b4:92:78:2a:45:08:
                    ae:92:58:cd:cc:4c:1e:cd:bb:13:61:bb:21:6d:4f:
                    df:eb:fa:41:f4:3a:45:e4:c2:68:8a:5e:88:3e:69:
                    1f:77:aa:75:4a:e9:35:4d:f7:01:7f:01:17:55:f4:
                    8e:2a:05:af:0a:15:db:8c:c5:64:c2:9d:ec:35:3b:
                    5d:cb:41:85:9d:5e:bd:d8:38:35:f2:04:34:df:cf:
                    74:60:17:2b:8e:e0:ec:0d:00:c3:56:1f:69:ca:0f:
                    2b:d3:5e:ab:af:57:79:e8:93:f6:96:16:00:4f:05:
                    0b:bf:44:bb:7e:2c:28:49:c4:02:f1:0d:c0:21:43:
                    a7:a2:1e:b0:6f:f0:78:b5:0a:6c:d0:c4:dd:48:c6:
                    06:0a:59:0e:38:ad:75:f6:b9:02:fb:11:c0:90:bb:
                    80:00:5d:7f:b1:49:b6:72:d6:32:c8:42:95:13:a9:
                    5e:7d:82:1f:53:fd:13:c8:2d:20:a8:70:5b:bd:da:
                    da:a5:26:0f:85:93:7b:2d:49:c2:17:e1:d9:4a:6d:
                    8f:2b
                Exponent: 65537 (0x10001)
        X509v3 extensions:
            X509v3 Basic Constraints: 
                CA:FALSE
            X509v3 Subject Key Identifier: 
                7B:F5:0B:21:7C:3D:BC:C8:41:8C:65:A8:15:10:51:8E:9E:2A:F3:FE
            X509v3 Authority Key Identifier: 
                keyid:AD:1E:69:87:94:79:FB:5D:BC:49:A2:D6:9C:44:70:D5:9F:A8:5F:5D
                DirName:/CN=team3-net
                serial:65:85:0F:5D:36:FE:4E:C8:17:6B:10:FB:96:B8:A0:70:37:77:8E:DD

            X509v3 Extended Key Usage: 
                TLS Web Server Authentication
            X509v3 Key Usage: 
                Digital Signature, Key Encipherment
            X509v3 Subject Alternative Name: 
                DNS:team3-server
    Signature Algorithm: sha256WithRSAEncryption
         2e:f3:7d:91:f8:a3:41:ab:17:47:52:1b:8f:84:d6:b5:1e:cb:
         2b:e0:d3:33:ef:91:94:cc:5d:50:f2:65:92:71:00:68:97:a9:
         5e:a1:cd:58:d5:58:d3:d7:18:37:02:0e:9a:82:b0:de:44:2d:
         11:95:d1:de:3c:ce:aa:e4:ec:df:f6:61:32:91:0d:0b:3d:66:
         19:c9:8c:19:fe:e0:ab:7a:37:5d:d0:de:69:2c:47:61:4e:12:
         6c:be:3c:58:19:19:5f:46:3d:8f:74:fa:ba:d7:fa:3a:1d:8d:
         92:0a:73:8e:06:3d:f2:98:6e:1c:e0:f7:63:ca:87:e7:4e:c7:
         b4:03:a4:14:2f:43:34:5b:d2:5a:5d:28:54:4d:a7:58:74:32:
         fd:e3:e1:2e:c3:af:d6:18:5d:55:2a:a8:c5:7e:7e:e6:cd:5d:
         25:3e:8b:5f:13:e9:fb:14:85:ca:71:e2:d8:69:4d:24:88:43:
         01:1a:16:97:27:b5:1b:51:7b:85:ac:83:dc:39:c2:13:63:af:
         5b:e4:5e:9d:4f:d3:68:01:b1:f9:61:24:23:3a:b1:4a:7b:02:
         cd:e1:b3:ae:64:f2:e6:f9:bc:d7:3d:af:9a:cb:6d:c0:6c:67:
         0c:c0:e3:9a:dc:3f:10:20:d5:14:95:24:3b:39:cd:ee:01:c3:
         c5:ad:c9:eb
-----BEGIN CERTIFICATE-----
MIIDbzCCAlegAwIBAgIQVoBAPs3hY4wMcsyrDrIlXDANBgkqhkiG9w0BAQsFADAU
MRIwEAYDVQQDDAl0ZWFtMy1uZXQwHhcNMjIwODA5MDAxMTI3WhcNMjUwNzI0MDAx
MTI3WjAXMRUwEwYDVQQDDAx0ZWFtMy1zZXJ2ZXIwggEiMA0GCSqGSIb3DQEBAQUA
A4IBDwAwggEKAoIBAQCZfWLvpKc95zKDXBxs9iT/kx7jw8uGrO/Y5GB3O38bGgep
C01EbzdnRIkdp6j4ktk4LO1YTLSSeCpFCK6SWM3MTB7NuxNhuyFtT9/r+kH0OkXk
wmiKXog+aR93qnVK6TVN9wF/ARdV9I4qBa8KFduMxWTCnew1O13LQYWdXr3YODXy
BDTfz3RgFyuO4OwNAMNWH2nKDyvTXquvV3nok/aWFgBPBQu/RLt+LChJxALxDcAh
Q6eiHrBv8Hi1CmzQxN1IxgYKWQ44rXX2uQL7EcCQu4AAXX+xSbZy1jLIQpUTqV59
gh9T/RPILSCocFu92tqlJg+Fk3stScIX4dlKbY8rAgMBAAGjgbkwgbYwCQYDVR0T
BAIwADAdBgNVHQ4EFgQUe/ULIXw9vMhBjGWoFRBRjp4q8/4wTwYDVR0jBEgwRoAU
rR5ph5R5+128SaLWnERw1Z+oX12hGKQWMBQxEjAQBgNVBAMMCXRlYW0zLW5ldIIU
ZYUPXTb+TsgXaxD7lrigcDd3jt0wEwYDVR0lBAwwCgYIKwYBBQUHAwEwCwYDVR0P
BAQDAgWgMBcGA1UdEQQQMA6CDHRlYW0zLXNlcnZlcjANBgkqhkiG9w0BAQsFAAOC
AQEALvN9kfijQasXR1Ibj4TWtR7LK+DTM++RlMxdUPJlknEAaJepXqHNWNVY09cY
NwIOmoKw3kQtEZXR3jzOquTs3/ZhMpENCz1mGcmMGf7gq3o3XdDeaSxHYU4SbL48
WBkZX0Y9j3T6utf6Oh2NkgpzjgY98phuHOD3Y8qH507HtAOkFC9DNFvSWl0oVE2n
WHQy/ePhLsOv1hhdVSqoxX5+5s1dJT6LXxPp+xSFynHi2GlNJIhDARoWlye1G1F7
hayD3DnCE2OvW+RenU/TaAGx+WEkIzqxSnsCzeGzrmTy5vm81z2vmsttwGxnDMDj
mtw/ECDVFJUkOznN7gHDxa3J6w==
-----END CERTIFICATE-----
