Certificate:
    Data:
        Version: 3 (0x2)
        Serial Number:
            f8:71:fa:9c:b9:46:8f:13:cc:49:d3:dd:32:a4:8a:a8
        Signature Algorithm: sha256WithRSAEncryption
        Issuer: CN=team3-net
        Validity
            Not Before: Aug  9 00:11:27 2022 GMT
            Not After : Jul 24 00:11:27 2025 GMT
        Subject: CN=team3-client
        Subject Public Key Info:
            Public Key Algorithm: rsaEncryption
                RSA Public-Key: (2048 bit)
                Modulus:
                    00:b3:2d:d8:c8:4d:19:db:bc:9d:37:b1:98:5b:05:
                    b1:90:94:3b:0b:bc:10:e6:fe:d0:e0:81:6a:ac:6c:
                    85:45:5e:cd:cb:7b:df:82:87:1e:16:05:cb:e7:37:
                    22:69:38:e1:e2:30:eb:4a:37:ae:96:6e:30:23:92:
                    92:9c:9d:01:c6:1b:3c:ef:c5:c7:83:b4:d9:3b:d2:
                    23:13:ce:75:b2:43:7a:de:e6:b3:c4:13:34:cb:d0:
                    bf:97:a7:32:ec:26:fd:4d:cd:e6:e2:f5:98:68:90:
                    fb:b7:dd:b1:77:22:f4:a8:36:12:03:36:87:03:ab:
                    73:17:77:0e:3e:50:ca:57:8a:fb:0e:c7:53:f0:d3:
                    bf:4f:af:11:cd:3e:26:f7:e7:58:01:6a:ad:0f:a8:
                    84:3b:4f:93:14:0e:99:90:6d:36:c3:71:be:e0:17:
                    db:81:1e:97:11:1b:56:ac:94:bc:0d:9f:b3:1b:65:
                    f7:f5:13:60:e6:86:98:0a:9e:67:f9:aa:a6:23:8f:
                    24:ae:4f:86:a9:ed:93:0e:42:3a:d1:56:6f:98:b7:
                    7f:ab:cd:75:c3:25:19:a3:34:cc:5c:2b:41:b3:20:
                    da:20:f7:8b:f5:71:29:0a:ef:58:8a:cf:01:de:ec:
                    69:65:70:1c:e5:4d:1b:b0:0d:dd:d3:d9:25:0b:29:
                    1a:7f
                Exponent: 65537 (0x10001)
        X509v3 extensions:
            X509v3 Basic Constraints: 
                CA:FALSE
            X509v3 Subject Key Identifier: 
                61:F9:B0:76:C3:FD:67:DA:B1:90:85:37:4C:CA:61:E4:CB:BA:0D:20
            X509v3 Authority Key Identifier: 
                keyid:AD:1E:69:87:94:79:FB:5D:BC:49:A2:D6:9C:44:70:D5:9F:A8:5F:5D
                DirName:/CN=team3-net
                serial:65:85:0F:5D:36:FE:4E:C8:17:6B:10:FB:96:B8:A0:70:37:77:8E:DD

            X509v3 Extended Key Usage: 
                TLS Web Client Authentication
            X509v3 Key Usage: 
                Digital Signature
    Signature Algorithm: sha256WithRSAEncryption
         1b:37:62:57:b9:1f:3e:18:bc:0a:bb:73:33:6f:18:da:9b:55:
         e7:06:80:43:fa:e1:55:95:2b:ba:a2:b3:de:e9:9c:4d:e7:54:
         dc:76:fa:96:29:8a:5d:5a:6d:b0:87:e4:8d:57:60:55:c3:ab:
         ce:d0:f0:61:16:79:e6:83:68:9e:55:1e:c0:7a:8b:aa:94:d6:
         4c:3a:98:db:be:fa:df:be:94:d0:d5:04:23:9f:c0:7d:cd:49:
         1a:d2:bd:7f:c4:37:0d:18:27:6d:ba:94:a5:c3:a7:68:8f:40:
         53:92:d4:ea:7d:41:13:01:3f:88:9f:28:7b:71:fa:c2:e1:54:
         42:b9:a0:10:40:29:e5:74:3f:32:41:4a:fe:57:14:cd:8f:3c:
         55:43:4e:6e:e0:e8:de:76:af:ea:5b:82:01:3b:44:ad:d7:34:
         67:d6:31:be:a3:0a:a4:63:cf:8c:0f:10:bb:cd:86:89:65:1b:
         c7:ee:a7:df:41:a0:8a:7a:bd:50:ec:de:ac:c8:0a:31:b5:da:
         fa:45:ce:1d:bf:5f:a8:88:4d:8b:52:be:96:d9:de:8d:a9:10:
         d1:58:60:2a:1b:ef:21:68:09:47:18:bc:88:e7:8f:dd:c6:2b:
         8d:68:e8:c0:de:33:2a:54:43:e6:e0:a5:db:eb:1b:ae:cb:08:
         d1:49:a0:18
-----BEGIN CERTIFICATE-----
MIIDVzCCAj+gAwIBAgIRAPhx+py5Ro8TzEnT3TKkiqgwDQYJKoZIhvcNAQELBQAw
FDESMBAGA1UEAwwJdGVhbTMtbmV0MB4XDTIyMDgwOTAwMTEyN1oXDTI1MDcyNDAw
MTEyN1owFzEVMBMGA1UEAwwMdGVhbTMtY2xpZW50MIIBIjANBgkqhkiG9w0BAQEF
AAOCAQ8AMIIBCgKCAQEAsy3YyE0Z27ydN7GYWwWxkJQ7C7wQ5v7Q4IFqrGyFRV7N
y3vfgoceFgXL5zciaTjh4jDrSjeulm4wI5KSnJ0Bxhs878XHg7TZO9IjE851skN6
3uazxBM0y9C/l6cy7Cb9Tc3m4vWYaJD7t92xdyL0qDYSAzaHA6tzF3cOPlDKV4r7
DsdT8NO/T68RzT4m9+dYAWqtD6iEO0+TFA6ZkG02w3G+4BfbgR6XERtWrJS8DZ+z
G2X39RNg5oaYCp5n+aqmI48krk+Gqe2TDkI60VZvmLd/q811wyUZozTMXCtBsyDa
IPeL9XEpCu9Yis8B3uxpZXAc5U0bsA3d09klCykafwIDAQABo4GgMIGdMAkGA1Ud
EwQCMAAwHQYDVR0OBBYEFGH5sHbD/WfasZCFN0zKYeTLug0gME8GA1UdIwRIMEaA
FK0eaYeUeftdvEmi1pxEcNWfqF9doRikFjAUMRIwEAYDVQQDDAl0ZWFtMy1uZXSC
FGWFD102/k7IF2sQ+5a4oHA3d47dMBMGA1UdJQQMMAoGCCsGAQUFBwMCMAsGA1Ud
DwQEAwIHgDANBgkqhkiG9w0BAQsFAAOCAQEAGzdiV7kfPhi8CrtzM28Y2ptV5waA
Q/rhVZUruqKz3umcTedU3Hb6limKXVptsIfkjVdgVcOrztDwYRZ55oNonlUewHqL
qpTWTDqY2776376U0NUEI5/Afc1JGtK9f8Q3DRgnbbqUpcOnaI9AU5LU6n1BEwE/
iJ8oe3H6wuFUQrmgEEAp5XQ/MkFK/lcUzY88VUNObuDo3nav6luCATtErdc0Z9Yx
vqMKpGPPjA8Qu82GiWUbx+6n30Gginq9UOzerMgKMbXa+kXOHb9fqIhNi1K+ltne
jakQ0VhgKhvvIWgJRxi8iOeP3cYrjWjowN4zKlRD5uCl2+sbrssI0UmgGA==
-----END CERTIFICATE-----
