Certificate:
    Data:
        Version: 3 (0x2)
        Serial Number:
            52:e5:4a:3c:2c:c3:5e:fd:ca:d2:0f:40:f9:b7:fa:00
        Signature Algorithm: sha256WithRSAEncryption
        Issuer: CN=team30-net
        Validity
            Not Before: Aug  9 18:52:47 2022 GMT
            Not After : Jul 24 18:52:47 2025 GMT
        Subject: CN=team30-client
        Subject Public Key Info:
            Public Key Algorithm: rsaEncryption
                RSA Public-Key: (2048 bit)
                Modulus:
                    00:ce:f8:f4:9a:5a:b7:3e:94:3e:b3:33:8c:e6:29:
                    73:b3:75:f2:34:9d:9b:3b:25:ca:18:8a:47:4b:ed:
                    15:b7:41:07:12:d9:27:7a:88:ab:60:a9:1d:84:9e:
                    2e:90:bc:7e:45:37:aa:70:61:d6:b1:a4:16:e8:69:
                    55:a1:09:9d:1f:22:de:be:c3:08:b4:91:17:79:b9:
                    7f:c8:0f:5e:fc:fa:b5:e6:7e:6d:fa:6d:ff:7d:a6:
                    f5:f7:e9:6c:52:ce:0d:a9:cf:99:b8:2e:1f:3a:3d:
                    83:aa:88:7f:6c:5b:95:23:e0:5d:11:9a:57:08:a0:
                    c2:f0:34:20:e7:0d:ee:29:13:24:de:90:01:91:fe:
                    45:5c:d4:f5:00:20:0e:66:9a:55:38:79:b1:6e:26:
                    3c:21:97:23:2c:a5:56:37:dc:81:c0:e2:4a:d5:e3:
                    a9:14:e9:25:43:0a:2e:84:01:d7:2b:79:d7:ea:d7:
                    07:4e:d4:af:3c:21:8c:e3:a2:b6:54:27:d1:77:ec:
                    90:00:b9:b4:62:4f:a3:8e:ee:26:03:89:71:0b:c2:
                    e9:a6:2f:a6:0d:b3:00:a4:69:f5:53:b1:88:bf:b9:
                    3b:04:87:ba:30:e7:0a:78:95:0e:82:31:e9:2e:98:
                    67:d1:0a:6f:68:75:e9:70:7d:7a:bf:c7:c8:15:41:
                    b4:a9
                Exponent: 65537 (0x10001)
        X509v3 extensions:
            X509v3 Basic Constraints: 
                CA:FALSE
            X509v3 Subject Key Identifier: 
                2D:9A:55:3B:CF:88:DB:54:72:0F:01:60:69:01:E8:3C:57:1D:EF:42
            X509v3 Authority Key Identifier: 
                keyid:9D:66:7B:B2:6D:62:32:93:6B:17:77:98:BC:94:0A:88:42:96:32:D3
                DirName:/CN=team30-net
                serial:1D:B8:7B:AD:11:62:2E:85:DE:EA:4E:3A:73:73:BD:0B:CA:47:C3:57

            X509v3 Extended Key Usage: 
                TLS Web Client Authentication
            X509v3 Key Usage: 
                Digital Signature
    Signature Algorithm: sha256WithRSAEncryption
         b1:20:df:76:c9:37:68:3b:5d:a1:e0:6c:e5:ae:de:51:f8:74:
         58:f4:af:9a:e4:92:0e:1e:78:2c:40:00:aa:f6:d4:d5:e4:da:
         95:03:0b:df:46:b9:e8:99:f9:63:5f:59:f1:03:cf:b3:3e:28:
         a2:96:aa:32:ad:17:3e:b8:33:14:73:f1:61:81:44:77:9a:69:
         34:5b:73:f2:ec:8b:0d:25:d0:bc:4f:01:69:8e:a4:1a:79:76:
         d6:72:f5:9c:54:89:bc:88:3b:9a:64:67:b8:20:5f:51:a5:06:
         7f:dc:39:e1:c8:51:53:3c:1e:4c:1b:81:db:06:a8:7e:ef:2b:
         93:60:6d:f6:c3:6e:b4:37:42:7e:24:86:a3:62:53:e0:9e:d0:
         a7:a2:29:83:e1:29:7c:e0:18:10:ae:65:c6:74:b6:ee:48:ff:
         af:82:e4:af:48:69:d5:8e:e5:ce:1a:ef:a4:3c:5a:ec:79:d4:
         f0:77:25:3c:13:f8:44:c0:7a:78:f7:06:90:7d:54:80:fd:b9:
         c1:84:36:de:3a:64:e6:cc:aa:25:a0:dd:ab:e9:b5:89:d9:70:
         34:5a:bc:b4:8f:53:38:91:8b:07:0e:4f:e0:ed:80:53:06:8e:
         b2:56:ce:af:8a:fc:53:90:33:e0:c3:7f:50:40:88:33:ac:62:
         4a:bd:bb:91
-----BEGIN CERTIFICATE-----
MIIDWTCCAkGgAwIBAgIQUuVKPCzDXv3K0g9A+bf6ADANBgkqhkiG9w0BAQsFADAV
MRMwEQYDVQQDDAp0ZWFtMzAtbmV0MB4XDTIyMDgwOTE4NTI0N1oXDTI1MDcyNDE4
NTI0N1owGDEWMBQGA1UEAwwNdGVhbTMwLWNsaWVudDCCASIwDQYJKoZIhvcNAQEB
BQADggEPADCCAQoCggEBAM749Jpatz6UPrMzjOYpc7N18jSdmzslyhiKR0vtFbdB
BxLZJ3qIq2CpHYSeLpC8fkU3qnBh1rGkFuhpVaEJnR8i3r7DCLSRF3m5f8gPXvz6
teZ+bfpt/32m9ffpbFLODanPmbguHzo9g6qIf2xblSPgXRGaVwigwvA0IOcN7ikT
JN6QAZH+RVzU9QAgDmaaVTh5sW4mPCGXIyylVjfcgcDiStXjqRTpJUMKLoQB1yt5
1+rXB07UrzwhjOOitlQn0XfskAC5tGJPo47uJgOJcQvC6aYvpg2zAKRp9VOxiL+5
OwSHujDnCniVDoIx6S6YZ9EKb2h16XB9er/HyBVBtKkCAwEAAaOBoTCBnjAJBgNV
HRMEAjAAMB0GA1UdDgQWBBQtmlU7z4jbVHIPAWBpAeg8Vx3vQjBQBgNVHSMESTBH
gBSdZnuybWIyk2sXd5i8lAqIQpYy06EZpBcwFTETMBEGA1UEAwwKdGVhbTMwLW5l
dIIUHbh7rRFiLoXe6k46c3O9C8pHw1cwEwYDVR0lBAwwCgYIKwYBBQUHAwIwCwYD
VR0PBAQDAgeAMA0GCSqGSIb3DQEBCwUAA4IBAQCxIN92yTdoO12h4Gzlrt5R+HRY
9K+a5JIOHngsQACq9tTV5NqVAwvfRrnomfljX1nxA8+zPiiilqoyrRc+uDMUc/Fh
gUR3mmk0W3Py7IsNJdC8TwFpjqQaeXbWcvWcVIm8iDuaZGe4IF9RpQZ/3DnhyFFT
PB5MG4HbBqh+7yuTYG32w260N0J+JIajYlPgntCnoimD4Sl84BgQrmXGdLbuSP+v
guSvSGnVjuXOGu+kPFrsedTwdyU8E/hEwHp49waQfVSA/bnBhDbeOmTmzKoloN2r
6bWJ2XA0Wry0j1M4kYsHDk/g7YBTBo6yVs6vivxTkDPgw39QQIgzrGJKvbuR
-----END CERTIFICATE-----
