Certificate:
    Data:
        Version: 3 (0x2)
        Serial Number:
            b9:22:fb:49:16:ee:40:38:35:bd:25:09:7f:e6:7b:49
        Signature Algorithm: sha256WithRSAEncryption
        Issuer: CN=team14-net
        Validity
            Not Before: Aug  9 18:52:37 2022 GMT
            Not After : Jul 24 18:52:37 2025 GMT
        Subject: CN=team14-server
        Subject Public Key Info:
            Public Key Algorithm: rsaEncryption
                RSA Public-Key: (2048 bit)
                Modulus:
                    00:d2:59:fb:37:f6:14:a1:7b:a1:96:80:f1:a3:96:
                    fc:67:52:5c:ed:f8:c0:e2:28:d1:e8:fa:7f:8b:82:
                    41:74:73:45:74:21:4f:b9:19:18:70:a2:ec:24:55:
                    47:6d:e5:21:fe:ab:6d:77:06:a5:44:71:47:7e:19:
                    99:ec:7b:dc:31:01:ad:5d:7f:8e:42:b8:c8:fb:bc:
                    15:2c:a7:8d:6f:17:f7:7f:cf:65:f5:92:90:d3:46:
                    8d:be:a8:f0:eb:15:14:73:0d:98:aa:72:70:64:ca:
                    cb:d2:95:b8:c2:bb:bb:c8:54:73:50:d5:df:fa:38:
                    b4:b5:69:a2:2c:a3:70:4c:bf:ae:d5:a5:6e:6f:57:
                    4f:81:5d:db:66:73:e4:02:2f:8a:1c:08:13:06:57:
                    07:80:f7:04:e0:8f:fb:e9:c2:f0:62:04:9a:c6:b5:
                    ab:b5:5f:88:6e:0a:50:8d:66:80:ee:2d:1f:8c:ac:
                    98:83:1b:dd:a0:c9:10:94:e4:5e:85:3e:5d:66:fd:
                    db:c9:e3:7f:61:9e:78:86:b5:b4:bc:b1:f6:c3:e4:
                    01:9b:91:03:45:df:6a:d1:6a:59:9d:46:7d:10:cb:
                    6e:c7:18:12:df:69:ee:a5:31:33:db:01:12:f8:f9:
                    da:30:a5:1b:0c:0e:05:8e:e6:d1:de:f3:54:10:44:
                    6d:03
                Exponent: 65537 (0x10001)
        X509v3 extensions:
            X509v3 Basic Constraints: 
                CA:FALSE
            X509v3 Subject Key Identifier: 
                C8:39:38:A2:D8:E7:22:E8:39:CD:E3:2A:78:31:CC:14:52:77:2D:4E
            X509v3 Authority Key Identifier: 
                keyid:2D:03:7C:C2:C4:6F:F8:EF:CA:B2:62:4B:0C:15:33:49:4E:E6:B8:8C
                DirName:/CN=team14-net
                serial:12:63:F8:1A:31:91:89:0E:70:DC:53:03:1F:2B:AF:23:51:2F:80:49

            X509v3 Extended Key Usage: 
                TLS Web Server Authentication
            X509v3 Key Usage: 
                Digital Signature, Key Encipherment
            X509v3 Subject Alternative Name: 
                DNS:team14-server
    Signature Algorithm: sha256WithRSAEncryption
         99:1e:83:0f:02:6c:d2:05:a3:4e:98:bb:8a:3f:f2:a1:94:e6:
         46:2c:4b:2e:7c:c1:b0:ea:63:56:b4:29:4a:78:54:08:b5:79:
         ef:5b:64:75:bb:ee:aa:61:ee:6a:77:d5:4d:bc:d3:dc:5d:09:
         71:25:88:52:d1:ea:5f:b1:ce:8c:38:e8:78:54:57:c5:80:9c:
         bc:74:4d:4c:53:69:ce:8b:e8:db:39:84:2e:21:ed:50:1d:48:
         94:11:8c:15:8a:a6:14:8a:4f:7f:b6:16:f0:9a:0b:05:02:66:
         4a:e5:65:dc:f5:73:2d:1b:27:e0:e1:de:1a:7f:58:76:4d:4b:
         62:92:96:40:24:1a:f6:55:8f:ce:b0:41:9e:27:87:34:3e:e3:
         16:ca:2c:5e:da:1d:d5:3c:4a:56:37:95:10:a6:53:1c:72:66:
         ad:26:9f:f4:37:28:68:7b:f3:98:be:87:4a:78:bf:f9:22:4e:
         b0:35:e9:a5:62:70:1f:21:7b:5f:72:29:5a:b6:10:87:34:34:
         e3:17:e4:e8:5b:80:5e:fb:f2:8a:02:9d:6d:9c:fe:37:44:e0:
         4a:53:b1:15:14:b9:e6:3a:af:98:f7:22:68:ad:f7:02:54:4d:
         56:93:80:63:18:db:02:12:60:f7:ce:99:4a:79:8a:08:c5:a9:
         5f:00:9f:b1
-----BEGIN CERTIFICATE-----
MIIDdDCCAlygAwIBAgIRALki+0kW7kA4Nb0lCX/me0kwDQYJKoZIhvcNAQELBQAw
FTETMBEGA1UEAwwKdGVhbTE0LW5ldDAeFw0yMjA4MDkxODUyMzdaFw0yNTA3MjQx
ODUyMzdaMBgxFjAUBgNVBAMMDXRlYW0xNC1zZXJ2ZXIwggEiMA0GCSqGSIb3DQEB
AQUAA4IBDwAwggEKAoIBAQDSWfs39hShe6GWgPGjlvxnUlzt+MDiKNHo+n+LgkF0
c0V0IU+5GRhwouwkVUdt5SH+q213BqVEcUd+GZnse9wxAa1df45CuMj7vBUsp41v
F/d/z2X1kpDTRo2+qPDrFRRzDZiqcnBkysvSlbjCu7vIVHNQ1d/6OLS1aaIso3BM
v67VpW5vV0+BXdtmc+QCL4ocCBMGVweA9wTgj/vpwvBiBJrGtau1X4huClCNZoDu
LR+MrJiDG92gyRCU5F6FPl1m/dvJ439hnniGtbS8sfbD5AGbkQNF32rRalmdRn0Q
y27HGBLfae6lMTPbARL4+dowpRsMDgWO5tHe81QQRG0DAgMBAAGjgbswgbgwCQYD
VR0TBAIwADAdBgNVHQ4EFgQUyDk4otjnIug5zeMqeDHMFFJ3LU4wUAYDVR0jBEkw
R4AULQN8wsRv+O/KsmJLDBUzSU7muIyhGaQXMBUxEzARBgNVBAMMCnRlYW0xNC1u
ZXSCFBJj+BoxkYkOcNxTAx8rryNRL4BJMBMGA1UdJQQMMAoGCCsGAQUFBwMBMAsG
A1UdDwQEAwIFoDAYBgNVHREEETAPgg10ZWFtMTQtc2VydmVyMA0GCSqGSIb3DQEB
CwUAA4IBAQCZHoMPAmzSBaNOmLuKP/KhlOZGLEsufMGw6mNWtClKeFQItXnvW2R1
u+6qYe5qd9VNvNPcXQlxJYhS0epfsc6MOOh4VFfFgJy8dE1MU2nOi+jbOYQuIe1Q
HUiUEYwViqYUik9/thbwmgsFAmZK5WXc9XMtGyfg4d4af1h2TUtikpZAJBr2VY/O
sEGeJ4c0PuMWyixe2h3VPEpWN5UQplMccmatJp/0Nyhoe/OYvodKeL/5Ik6wNeml
YnAfIXtfcilathCHNDTjF+ToW4Be+/KKAp1tnP43ROBKU7EVFLnmOq+Y9yJorfcC
VE1Wk4BjGNsCEmD3zplKeYoIxalfAJ+x
-----END CERTIFICATE-----
