Certificate:
    Data:
        Version: 3 (0x2)
        Serial Number:
            f4:98:85:b1:b6:ed:b3:bb:90:18:4f:e4:1a:8d:20:08
        Signature Algorithm: sha256WithRSAEncryption
        Issuer: CN=team14-net
        Validity
            Not Before: Aug  9 18:52:37 2022 GMT
            Not After : Jul 24 18:52:37 2025 GMT
        Subject: CN=team14-client
        Subject Public Key Info:
            Public Key Algorithm: rsaEncryption
                RSA Public-Key: (2048 bit)
                Modulus:
                    00:e0:2f:23:30:7d:0a:ab:fa:73:2c:09:3d:b9:6a:
                    99:55:10:2d:df:c4:40:3b:34:37:b2:d7:26:f3:51:
                    16:af:ac:27:0d:8b:1f:1d:a9:0e:69:5b:ac:41:51:
                    e8:a2:69:af:7f:a5:17:df:a9:cf:1c:75:0a:e9:7f:
                    b4:ad:6a:2c:c3:58:3a:65:c8:f6:4a:5c:71:26:89:
                    bd:79:44:03:ce:3f:66:67:d7:ef:08:24:38:de:37:
                    f5:5f:1b:64:c5:be:ab:90:76:51:3f:5d:ca:6d:58:
                    72:28:05:1e:99:86:61:84:1c:cf:e8:9f:5a:bb:f4:
                    20:34:a0:41:9b:b6:30:0b:e6:0b:6b:42:0a:2d:07:
                    6b:ad:d8:e8:1f:c3:8e:4b:74:42:71:f3:4b:54:4f:
                    8b:36:e8:0e:5f:3b:0a:2c:18:5f:c4:14:a7:9b:92:
                    a5:07:9e:6f:8c:f6:cd:72:57:db:94:7c:4c:33:9d:
                    e3:e6:10:d1:1b:8a:1c:af:9d:5b:08:24:75:85:77:
                    66:69:db:4d:46:51:75:6e:67:f7:40:96:fd:30:64:
                    76:10:29:dd:1b:9f:8b:c5:df:30:87:a8:38:f2:b6:
                    f7:78:c4:37:e6:63:c5:a3:8c:d8:db:9d:9f:54:58:
                    af:3a:38:25:1e:03:2c:63:72:60:d2:fa:d6:14:1a:
                    80:af
                Exponent: 65537 (0x10001)
        X509v3 extensions:
            X509v3 Basic Constraints: 
                CA:FALSE
            X509v3 Subject Key Identifier: 
                BF:C9:09:44:64:A9:D5:19:E1:86:AF:60:F8:38:99:43:4C:4A:DA:0C
            X509v3 Authority Key Identifier: 
                keyid:2D:03:7C:C2:C4:6F:F8:EF:CA:B2:62:4B:0C:15:33:49:4E:E6:B8:8C
                DirName:/CN=team14-net
                serial:12:63:F8:1A:31:91:89:0E:70:DC:53:03:1F:2B:AF:23:51:2F:80:49

            X509v3 Extended Key Usage: 
                TLS Web Client Authentication
            X509v3 Key Usage: 
                Digital Signature
    Signature Algorithm: sha256WithRSAEncryption
         01:6e:34:f5:bb:b9:48:53:64:ef:56:19:d6:3a:21:33:c5:38:
         eb:c5:d9:8f:5b:85:c7:36:89:37:0d:c9:9b:fa:c5:d0:e2:da:
         5b:83:c8:8c:21:1c:5e:1c:84:ca:f8:c5:03:07:73:77:3b:96:
         f2:14:c5:93:4d:54:d7:55:5c:72:f2:b9:d9:f5:50:af:ac:05:
         6f:a6:63:05:23:e2:05:45:8b:4f:e1:0d:f8:ff:a0:53:04:1d:
         39:db:84:7f:4b:f6:95:37:d5:b7:94:16:e3:61:12:66:ed:07:
         a4:9d:db:06:01:4c:4c:2b:df:cc:40:c5:5f:90:54:ab:89:06:
         9b:17:d6:5d:0a:fc:ff:06:46:8d:f0:99:db:eb:7b:8f:40:5e:
         e3:4f:aa:fb:0a:1f:62:53:0f:aa:fe:18:48:83:95:84:fa:3b:
         11:99:84:ce:3b:85:d8:aa:20:20:63:d0:86:22:ac:97:07:09:
         3b:68:e8:61:08:a9:cb:c8:a1:78:68:ed:3a:07:85:5e:f3:42:
         88:48:97:70:c6:a9:8d:4b:39:f9:ca:cb:72:ba:49:d8:45:57:
         7b:de:5f:28:1c:ed:46:bd:20:2f:55:eb:c5:f8:f0:2e:8c:18:
         7b:76:86:60:d2:4a:3c:6b:2e:c5:2f:2e:2f:57:a9:53:e9:20:
         6f:ae:5b:86
-----BEGIN CERTIFICATE-----
MIIDWjCCAkKgAwIBAgIRAPSYhbG27bO7kBhP5BqNIAgwDQYJKoZIhvcNAQELBQAw
FTETMBEGA1UEAwwKdGVhbTE0LW5ldDAeFw0yMjA4MDkxODUyMzdaFw0yNTA3MjQx
ODUyMzdaMBgxFjAUBgNVBAMMDXRlYW0xNC1jbGllbnQwggEiMA0GCSqGSIb3DQEB
AQUAA4IBDwAwggEKAoIBAQDgLyMwfQqr+nMsCT25aplVEC3fxEA7NDey1ybzURav
rCcNix8dqQ5pW6xBUeiiaa9/pRffqc8cdQrpf7StaizDWDplyPZKXHEmib15RAPO
P2Zn1+8IJDjeN/VfG2TFvquQdlE/XcptWHIoBR6ZhmGEHM/on1q79CA0oEGbtjAL
5gtrQgotB2ut2Ogfw45LdEJx80tUT4s26A5fOwosGF/EFKebkqUHnm+M9s1yV9uU
fEwznePmENEbihyvnVsIJHWFd2Zp201GUXVuZ/dAlv0wZHYQKd0bn4vF3zCHqDjy
tvd4xDfmY8WjjNjbnZ9UWK86OCUeAyxjcmDS+tYUGoCvAgMBAAGjgaEwgZ4wCQYD
VR0TBAIwADAdBgNVHQ4EFgQUv8kJRGSp1Rnhhq9g+DiZQ0xK2gwwUAYDVR0jBEkw
R4AULQN8wsRv+O/KsmJLDBUzSU7muIyhGaQXMBUxEzARBgNVBAMMCnRlYW0xNC1u
ZXSCFBJj+BoxkYkOcNxTAx8rryNRL4BJMBMGA1UdJQQMMAoGCCsGAQUFBwMCMAsG
A1UdDwQEAwIHgDANBgkqhkiG9w0BAQsFAAOCAQEAAW409bu5SFNk71YZ1johM8U4
68XZj1uFxzaJNw3Jm/rF0OLaW4PIjCEcXhyEyvjFAwdzdzuW8hTFk01U11VccvK5
2fVQr6wFb6ZjBSPiBUWLT+EN+P+gUwQdOduEf0v2lTfVt5QW42ESZu0HpJ3bBgFM
TCvfzEDFX5BUq4kGmxfWXQr8/wZGjfCZ2+t7j0Be40+q+wofYlMPqv4YSIOVhPo7
EZmEzjuF2KogIGPQhiKslwcJO2joYQipy8iheGjtOgeFXvNCiEiXcMapjUs5+crL
crpJ2EVXe95fKBztRr0gL1XrxfjwLowYe3aGYNJKPGsuxS8uL1epU+kgb65bhg==
-----END CERTIFICATE-----
