Certificate:
    Data:
        Version: 3 (0x2)
        Serial Number:
            4f:6f:fd:c8:e2:7c:8b:ad:ff:7f:45:57:d8:a0:81:a2
        Signature Algorithm: sha256WithRSAEncryption
        Issuer: CN=team21-net
        Validity
            Not Before: Aug  9 18:52:42 2022 GMT
            Not After : Jul 24 18:52:42 2025 GMT
        Subject: CN=team21-client
        Subject Public Key Info:
            Public Key Algorithm: rsaEncryption
                RSA Public-Key: (2048 bit)
                Modulus:
                    00:e0:8f:9a:18:68:16:af:30:56:14:55:9f:c9:eb:
                    a2:6b:aa:e8:f0:c2:f4:5d:fd:ab:54:58:3b:0f:53:
                    a0:9b:36:85:39:05:4f:02:37:fd:a8:be:11:e9:de:
                    e0:db:0e:58:4c:74:e2:b2:fe:86:6c:d6:b9:99:87:
                    63:07:d5:0c:f9:8d:12:2b:81:8f:e1:5b:51:04:c8:
                    90:4d:6a:fe:6c:19:a2:1d:1a:96:d5:81:37:63:79:
                    ca:1c:94:cf:71:4d:6a:78:8c:30:69:8d:af:3e:e2:
                    21:aa:e6:78:aa:0c:90:77:8e:1a:fe:38:5c:db:42:
                    a3:f3:97:0b:0e:2b:2e:5d:e0:b8:b0:65:c3:30:63:
                    14:ea:ce:e6:a2:33:62:52:51:8c:5c:2e:0e:9c:c3:
                    47:c6:ac:70:14:47:8f:19:d4:f3:6e:c2:c7:c2:e6:
                    56:49:9f:e5:60:17:7f:98:5b:71:af:6a:3d:df:ba:
                    a2:a6:e8:9a:1f:d9:66:65:d0:98:db:e9:5a:37:a6:
                    0c:24:8d:61:c4:4a:eb:70:9d:11:4f:e5:21:a1:b1:
                    fc:3b:fb:16:bb:27:ed:c4:1a:66:3a:2d:13:c5:27:
                    d3:2d:51:e6:73:41:a5:65:e2:33:d8:36:cb:a4:23:
                    d3:13:ab:dd:12:da:5b:82:e9:62:0b:f9:8d:0b:a1:
                    41:5d
                Exponent: 65537 (0x10001)
        X509v3 extensions:
            X509v3 Basic Constraints: 
                CA:FALSE
            X509v3 Subject Key Identifier: 
                F8:FC:04:C1:71:C0:5F:49:A4:51:CD:57:89:BB:75:3E:98:7C:00:8F
            X509v3 Authority Key Identifier: 
                keyid:CB:08:47:54:02:A5:8D:DE:A8:9C:B7:06:AF:8D:35:8A:B2:A8:EE:80
                DirName:/CN=team21-net
                serial:63:23:C1:E4:1F:12:8C:F8:4D:EB:AF:00:FD:AE:90:54:DA:5C:6F:CF

            X509v3 Extended Key Usage: 
                TLS Web Client Authentication
            X509v3 Key Usage: 
                Digital Signature
    Signature Algorithm: sha256WithRSAEncryption
         08:b9:dd:6b:37:4c:19:7b:9f:9b:ab:03:0f:de:24:9e:a2:cf:
         60:11:b9:2a:e6:c8:53:91:dd:79:fe:53:3e:51:e3:0c:ac:51:
         95:36:50:ef:a0:45:85:63:33:aa:06:1a:c7:ec:2f:5e:a1:40:
         78:b0:55:b8:50:91:a3:ae:6c:36:78:6e:00:45:7b:a7:c6:ba:
         57:4b:a9:3e:95:98:5d:ae:c8:9f:4d:c3:72:6c:f7:52:eb:8f:
         a1:76:b2:50:21:f2:5d:23:f9:2d:cf:07:d2:c0:23:58:78:3c:
         08:7f:5c:12:29:9e:16:53:35:98:a3:6c:c3:a8:f6:bf:04:c3:
         c0:96:ce:22:72:9a:12:52:86:60:c8:ab:3b:3a:86:3b:da:00:
         f3:21:cb:b6:e6:d9:0d:91:01:90:a8:5a:0e:bf:df:2d:1b:e5:
         46:67:7b:2e:15:46:f3:90:c9:8d:9a:d3:17:f4:cb:73:7b:91:
         d9:e9:82:fe:b9:9c:82:85:14:68:82:d0:38:04:24:22:f4:5a:
         f5:e7:38:a5:6d:de:17:ca:46:6b:c4:65:17:18:d2:28:ab:c7:
         80:ee:4e:c0:48:a1:fe:e9:f7:22:2b:ad:9b:f9:16:e4:c1:64:
         bf:36:b3:24:20:3c:61:e2:52:39:90:0d:ea:c7:6f:9a:13:e2:
         34:9b:83:a7
-----BEGIN CERTIFICATE-----
MIIDWTCCAkGgAwIBAgIQT2/9yOJ8i63/f0VX2KCBojANBgkqhkiG9w0BAQsFADAV
MRMwEQYDVQQDDAp0ZWFtMjEtbmV0MB4XDTIyMDgwOTE4NTI0MloXDTI1MDcyNDE4
NTI0MlowGDEWMBQGA1UEAwwNdGVhbTIxLWNsaWVudDCCASIwDQYJKoZIhvcNAQEB
BQADggEPADCCAQoCggEBAOCPmhhoFq8wVhRVn8nromuq6PDC9F39q1RYOw9ToJs2
hTkFTwI3/ai+Eene4NsOWEx04rL+hmzWuZmHYwfVDPmNEiuBj+FbUQTIkE1q/mwZ
oh0altWBN2N5yhyUz3FNaniMMGmNrz7iIarmeKoMkHeOGv44XNtCo/OXCw4rLl3g
uLBlwzBjFOrO5qIzYlJRjFwuDpzDR8ascBRHjxnU827Cx8LmVkmf5WAXf5hbca9q
Pd+6oqbomh/ZZmXQmNvpWjemDCSNYcRK63CdEU/lIaGx/Dv7Frsn7cQaZjotE8Un
0y1R5nNBpWXiM9g2y6Qj0xOr3RLaW4LpYgv5jQuhQV0CAwEAAaOBoTCBnjAJBgNV
HRMEAjAAMB0GA1UdDgQWBBT4/ATBccBfSaRRzVeJu3U+mHwAjzBQBgNVHSMESTBH
gBTLCEdUAqWN3qictwavjTWKsqjugKEZpBcwFTETMBEGA1UEAwwKdGVhbTIxLW5l
dIIUYyPB5B8SjPhN668A/a6QVNpcb88wEwYDVR0lBAwwCgYIKwYBBQUHAwIwCwYD
VR0PBAQDAgeAMA0GCSqGSIb3DQEBCwUAA4IBAQAIud1rN0wZe5+bqwMP3iSeos9g
Ebkq5shTkd15/lM+UeMMrFGVNlDvoEWFYzOqBhrH7C9eoUB4sFW4UJGjrmw2eG4A
RXunxrpXS6k+lZhdrsifTcNybPdS64+hdrJQIfJdI/ktzwfSwCNYeDwIf1wSKZ4W
UzWYo2zDqPa/BMPAls4icpoSUoZgyKs7OoY72gDzIcu25tkNkQGQqFoOv98tG+VG
Z3suFUbzkMmNmtMX9Mtze5HZ6YL+uZyChRRogtA4BCQi9Fr15zilbd4XykZrxGUX
GNIoq8eA7k7ASKH+6fciK62b+RbkwWS/NrMkIDxh4lI5kA3qx2+aE+I0m4On
-----END CERTIFICATE-----
