Certificate:
    Data:
        Version: 3 (0x2)
        Serial Number:
            dc:6f:d1:90:c9:f8:48:6e:3c:a6:3e:e3:cb:1c:d4:43
        Signature Algorithm: sha256WithRSAEncryption
        Issuer: CN=team21-net
        Validity
            Not Before: Aug  9 00:11:42 2022 GMT
            Not After : Jul 24 00:11:42 2025 GMT
        Subject: CN=team21-server
        Subject Public Key Info:
            Public Key Algorithm: rsaEncryption
                RSA Public-Key: (2048 bit)
                Modulus:
                    00:e2:a4:81:e5:09:a2:9c:75:f7:3d:58:19:fd:ce:
                    7e:ed:b8:23:c2:d1:d2:57:24:09:41:e0:95:e3:58:
                    77:e6:79:56:97:84:3b:9b:32:26:db:d8:15:40:9b:
                    77:20:41:58:2a:79:c3:bf:93:b7:5d:25:8a:77:49:
                    f5:5b:0d:da:c2:f4:38:19:c1:b5:8a:d2:db:61:0b:
                    43:e9:11:04:9d:1a:ce:13:cf:5f:13:f9:93:68:7b:
                    b7:c5:6f:d5:0f:8c:2f:f8:3d:5e:7f:fd:39:ca:49:
                    23:ae:70:0d:33:ac:66:36:fc:33:f3:73:4b:c8:4f:
                    e4:a0:32:58:4a:29:e8:a4:51:44:00:2b:b6:a2:65:
                    00:b6:6c:62:5c:f1:51:60:01:78:22:ff:84:56:15:
                    b1:7c:4e:6e:a7:ea:9b:fc:cb:20:a9:7f:6c:9f:ba:
                    8a:e4:86:63:8b:34:b3:1d:68:ce:88:4b:b1:59:b6:
                    78:4e:15:db:e2:0b:72:62:69:22:6a:c7:b8:63:76:
                    f8:66:2a:48:de:73:0d:a3:81:97:62:a1:d3:24:93:
                    ea:fe:86:0d:b0:a5:9c:91:a3:9e:7f:00:e5:07:30:
                    da:a3:98:b2:de:f5:a7:eb:17:74:1b:b7:ec:81:47:
                    df:13:ca:49:28:cf:20:33:87:a4:ac:7e:76:b2:51:
                    ed:65
                Exponent: 65537 (0x10001)
        X509v3 extensions:
            X509v3 Basic Constraints: 
                CA:FALSE
            X509v3 Subject Key Identifier: 
                6E:4F:49:0D:70:B6:8D:D4:F4:45:B2:86:9A:A3:D4:4E:85:8A:C9:9E
            X509v3 Authority Key Identifier: 
                keyid:2E:27:E2:8B:AF:7D:E1:3E:47:31:24:83:CD:39:F6:A3:57:DB:34:AC
                DirName:/CN=team21-net
                serial:1F:B6:2D:45:E3:37:10:C4:3F:DE:B1:C8:81:C9:C9:3D:42:38:0F:0B

            X509v3 Extended Key Usage: 
                TLS Web Server Authentication
            X509v3 Key Usage: 
                Digital Signature, Key Encipherment
            X509v3 Subject Alternative Name: 
                DNS:team21-server
    Signature Algorithm: sha256WithRSAEncryption
         94:fe:87:31:34:c8:3b:74:a4:76:c8:bb:bc:fb:13:86:b8:bb:
         0f:de:e9:58:45:31:a5:4d:c2:81:8c:4d:b5:01:f9:a1:57:1a:
         dc:9b:8d:96:8a:d9:8c:30:ce:18:ea:0e:62:1c:9c:82:52:59:
         a8:e1:d3:2f:55:d9:0d:46:b1:56:b7:8c:79:05:8f:64:d8:95:
         47:61:1b:91:ad:34:5a:c5:55:58:af:e1:79:c2:69:25:1e:24:
         19:82:55:05:15:e6:36:7a:00:99:a2:4a:2d:f9:9b:df:4f:f7:
         cc:b2:85:7c:6b:77:27:79:ac:31:fe:17:ef:ea:78:bd:4f:ba:
         9b:6e:a9:80:3c:7f:c9:5f:2e:7f:c7:8b:48:01:eb:19:d7:fd:
         6d:ab:06:27:63:91:e0:63:9b:21:6d:17:79:56:d1:51:88:b9:
         8f:15:48:3f:f4:37:eb:bf:4f:9b:7f:dd:ec:d6:87:e5:bb:aa:
         5a:01:47:db:5d:d9:7a:14:82:ac:31:50:80:e1:45:e9:4b:0f:
         be:3b:7c:54:eb:a3:a7:8f:26:fe:97:e0:96:b7:f7:ca:8b:a6:
         0d:46:02:36:37:28:5d:ec:01:7c:f5:ac:cf:3c:67:94:0d:28:
         3a:a4:39:2a:e4:73:c2:4e:ba:7c:db:96:3e:d3:c0:0d:70:08:
         90:17:dd:15
-----BEGIN CERTIFICATE-----
MIIDdDCCAlygAwIBAgIRANxv0ZDJ+EhuPKY+48sc1EMwDQYJKoZIhvcNAQELBQAw
FTETMBEGA1UEAwwKdGVhbTIxLW5ldDAeFw0yMjA4MDkwMDExNDJaFw0yNTA3MjQw
MDExNDJaMBgxFjAUBgNVBAMMDXRlYW0yMS1zZXJ2ZXIwggEiMA0GCSqGSIb3DQEB
AQUAA4IBDwAwggEKAoIBAQDipIHlCaKcdfc9WBn9zn7tuCPC0dJXJAlB4JXjWHfm
eVaXhDubMibb2BVAm3cgQVgqecO/k7ddJYp3SfVbDdrC9DgZwbWK0tthC0PpEQSd
Gs4Tz18T+ZNoe7fFb9UPjC/4PV5//TnKSSOucA0zrGY2/DPzc0vIT+SgMlhKKeik
UUQAK7aiZQC2bGJc8VFgAXgi/4RWFbF8Tm6n6pv8yyCpf2yfuorkhmOLNLMdaM6I
S7FZtnhOFdviC3JiaSJqx7hjdvhmKkjecw2jgZdiodMkk+r+hg2wpZyRo55/AOUH
MNqjmLLe9afrF3Qbt+yBR98TykkozyAzh6SsfnayUe1lAgMBAAGjgbswgbgwCQYD
VR0TBAIwADAdBgNVHQ4EFgQUbk9JDXC2jdT0RbKGmqPUToWKyZ4wUAYDVR0jBEkw
R4AULifii6994T5HMSSDzTn2o1fbNKyhGaQXMBUxEzARBgNVBAMMCnRlYW0yMS1u
ZXSCFB+2LUXjNxDEP96xyIHJyT1COA8LMBMGA1UdJQQMMAoGCCsGAQUFBwMBMAsG
A1UdDwQEAwIFoDAYBgNVHREEETAPgg10ZWFtMjEtc2VydmVyMA0GCSqGSIb3DQEB
CwUAA4IBAQCU/ocxNMg7dKR2yLu8+xOGuLsP3ulYRTGlTcKBjE21AfmhVxrcm42W
itmMMM4Y6g5iHJyCUlmo4dMvVdkNRrFWt4x5BY9k2JVHYRuRrTRaxVVYr+F5wmkl
HiQZglUFFeY2egCZokot+ZvfT/fMsoV8a3cneawx/hfv6ni9T7qbbqmAPH/JXy5/
x4tIAesZ1/1tqwYnY5HgY5shbRd5VtFRiLmPFUg/9Dfrv0+bf93s1oflu6paAUfb
Xdl6FIKsMVCA4UXpSw++O3xU66Onjyb+l+CWt/fKi6YNRgI2Nyhd7AF89azPPGeU
DSg6pDkq5HPCTrp825Y+08ANcAiQF90V
-----END CERTIFICATE-----
