Certificate:
    Data:
        Version: 3 (0x2)
        Serial Number:
            e3:31:03:7b:03:5f:e4:7c:13:d1:69:a3:d0:d8:01:76
        Signature Algorithm: sha256WithRSAEncryption
        Issuer: CN=team21-net
        Validity
            Not Before: Aug  9 00:11:42 2022 GMT
            Not After : Jul 24 00:11:42 2025 GMT
        Subject: CN=team21-client
        Subject Public Key Info:
            Public Key Algorithm: rsaEncryption
                RSA Public-Key: (2048 bit)
                Modulus:
                    00:9f:a4:4d:22:d0:a4:e9:37:1e:b8:73:c6:70:a3:
                    f9:5b:95:0e:9b:d8:46:1f:5f:85:48:a5:56:87:e1:
                    ac:96:3f:70:76:dd:cd:c4:2e:26:83:85:6d:33:a7:
                    97:6f:c9:e3:78:f9:04:7c:21:e8:b3:9f:e0:d8:81:
                    ac:04:82:ed:47:ba:39:4f:f7:fa:30:0d:e2:63:cf:
                    d4:4f:a7:56:fe:2f:b2:d8:dc:2c:ce:6a:e7:e2:ef:
                    e4:7b:2e:bb:d9:34:9c:21:1d:af:19:4d:dc:ad:19:
                    8d:b9:71:f3:10:ee:5f:e1:ab:6c:f9:7d:4e:47:00:
                    a5:5d:2d:58:04:ed:cb:bc:44:62:03:80:b6:ad:9f:
                    78:1f:1b:7d:8a:dc:7a:b9:e9:67:c2:90:9b:4d:a6:
                    e5:1f:7f:5c:ef:0f:28:63:f5:4d:a7:a0:a9:7e:96:
                    13:19:b1:37:03:fb:98:fe:bb:6b:64:0d:d3:cb:58:
                    75:6a:87:cd:fc:fd:62:d5:ac:72:f4:af:1f:2f:20:
                    7e:96:05:52:41:2e:3b:34:bb:d9:f6:7d:bb:69:b3:
                    aa:ba:44:19:18:14:1f:26:f9:12:1c:b0:82:64:f0:
                    eb:1e:c7:9a:9b:5b:9c:5d:1e:42:4a:71:68:42:9d:
                    68:42:2a:2b:a8:9c:34:b1:65:ec:90:af:22:22:b2:
                    f9:c1
                Exponent: 65537 (0x10001)
        X509v3 extensions:
            X509v3 Basic Constraints: 
                CA:FALSE
            X509v3 Subject Key Identifier: 
                F2:C7:55:B1:58:A4:CA:49:51:59:F9:F6:F6:C0:CD:D0:79:6C:30:C2
            X509v3 Authority Key Identifier: 
                keyid:2E:27:E2:8B:AF:7D:E1:3E:47:31:24:83:CD:39:F6:A3:57:DB:34:AC
                DirName:/CN=team21-net
                serial:1F:B6:2D:45:E3:37:10:C4:3F:DE:B1:C8:81:C9:C9:3D:42:38:0F:0B

            X509v3 Extended Key Usage: 
                TLS Web Client Authentication
            X509v3 Key Usage: 
                Digital Signature
    Signature Algorithm: sha256WithRSAEncryption
         1d:86:4e:5e:05:f6:a1:87:68:b5:68:b6:08:f1:52:22:f0:fe:
         15:48:ef:00:05:e7:7f:fd:04:47:8f:d7:97:13:77:50:4d:62:
         52:73:b0:00:55:d0:b3:63:10:f6:41:26:dd:fa:5d:d5:b9:29:
         d4:c3:b9:e1:78:c9:7d:8b:49:4b:26:5a:b4:42:6f:b1:3a:a6:
         16:bb:83:72:d2:b6:51:2c:5f:ac:5a:62:4d:eb:e7:5b:d5:69:
         70:25:9c:26:4f:ad:c7:4e:19:68:db:56:e6:d8:d1:0f:88:0b:
         ff:31:0e:3d:6e:69:cd:3f:41:39:e9:85:1d:5b:dd:6a:31:05:
         d5:4e:1d:61:ab:af:ce:ab:e6:6c:c7:5c:2f:4e:0e:d2:ff:a8:
         29:ee:92:9f:39:7b:ac:15:1a:fe:fe:c7:86:73:f5:7c:7e:f9:
         94:43:42:77:cf:4f:8b:3b:5b:2e:dd:6c:11:75:e1:a3:1b:11:
         7a:c0:78:0f:a6:1e:10:70:0c:65:7d:e5:21:b8:48:5b:ab:35:
         01:b2:db:a8:23:0e:f8:59:02:20:0f:a3:20:9d:d4:39:cd:0c:
         9e:0d:fd:bb:b1:1a:75:23:b3:f8:d7:11:ff:89:4c:ee:e5:0e:
         82:84:93:16:cd:22:48:02:69:46:e0:26:4a:6f:48:ca:4f:88:
         0b:f0:9d:7a
-----BEGIN CERTIFICATE-----
MIIDWjCCAkKgAwIBAgIRAOMxA3sDX+R8E9Fpo9DYAXYwDQYJKoZIhvcNAQELBQAw
FTETMBEGA1UEAwwKdGVhbTIxLW5ldDAeFw0yMjA4MDkwMDExNDJaFw0yNTA3MjQw
MDExNDJaMBgxFjAUBgNVBAMMDXRlYW0yMS1jbGllbnQwggEiMA0GCSqGSIb3DQEB
AQUAA4IBDwAwggEKAoIBAQCfpE0i0KTpNx64c8Zwo/lblQ6b2EYfX4VIpVaH4ayW
P3B23c3ELiaDhW0zp5dvyeN4+QR8Ieizn+DYgawEgu1HujlP9/owDeJjz9RPp1b+
L7LY3CzOaufi7+R7LrvZNJwhHa8ZTdytGY25cfMQ7l/hq2z5fU5HAKVdLVgE7cu8
RGIDgLatn3gfG32K3Hq56WfCkJtNpuUff1zvDyhj9U2noKl+lhMZsTcD+5j+u2tk
DdPLWHVqh838/WLVrHL0rx8vIH6WBVJBLjs0u9n2fbtps6q6RBkYFB8m+RIcsIJk
8Osex5qbW5xdHkJKcWhCnWhCKiuonDSxZeyQryIisvnBAgMBAAGjgaEwgZ4wCQYD
VR0TBAIwADAdBgNVHQ4EFgQU8sdVsVikyklRWfn29sDN0HlsMMIwUAYDVR0jBEkw
R4AULifii6994T5HMSSDzTn2o1fbNKyhGaQXMBUxEzARBgNVBAMMCnRlYW0yMS1u
ZXSCFB+2LUXjNxDEP96xyIHJyT1COA8LMBMGA1UdJQQMMAoGCCsGAQUFBwMCMAsG
A1UdDwQEAwIHgDANBgkqhkiG9w0BAQsFAAOCAQEAHYZOXgX2oYdotWi2CPFSIvD+
FUjvAAXnf/0ER4/XlxN3UE1iUnOwAFXQs2MQ9kEm3fpd1bkp1MO54XjJfYtJSyZa
tEJvsTqmFruDctK2USxfrFpiTevnW9VpcCWcJk+tx04ZaNtW5tjRD4gL/zEOPW5p
zT9BOemFHVvdajEF1U4dYauvzqvmbMdcL04O0v+oKe6Snzl7rBUa/v7HhnP1fH75
lENCd89PiztbLt1sEXXhoxsResB4D6YeEHAMZX3lIbhIW6s1AbLbqCMO+FkCIA+j
IJ3UOc0Mng39u7EadSOz+NcR/4lM7uUOgoSTFs0iSAJpRuAmSm9Iyk+IC/Cdeg==
-----END CERTIFICATE-----
