Certificate:
    Data:
        Version: 3 (0x2)
        Serial Number:
            11:ac:05:6e:4d:25:55:d1:9e:6b:61:2c:a1:8c:f7:0c
        Signature Algorithm: sha256WithRSAEncryption
        Issuer: CN=team19-net
        Validity
            Not Before: Aug  9 00:11:40 2022 GMT
            Not After : Jul 24 00:11:40 2025 GMT
        Subject: CN=team19-client
        Subject Public Key Info:
            Public Key Algorithm: rsaEncryption
                RSA Public-Key: (2048 bit)
                Modulus:
                    00:bc:3c:cd:c5:5c:72:a1:ef:21:77:33:04:16:86:
                    3f:4b:f5:99:3d:90:36:44:d5:84:33:83:49:32:1e:
                    e4:32:64:0c:bb:3b:c2:e0:10:4e:ed:11:b9:2b:e3:
                    1e:e0:39:4d:81:13:75:ee:74:4d:86:99:2d:61:05:
                    ab:fe:4e:ac:55:15:dc:6e:4d:88:60:e1:3e:3d:27:
                    1c:bb:09:02:86:ae:c1:31:b4:de:0a:41:35:4f:2a:
                    a7:94:86:66:40:5e:9c:60:12:2d:5f:e0:f5:1e:79:
                    37:5b:03:99:89:df:da:5b:c2:49:1a:d6:d1:1c:32:
                    0f:f9:81:46:60:66:a6:ef:63:9f:fa:9a:e9:d2:16:
                    67:5d:da:75:f8:64:f3:0e:0c:6a:dc:d1:76:a8:51:
                    1a:d0:1b:9f:c7:49:2b:55:46:a1:4d:53:be:7a:dd:
                    af:82:ff:14:8a:e7:8b:d9:7d:47:68:0e:09:b2:f6:
                    8f:8a:6c:3e:30:8b:45:54:45:de:49:35:17:1f:62:
                    d1:d0:17:5a:eb:87:1e:6a:54:e2:c2:56:fe:6b:c7:
                    46:97:8c:b7:61:9f:8b:87:f5:32:d5:a2:b3:e1:c0:
                    40:f6:2b:d6:5b:b8:ed:44:86:67:d8:a2:e2:0d:15:
                    58:59:f0:e0:5e:99:94:81:8d:2a:b3:f9:5e:df:34:
                    ad:e5
                Exponent: 65537 (0x10001)
        X509v3 extensions:
            X509v3 Basic Constraints: 
                CA:FALSE
            X509v3 Subject Key Identifier: 
                C4:DA:B5:B0:D7:4B:59:45:D1:7D:1D:00:D7:05:32:4C:11:FC:F1:F0
            X509v3 Authority Key Identifier: 
                keyid:34:1B:BA:4A:ED:B8:81:7C:40:E2:02:6B:6B:6D:23:82:A8:D1:BB:2E
                DirName:/CN=team19-net
                serial:5B:3C:55:1E:AF:FD:77:B7:73:62:D5:A1:51:95:E5:93:19:49:49:10

            X509v3 Extended Key Usage: 
                TLS Web Client Authentication
            X509v3 Key Usage: 
                Digital Signature
    Signature Algorithm: sha256WithRSAEncryption
         a0:65:cb:71:ea:c0:f2:dd:04:3b:be:b9:fa:42:86:3f:30:73:
         d0:3c:a4:d3:14:01:00:2b:9f:2a:b6:92:af:1d:54:ae:0e:81:
         da:15:f0:6d:29:c0:f9:bb:82:c8:4f:63:d4:f9:ec:bd:d2:9d:
         4f:6f:a2:86:34:3f:33:94:f8:3b:9f:b5:7c:c2:23:7b:e1:9b:
         00:01:c1:5e:cf:39:c2:04:0e:22:e1:be:88:42:d6:22:b4:09:
         d8:de:1a:44:97:a8:ad:c8:64:79:c5:19:db:1b:93:88:91:49:
         0a:37:22:47:3b:91:95:59:e5:6f:b1:a2:b3:28:5e:4d:49:c7:
         99:af:b9:24:5b:23:b9:5c:dd:ff:94:b8:21:92:1c:9c:0f:c4:
         06:69:35:82:6b:73:2f:f9:4b:d8:d0:55:79:9f:94:83:14:c8:
         84:a2:23:9b:ea:e3:52:67:62:76:a7:c8:57:89:db:48:ad:99:
         f3:4e:67:63:10:c7:ff:e3:5a:c9:98:35:b6:2e:21:ce:2f:62:
         d8:ee:ca:c0:7d:42:07:41:c6:83:a6:8f:b8:38:ea:0e:d2:fd:
         5f:00:20:44:f0:8e:0b:56:eb:54:50:07:b2:84:f3:54:5f:55:
         2d:c8:aa:12:0c:1b:69:41:53:09:8c:d6:1c:b1:f3:36:0b:34:
         c5:65:bb:23
-----BEGIN CERTIFICATE-----
MIIDWTCCAkGgAwIBAgIQEawFbk0lVdGea2EsoYz3DDANBgkqhkiG9w0BAQsFADAV
MRMwEQYDVQQDDAp0ZWFtMTktbmV0MB4XDTIyMDgwOTAwMTE0MFoXDTI1MDcyNDAw
MTE0MFowGDEWMBQGA1UEAwwNdGVhbTE5LWNsaWVudDCCASIwDQYJKoZIhvcNAQEB
BQADggEPADCCAQoCggEBALw8zcVccqHvIXczBBaGP0v1mT2QNkTVhDODSTIe5DJk
DLs7wuAQTu0RuSvjHuA5TYETde50TYaZLWEFq/5OrFUV3G5NiGDhPj0nHLsJAoau
wTG03gpBNU8qp5SGZkBenGASLV/g9R55N1sDmYnf2lvCSRrW0RwyD/mBRmBmpu9j
n/qa6dIWZ13adfhk8w4MatzRdqhRGtAbn8dJK1VGoU1Tvnrdr4L/FIrni9l9R2gO
CbL2j4psPjCLRVRF3kk1Fx9i0dAXWuuHHmpU4sJW/mvHRpeMt2Gfi4f1MtWis+HA
QPYr1lu47USGZ9ii4g0VWFnw4F6ZlIGNKrP5Xt80reUCAwEAAaOBoTCBnjAJBgNV
HRMEAjAAMB0GA1UdDgQWBBTE2rWw10tZRdF9HQDXBTJMEfzx8DBQBgNVHSMESTBH
gBQ0G7pK7biBfEDiAmtrbSOCqNG7LqEZpBcwFTETMBEGA1UEAwwKdGVhbTE5LW5l
dIIUWzxVHq/9d7dzYtWhUZXlkxlJSRAwEwYDVR0lBAwwCgYIKwYBBQUHAwIwCwYD
VR0PBAQDAgeAMA0GCSqGSIb3DQEBCwUAA4IBAQCgZctx6sDy3QQ7vrn6QoY/MHPQ
PKTTFAEAK58qtpKvHVSuDoHaFfBtKcD5u4LIT2PU+ey90p1Pb6KGND8zlPg7n7V8
wiN74ZsAAcFezznCBA4i4b6IQtYitAnY3hpEl6ityGR5xRnbG5OIkUkKNyJHO5GV
WeVvsaKzKF5NSceZr7kkWyO5XN3/lLghkhycD8QGaTWCa3Mv+UvY0FV5n5SDFMiE
oiOb6uNSZ2J2p8hXidtIrZnzTmdjEMf/41rJmDW2LiHOL2LY7srAfUIHQcaDpo+4
OOoO0v1fACBE8I4LVutUUAeyhPNUX1UtyKoSDBtpQVMJjNYcsfM2CzTFZbsj
-----END CERTIFICATE-----
