Certificate:
    Data:
        Version: 3 (0x2)
        Serial Number:
            c9:e8:7d:07:37:7a:d9:8c:aa:2c:02:fc:b4:30:80:cd
        Signature Algorithm: sha256WithRSAEncryption
        Issuer: CN=team19-net
        Validity
            Not Before: Aug  9 18:52:41 2022 GMT
            Not After : Jul 24 18:52:41 2025 GMT
        Subject: CN=team19-server
        Subject Public Key Info:
            Public Key Algorithm: rsaEncryption
                RSA Public-Key: (2048 bit)
                Modulus:
                    00:df:a1:b6:0b:24:2b:81:65:59:53:78:b9:d8:06:
                    70:74:77:5d:c0:40:3a:77:96:4e:9a:3a:cd:98:4f:
                    c6:59:82:68:d9:1c:22:5c:76:3b:7b:0b:1e:ea:03:
                    36:25:94:93:87:3b:d4:d7:88:09:34:4f:a1:13:7b:
                    5a:32:97:a7:7c:e5:f3:ef:35:32:14:40:32:73:f0:
                    f1:1e:5c:15:bf:0c:bd:26:21:e9:20:f4:39:9d:c7:
                    63:ea:82:5c:d5:c0:6a:4f:36:4e:4c:e5:f5:c7:ca:
                    01:9a:8e:dc:07:fc:56:5e:f5:35:1c:e5:79:56:7d:
                    f4:d2:78:1f:bc:f9:3d:d4:b4:39:3d:89:a7:8e:55:
                    dc:eb:27:6a:8c:2e:c1:2f:58:7e:a1:43:76:66:19:
                    e6:5d:4b:44:fa:ae:b8:83:01:32:f1:94:79:dc:4f:
                    a7:65:b8:ea:de:42:f4:01:e9:5e:9a:fb:fc:5b:6b:
                    5b:10:f8:22:fe:0e:6d:b8:bd:d5:ba:44:7d:b6:05:
                    ea:59:8c:28:ee:14:a9:16:f6:a4:b9:a7:17:bf:81:
                    e1:96:b5:47:a1:9f:86:5a:08:cc:a6:41:6e:b5:52:
                    08:94:12:cb:2c:b8:95:cf:f4:e6:0e:cf:14:f3:59:
                    ae:24:c5:22:6c:f0:d6:db:55:81:6b:aa:97:92:c9:
                    4f:e1
                Exponent: 65537 (0x10001)
        X509v3 extensions:
            X509v3 Basic Constraints: 
                CA:FALSE
            X509v3 Subject Key Identifier: 
                C6:46:92:78:DD:C5:44:BF:77:F0:28:34:EA:3F:84:F1:04:CA:1D:48
            X509v3 Authority Key Identifier: 
                keyid:1E:36:7A:A1:8B:65:C3:57:49:56:93:F3:B8:46:4E:6D:06:83:62:BF
                DirName:/CN=team19-net
                serial:27:BD:A4:2B:E1:97:90:A7:8E:94:1B:70:D8:82:98:A7:76:A7:16:0C

            X509v3 Extended Key Usage: 
                TLS Web Server Authentication
            X509v3 Key Usage: 
                Digital Signature, Key Encipherment
            X509v3 Subject Alternative Name: 
                DNS:team19-server
    Signature Algorithm: sha256WithRSAEncryption
         45:ec:94:20:3b:72:47:d6:24:c4:98:13:ca:0f:ec:48:a3:90:
         fa:89:e0:08:e7:13:52:f8:5d:76:5a:51:9e:0c:f6:48:0e:5c:
         be:4a:df:70:26:bd:7c:6f:c9:6e:87:fb:24:05:90:09:1c:cd:
         34:e5:bc:e4:42:13:c1:49:95:9d:ff:50:51:82:86:b9:02:53:
         42:ba:70:9e:7b:91:7e:81:04:1c:1d:17:40:3e:fe:90:ed:33:
         5e:85:e0:39:d7:e4:2a:1d:27:03:df:ca:79:63:38:ab:95:6d:
         82:6c:91:c1:d1:0a:04:4c:69:72:fa:a4:73:9c:26:a4:50:1f:
         36:28:e6:51:b7:ec:40:8f:06:b2:01:56:50:ad:de:3c:69:ce:
         3a:c8:cd:35:d6:de:3f:c7:62:77:2f:03:1d:60:6c:35:4a:31:
         0f:07:51:d7:52:db:86:02:f5:6d:f5:28:07:0f:65:52:58:73:
         d6:b3:93:ae:b1:78:da:12:a3:5e:35:ba:56:73:52:c3:bb:86:
         bd:47:90:17:b0:b1:69:98:64:1e:c1:bf:c4:f8:f5:c4:23:ff:
         65:6f:1b:21:8a:dd:06:3b:5b:8c:c5:77:dd:c0:d6:b0:1f:14:
         24:3e:e1:91:90:fa:04:f8:83:01:c5:4d:e7:ec:e0:2a:42:10:
         60:5b:bd:55
-----BEGIN CERTIFICATE-----
MIIDdDCCAlygAwIBAgIRAMnofQc3etmMqiwC/LQwgM0wDQYJKoZIhvcNAQELBQAw
FTETMBEGA1UEAwwKdGVhbTE5LW5ldDAeFw0yMjA4MDkxODUyNDFaFw0yNTA3MjQx
ODUyNDFaMBgxFjAUBgNVBAMMDXRlYW0xOS1zZXJ2ZXIwggEiMA0GCSqGSIb3DQEB
AQUAA4IBDwAwggEKAoIBAQDfobYLJCuBZVlTeLnYBnB0d13AQDp3lk6aOs2YT8ZZ
gmjZHCJcdjt7Cx7qAzYllJOHO9TXiAk0T6ETe1oyl6d85fPvNTIUQDJz8PEeXBW/
DL0mIekg9Dmdx2PqglzVwGpPNk5M5fXHygGajtwH/FZe9TUc5XlWffTSeB+8+T3U
tDk9iaeOVdzrJ2qMLsEvWH6hQ3ZmGeZdS0T6rriDATLxlHncT6dluOreQvQB6V6a
+/xba1sQ+CL+Dm24vdW6RH22BepZjCjuFKkW9qS5pxe/geGWtUehn4ZaCMymQW61
UgiUEsssuJXP9OYOzxTzWa4kxSJs8NbbVYFrqpeSyU/hAgMBAAGjgbswgbgwCQYD
VR0TBAIwADAdBgNVHQ4EFgQUxkaSeN3FRL938Cg06j+E8QTKHUgwUAYDVR0jBEkw
R4AUHjZ6oYtlw1dJVpPzuEZObQaDYr+hGaQXMBUxEzARBgNVBAMMCnRlYW0xOS1u
ZXSCFCe9pCvhl5CnjpQbcNiCmKd2pxYMMBMGA1UdJQQMMAoGCCsGAQUFBwMBMAsG
A1UdDwQEAwIFoDAYBgNVHREEETAPgg10ZWFtMTktc2VydmVyMA0GCSqGSIb3DQEB
CwUAA4IBAQBF7JQgO3JH1iTEmBPKD+xIo5D6ieAI5xNS+F12WlGeDPZIDly+St9w
Jr18b8luh/skBZAJHM005bzkQhPBSZWd/1BRgoa5AlNCunCee5F+gQQcHRdAPv6Q
7TNeheA51+QqHScD38p5YzirlW2CbJHB0QoETGly+qRznCakUB82KOZRt+xAjway
AVZQrd48ac46yM011t4/x2J3LwMdYGw1SjEPB1HXUtuGAvVt9SgHD2VSWHPWs5Ou
sXjaEqNeNbpWc1LDu4a9R5AXsLFpmGQewb/E+PXEI/9lbxshit0GO1uMxXfdwNaw
HxQkPuGRkPoE+IMBxU3n7OAqQhBgW71V
-----END CERTIFICATE-----
