Certificate:
    Data:
        Version: 3 (0x2)
        Serial Number:
            ed:5a:16:0a:3a:b0:4b:39:fa:19:64:61:d6:24:c1:1a
        Signature Algorithm: sha256WithRSAEncryption
        Issuer: CN=team29-net
        Validity
            Not Before: Aug  9 00:11:49 2022 GMT
            Not After : Jul 24 00:11:49 2025 GMT
        Subject: CN=team29-client
        Subject Public Key Info:
            Public Key Algorithm: rsaEncryption
                RSA Public-Key: (2048 bit)
                Modulus:
                    00:c3:1c:f7:0d:55:1d:95:1f:51:a8:0c:a9:65:35:
                    6b:6f:87:4c:c7:07:26:02:a1:3d:31:fc:21:aa:aa:
                    0e:ba:2c:b4:34:86:43:c5:a5:5e:b3:46:17:75:5c:
                    13:f1:11:0e:fb:f4:62:7b:89:23:28:c2:40:fc:9c:
                    ad:72:41:66:65:89:cf:22:53:37:83:7d:b8:38:25:
                    62:23:be:5c:ad:9a:ab:d4:69:05:55:e0:c5:14:c0:
                    3c:6f:b2:3a:26:6c:30:b3:cb:f2:15:b7:b8:59:60:
                    3e:59:fb:7b:ab:03:80:8d:50:42:5a:2b:d7:77:fd:
                    0d:a3:20:71:11:56:d9:3c:e2:cf:ab:a2:99:4d:2c:
                    ca:de:57:ea:9c:dc:86:35:b4:d2:fc:09:c8:a0:34:
                    b3:15:b1:cd:9d:c1:3f:35:18:0c:46:14:ba:e9:55:
                    88:6d:d2:e3:b2:c2:1a:88:60:93:d7:0e:90:4e:64:
                    a3:5d:15:b7:51:20:f0:22:3a:24:c4:a8:12:cf:6e:
                    cf:c9:d0:a7:aa:e5:53:72:1b:25:96:fe:fc:47:c4:
                    78:f1:f8:7f:ee:3d:9b:f6:dd:60:e6:5d:54:35:ff:
                    03:41:fb:24:35:d5:2a:a2:1d:f3:80:19:59:fa:2e:
                    2e:59:09:12:13:e8:e7:62:4c:89:3e:86:d7:31:6c:
                    9d:4f
                Exponent: 65537 (0x10001)
        X509v3 extensions:
            X509v3 Basic Constraints: 
                CA:FALSE
            X509v3 Subject Key Identifier: 
                A8:AD:D7:DC:F0:C4:2C:FC:4B:CE:F3:08:5C:0F:86:21:90:79:63:99
            X509v3 Authority Key Identifier: 
                keyid:6D:3E:DE:AE:8B:26:1F:98:35:89:D8:8D:F1:E6:D0:83:19:E1:8D:C3
                DirName:/CN=team29-net
                serial:64:8C:7F:37:5A:3D:E5:A3:7C:A0:D9:12:41:3D:20:6E:B4:5B:D5:8B

            X509v3 Extended Key Usage: 
                TLS Web Client Authentication
            X509v3 Key Usage: 
                Digital Signature
    Signature Algorithm: sha256WithRSAEncryption
         4c:41:ad:6a:e2:f8:ce:fb:c6:6a:cf:97:22:87:f8:a6:61:6b:
         93:fc:14:29:09:b4:34:5d:79:04:6a:7a:39:9b:1c:0c:01:0b:
         9d:5e:d3:11:5b:29:30:16:5e:17:ce:56:c6:69:ff:67:2c:94:
         dd:26:b4:a1:b0:27:9d:4c:ce:14:6c:99:d5:2f:2b:48:d6:8c:
         b4:35:56:f2:65:94:4e:af:c3:da:bc:5a:9e:51:31:15:9f:dc:
         71:33:c7:bc:53:e9:a5:c3:9b:36:cd:ee:64:0e:5e:b2:c9:34:
         d8:3b:8b:10:64:a0:c1:1e:7f:31:a0:d7:b5:bb:18:5b:18:99:
         27:80:48:32:d4:56:52:7e:d5:69:ed:94:9b:7c:cf:71:a0:c0:
         1a:8c:ef:f0:97:c0:cf:97:f4:8d:f2:0a:94:d4:56:59:f0:aa:
         64:0b:7c:c7:bf:79:7f:83:10:b4:cb:ca:6e:5f:93:64:81:f2:
         10:ae:a5:6b:31:15:78:28:e7:39:e1:80:76:1d:1d:72:bc:bc:
         92:c4:ed:3f:fb:7c:97:02:1b:02:2b:39:0d:b2:b3:0c:51:10:
         cf:01:93:05:45:72:c3:aa:a6:ab:b6:58:43:77:97:74:82:b3:
         95:f4:ae:12:fb:fd:67:9f:d9:d8:5f:21:ac:6a:84:5b:82:f0:
         0a:a6:64:2d
-----BEGIN CERTIFICATE-----
MIIDWjCCAkKgAwIBAgIRAO1aFgo6sEs5+hlkYdYkwRowDQYJKoZIhvcNAQELBQAw
FTETMBEGA1UEAwwKdGVhbTI5LW5ldDAeFw0yMjA4MDkwMDExNDlaFw0yNTA3MjQw
MDExNDlaMBgxFjAUBgNVBAMMDXRlYW0yOS1jbGllbnQwggEiMA0GCSqGSIb3DQEB
AQUAA4IBDwAwggEKAoIBAQDDHPcNVR2VH1GoDKllNWtvh0zHByYCoT0x/CGqqg66
LLQ0hkPFpV6zRhd1XBPxEQ779GJ7iSMowkD8nK1yQWZlic8iUzeDfbg4JWIjvlyt
mqvUaQVV4MUUwDxvsjombDCzy/IVt7hZYD5Z+3urA4CNUEJaK9d3/Q2jIHERVtk8
4s+roplNLMreV+qc3IY1tNL8CcigNLMVsc2dwT81GAxGFLrpVYht0uOywhqIYJPX
DpBOZKNdFbdRIPAiOiTEqBLPbs/J0Keq5VNyGyWW/vxHxHjx+H/uPZv23WDmXVQ1
/wNB+yQ11SqiHfOAGVn6Li5ZCRIT6OdiTIk+htcxbJ1PAgMBAAGjgaEwgZ4wCQYD
VR0TBAIwADAdBgNVHQ4EFgQUqK3X3PDELPxLzvMIXA+GIZB5Y5kwUAYDVR0jBEkw
R4AUbT7erosmH5g1idiN8ebQgxnhjcOhGaQXMBUxEzARBgNVBAMMCnRlYW0yOS1u
ZXSCFGSMfzdaPeWjfKDZEkE9IG60W9WLMBMGA1UdJQQMMAoGCCsGAQUFBwMCMAsG
A1UdDwQEAwIHgDANBgkqhkiG9w0BAQsFAAOCAQEATEGtauL4zvvGas+XIof4pmFr
k/wUKQm0NF15BGp6OZscDAELnV7TEVspMBZeF85Wxmn/ZyyU3Sa0obAnnUzOFGyZ
1S8rSNaMtDVW8mWUTq/D2rxanlExFZ/ccTPHvFPppcObNs3uZA5essk02DuLEGSg
wR5/MaDXtbsYWxiZJ4BIMtRWUn7Vae2Um3zPcaDAGozv8JfAz5f0jfIKlNRWWfCq
ZAt8x795f4MQtMvKbl+TZIHyEK6lazEVeCjnOeGAdh0dcry8ksTtP/t8lwIbAis5
DbKzDFEQzwGTBUVyw6qmq7ZYQ3eXdIKzlfSuEvv9Z5/Z2F8hrGqEW4LwCqZkLQ==
-----END CERTIFICATE-----
