Certificate:
    Data:
        Version: 3 (0x2)
        Serial Number:
            04:8a:77:ad:b9:63:0d:83:6e:1a:47:50:96:22:ed:e2
        Signature Algorithm: sha256WithRSAEncryption
        Issuer: CN=team20-net
        Validity
            Not Before: Aug  9 18:52:41 2022 GMT
            Not After : Jul 24 18:52:41 2025 GMT
        Subject: CN=team20-client
        Subject Public Key Info:
            Public Key Algorithm: rsaEncryption
                RSA Public-Key: (2048 bit)
                Modulus:
                    00:b7:7f:35:a1:cc:4a:da:1d:e3:9a:b6:53:ae:bb:
                    58:6d:cb:c3:6e:24:cf:bf:07:46:81:1d:0a:8e:0a:
                    f1:8d:e8:9a:04:27:6c:66:6e:5d:16:9c:9a:36:61:
                    a6:4f:73:97:83:20:bd:c0:58:81:1d:55:14:09:f4:
                    24:78:78:41:10:12:58:7f:36:14:53:de:4a:6e:c0:
                    bf:5c:4c:12:f2:4d:19:83:31:eb:48:eb:f8:9d:5d:
                    35:89:25:93:6e:4d:fd:cf:81:d5:90:dd:65:dc:8f:
                    5d:8a:22:bb:34:5f:76:ea:fc:68:dd:4d:b3:8b:a2:
                    c6:a8:50:5c:c6:08:20:c2:e6:3f:38:2b:ba:fc:8e:
                    bf:15:38:60:f5:6f:61:6f:fb:02:94:ae:21:3b:78:
                    1d:19:ca:a2:01:35:bd:f2:7b:ab:84:07:48:a8:1f:
                    f5:5c:c8:67:1f:0c:59:13:44:45:d8:63:02:4d:db:
                    50:50:5c:04:bd:62:09:06:7f:e5:0f:80:c6:cf:9e:
                    2f:f6:c8:c1:d7:2b:bb:d4:11:96:d5:cc:d4:39:fb:
                    b6:a6:4c:2c:5c:f5:4a:5b:ba:f2:60:45:1b:c7:69:
                    26:08:fa:41:53:ef:2a:73:3c:8b:ec:c3:27:67:83:
                    2c:d2:2c:ad:93:2c:24:aa:0a:2f:3b:35:d6:b1:10:
                    39:eb
                Exponent: 65537 (0x10001)
        X509v3 extensions:
            X509v3 Basic Constraints: 
                CA:FALSE
            X509v3 Subject Key Identifier: 
                56:93:AD:33:D3:1A:EE:59:4F:A6:89:73:AC:B0:C0:8A:2E:5D:E4:91
            X509v3 Authority Key Identifier: 
                keyid:26:11:E8:F0:93:59:DD:5F:58:8F:2F:76:5D:EE:E1:01:2C:EF:D0:64
                DirName:/CN=team20-net
                serial:7D:8F:D3:91:CA:EB:C4:47:F0:6F:F2:66:41:1D:F0:C8:2B:0F:79:47

            X509v3 Extended Key Usage: 
                TLS Web Client Authentication
            X509v3 Key Usage: 
                Digital Signature
    Signature Algorithm: sha256WithRSAEncryption
         34:b0:36:03:40:1d:bf:8e:bb:37:02:1c:39:b2:34:0c:f9:63:
         34:36:85:7b:94:92:10:aa:8d:88:f6:75:61:9d:d4:45:e5:4d:
         34:d9:e1:85:4c:c4:08:d8:0f:43:6f:b8:07:48:b4:51:f5:4c:
         1c:41:b0:c7:43:b9:d9:19:6c:0f:cd:75:44:5e:e3:ee:de:51:
         22:c3:05:20:2e:42:60:73:99:7e:91:97:aa:9d:6b:cd:cd:4b:
         9c:b3:32:16:b0:98:23:9b:21:36:92:ed:fd:fc:10:54:46:6e:
         d8:cc:5b:bd:33:bd:f3:2c:32:d3:5f:e1:81:e0:df:e3:8e:8d:
         63:8f:5f:ec:70:34:44:64:dc:fa:8f:7c:a7:8b:7e:a5:52:66:
         1e:17:86:b3:6c:ab:b9:94:19:a7:f8:fb:2a:33:d8:52:cb:4c:
         51:49:35:db:a5:02:df:7b:62:5c:2d:34:59:ad:4e:3c:44:e3:
         43:2c:03:fc:30:01:75:45:3b:f4:2e:7a:de:79:c0:69:9f:04:
         85:8f:27:cf:ec:bf:94:55:b9:9b:2c:3d:92:f9:5a:ed:04:84:
         8b:83:58:74:66:de:f8:e0:1a:e2:9f:be:7e:70:72:52:63:48:
         a2:3a:90:d6:46:8c:b1:42:2e:a5:b7:5e:dd:4c:cf:83:ef:12:
         81:0d:9d:45
-----BEGIN CERTIFICATE-----
MIIDWTCCAkGgAwIBAgIQBIp3rbljDYNuGkdQliLt4jANBgkqhkiG9w0BAQsFADAV
MRMwEQYDVQQDDAp0ZWFtMjAtbmV0MB4XDTIyMDgwOTE4NTI0MVoXDTI1MDcyNDE4
NTI0MVowGDEWMBQGA1UEAwwNdGVhbTIwLWNsaWVudDCCASIwDQYJKoZIhvcNAQEB
BQADggEPADCCAQoCggEBALd/NaHMStod45q2U667WG3Lw24kz78HRoEdCo4K8Y3o
mgQnbGZuXRacmjZhpk9zl4MgvcBYgR1VFAn0JHh4QRASWH82FFPeSm7Av1xMEvJN
GYMx60jr+J1dNYklk25N/c+B1ZDdZdyPXYoiuzRfdur8aN1Ns4uixqhQXMYIIMLm
PzgruvyOvxU4YPVvYW/7ApSuITt4HRnKogE1vfJ7q4QHSKgf9VzIZx8MWRNERdhj
Ak3bUFBcBL1iCQZ/5Q+Axs+eL/bIwdcru9QRltXM1Dn7tqZMLFz1Slu68mBFG8dp
Jgj6QVPvKnM8i+zDJ2eDLNIsrZMsJKoKLzs11rEQOesCAwEAAaOBoTCBnjAJBgNV
HRMEAjAAMB0GA1UdDgQWBBRWk60z0xruWU+miXOssMCKLl3kkTBQBgNVHSMESTBH
gBQmEejwk1ndX1iPL3Zd7uEBLO/QZKEZpBcwFTETMBEGA1UEAwwKdGVhbTIwLW5l
dIIUfY/TkcrrxEfwb/JmQR3wyCsPeUcwEwYDVR0lBAwwCgYIKwYBBQUHAwIwCwYD
VR0PBAQDAgeAMA0GCSqGSIb3DQEBCwUAA4IBAQA0sDYDQB2/jrs3Ahw5sjQM+WM0
NoV7lJIQqo2I9nVhndRF5U002eGFTMQI2A9Db7gHSLRR9UwcQbDHQ7nZGWwPzXVE
XuPu3lEiwwUgLkJgc5l+kZeqnWvNzUucszIWsJgjmyE2ku39/BBURm7YzFu9M73z
LDLTX+GB4N/jjo1jj1/scDREZNz6j3yni36lUmYeF4azbKu5lBmn+PsqM9hSy0xR
STXbpQLfe2JcLTRZrU48RONDLAP8MAF1RTv0LnreecBpnwSFjyfP7L+UVbmbLD2S
+VrtBISLg1h0Zt744Brin75+cHJSY0iiOpDWRoyxQi6lt17dTM+D7xKBDZ1F
-----END CERTIFICATE-----
