Certificate:
    Data:
        Version: 3 (0x2)
        Serial Number:
            7c:20:29:6e:f2:2b:ad:42:57:2c:a6:48:5b:f8:e2:4c
        Signature Algorithm: sha256WithRSAEncryption
        Issuer: CN=team20-net
        Validity
            Not Before: Aug  9 00:11:42 2022 GMT
            Not After : Jul 24 00:11:42 2025 GMT
        Subject: CN=team20-server
        Subject Public Key Info:
            Public Key Algorithm: rsaEncryption
                RSA Public-Key: (2048 bit)
                Modulus:
                    00:b8:a6:8d:29:51:c3:80:56:4f:6e:d0:06:40:e0:
                    ad:a9:94:e6:70:7b:4c:2f:6d:f5:7a:b3:ca:00:51:
                    8b:cb:3f:b2:bb:db:3c:fa:3b:b6:c5:fd:c6:6e:0a:
                    d7:b3:4e:db:5d:dd:af:db:d3:68:24:15:ce:97:ce:
                    db:6d:c6:75:b1:e2:12:eb:a3:98:04:92:b5:48:1f:
                    99:0b:0b:34:dd:6a:1d:31:fc:7a:ad:0d:24:e2:33:
                    e5:b8:3c:c6:8d:60:67:cd:5e:ef:4a:f9:fb:77:29:
                    d0:96:c6:d5:9e:6f:7b:ca:7e:9b:31:52:df:2d:c3:
                    5c:08:af:26:8e:ff:b3:99:d4:ac:5a:49:12:41:cf:
                    bc:bc:65:7d:b1:d1:02:14:d1:df:16:5a:bf:02:d5:
                    9e:68:f9:c7:45:0e:f1:50:b3:d5:9a:11:65:a1:f1:
                    67:f9:03:aa:9f:47:24:7b:74:48:be:19:7c:bd:1d:
                    44:41:5e:65:66:94:e2:e4:38:5c:9e:de:15:32:9b:
                    b8:9f:a5:2b:5f:a8:0f:f8:cc:4a:49:5c:ab:d2:a2:
                    65:d4:ea:fb:50:9b:d7:24:e6:0e:aa:7d:e3:34:ae:
                    bf:a7:94:c3:37:f7:67:d8:85:34:7c:e8:01:80:29:
                    f3:97:57:d1:ae:30:55:a3:c0:2a:8d:a0:e4:f6:61:
                    72:fb
                Exponent: 65537 (0x10001)
        X509v3 extensions:
            X509v3 Basic Constraints: 
                CA:FALSE
            X509v3 Subject Key Identifier: 
                9F:51:79:4B:A2:6D:EA:99:0F:70:0C:4B:B6:71:54:74:85:74:11:D5
            X509v3 Authority Key Identifier: 
                keyid:94:C2:87:40:F6:D2:9F:82:23:04:05:EC:39:06:FB:1E:E5:73:15:E9
                DirName:/CN=team20-net
                serial:45:88:A9:7B:38:05:E5:31:7F:37:72:F0:D8:2A:D0:84:51:3B:16:73

            X509v3 Extended Key Usage: 
                TLS Web Server Authentication
            X509v3 Key Usage: 
                Digital Signature, Key Encipherment
            X509v3 Subject Alternative Name: 
                DNS:team20-server
    Signature Algorithm: sha256WithRSAEncryption
         27:11:4c:8f:41:37:3d:e0:bc:cd:04:96:5f:b3:63:18:00:a1:
         a5:46:4a:a8:26:68:71:2b:22:ce:49:76:ab:84:d4:59:d9:c3:
         dd:ba:a1:32:4e:8f:a4:71:03:cf:e2:8c:61:92:7b:ab:56:ee:
         80:36:01:17:d5:71:65:54:66:ab:e1:76:2d:23:ea:50:56:87:
         2e:a9:7b:f8:4a:4a:4e:6c:be:6a:f5:33:d4:63:7e:8f:e9:e7:
         fe:b9:ab:83:1e:f6:b4:7c:57:76:61:2f:2e:cb:92:68:28:45:
         89:7d:9f:99:b9:78:41:37:db:47:46:5f:0a:f8:6b:84:06:0d:
         ef:46:e2:73:00:66:f8:31:70:9a:0d:7d:85:79:a1:4a:ba:55:
         a0:a1:72:d4:24:98:31:50:bc:20:e9:ac:31:f9:36:32:e2:cd:
         73:cb:a8:34:5a:ce:53:f7:d1:14:64:d3:bf:8c:da:83:c5:46:
         15:2b:96:04:33:c2:66:d0:77:f5:20:64:76:ef:5a:f8:9f:5e:
         dd:4e:58:5e:5d:f7:ae:34:92:10:e3:5f:ac:fd:18:9c:0f:01:
         bd:89:89:35:d0:26:83:81:aa:34:22:88:af:6f:46:80:7e:42:
         b1:37:31:f9:0e:e1:b5:28:36:c4:e0:64:9b:b7:f3:df:4f:7d:
         a2:4d:4f:ee
-----BEGIN CERTIFICATE-----
MIIDczCCAlugAwIBAgIQfCApbvIrrUJXLKZIW/jiTDANBgkqhkiG9w0BAQsFADAV
MRMwEQYDVQQDDAp0ZWFtMjAtbmV0MB4XDTIyMDgwOTAwMTE0MloXDTI1MDcyNDAw
MTE0MlowGDEWMBQGA1UEAwwNdGVhbTIwLXNlcnZlcjCCASIwDQYJKoZIhvcNAQEB
BQADggEPADCCAQoCggEBALimjSlRw4BWT27QBkDgramU5nB7TC9t9XqzygBRi8s/
srvbPPo7tsX9xm4K17NO213dr9vTaCQVzpfO223GdbHiEuujmASStUgfmQsLNN1q
HTH8eq0NJOIz5bg8xo1gZ81e70r5+3cp0JbG1Z5ve8p+mzFS3y3DXAivJo7/s5nU
rFpJEkHPvLxlfbHRAhTR3xZavwLVnmj5x0UO8VCz1ZoRZaHxZ/kDqp9HJHt0SL4Z
fL0dREFeZWaU4uQ4XJ7eFTKbuJ+lK1+oD/jMSklcq9KiZdTq+1Cb1yTmDqp94zSu
v6eUwzf3Z9iFNHzoAYAp85dX0a4wVaPAKo2g5PZhcvsCAwEAAaOBuzCBuDAJBgNV
HRMEAjAAMB0GA1UdDgQWBBSfUXlLom3qmQ9wDEu2cVR0hXQR1TBQBgNVHSMESTBH
gBSUwodA9tKfgiMEBew5Bvse5XMV6aEZpBcwFTETMBEGA1UEAwwKdGVhbTIwLW5l
dIIURYipezgF5TF/N3Lw2CrQhFE7FnMwEwYDVR0lBAwwCgYIKwYBBQUHAwEwCwYD
VR0PBAQDAgWgMBgGA1UdEQQRMA+CDXRlYW0yMC1zZXJ2ZXIwDQYJKoZIhvcNAQEL
BQADggEBACcRTI9BNz3gvM0Ell+zYxgAoaVGSqgmaHErIs5JdquE1FnZw926oTJO
j6RxA8/ijGGSe6tW7oA2ARfVcWVUZqvhdi0j6lBWhy6pe/hKSk5svmr1M9Rjfo/p
5/65q4Me9rR8V3ZhLy7LkmgoRYl9n5m5eEE320dGXwr4a4QGDe9G4nMAZvgxcJoN
fYV5oUq6VaChctQkmDFQvCDprDH5NjLizXPLqDRazlP30RRk07+M2oPFRhUrlgQz
wmbQd/UgZHbvWvifXt1OWF5d9640khDjX6z9GJwPAb2JiTXQJoOBqjQiiK9vRoB+
QrE3MfkO4bUoNsTgZJu3899PfaJNT+4=
-----END CERTIFICATE-----
