Certificate:
    Data:
        Version: 3 (0x2)
        Serial Number:
            56:15:de:8b:1c:d1:c4:04:81:bb:e7:f1:4d:d7:f7:16
        Signature Algorithm: sha256WithRSAEncryption
        Issuer: CN=team2-net
        Validity
            Not Before: Aug  9 00:11:26 2022 GMT
            Not After : Jul 24 00:11:26 2025 GMT
        Subject: CN=team2-client
        Subject Public Key Info:
            Public Key Algorithm: rsaEncryption
                RSA Public-Key: (2048 bit)
                Modulus:
                    00:c4:24:82:3f:cb:3a:76:a2:22:b9:06:cc:bd:0e:
                    88:c0:ac:b6:e2:55:1f:8f:39:10:d2:ee:bc:6c:34:
                    3a:a2:67:1c:e1:bd:46:36:eb:dd:02:50:91:7f:84:
                    9a:64:20:1c:14:79:bf:ef:57:ee:ff:60:e7:4a:00:
                    d1:7a:e3:63:0c:db:97:ce:df:b6:62:f7:73:8b:6d:
                    38:04:9f:0f:6e:86:a4:ac:c3:50:2d:fd:16:b9:09:
                    54:0c:83:8b:37:34:ff:77:91:6e:fc:ca:2c:e7:bb:
                    a3:77:3e:7b:e4:31:c9:d0:e4:6b:1c:f9:db:51:81:
                    78:82:9d:59:72:d1:11:18:e1:e2:86:9c:15:31:3d:
                    2d:c8:25:ef:81:62:1b:32:3e:fa:ed:a3:07:71:52:
                    92:50:d6:bc:03:9a:bd:81:d3:d6:c5:a6:43:52:64:
                    27:14:13:80:81:3e:82:e3:12:b1:7a:58:ee:d0:14:
                    7e:ff:d6:98:34:e5:68:b1:72:a5:a9:44:b5:6d:54:
                    55:52:d0:a0:40:f4:44:2e:6c:cc:04:82:ab:0a:80:
                    81:d0:39:8d:09:b6:31:93:ca:d3:1b:98:e9:9b:50:
                    57:ed:fc:a4:5a:3b:88:dc:3a:bf:bd:43:54:e2:1d:
                    e6:9d:f1:1b:9a:56:ba:5e:cc:a4:1f:c9:6b:18:cb:
                    65:a5
                Exponent: 65537 (0x10001)
        X509v3 extensions:
            X509v3 Basic Constraints: 
                CA:FALSE
            X509v3 Subject Key Identifier: 
                04:D3:4E:E9:65:DC:9F:F3:83:22:4C:AA:1D:03:FB:4A:F8:13:3C:10
            X509v3 Authority Key Identifier: 
                keyid:1F:C1:20:38:CC:D6:A0:57:24:02:26:F2:E9:BA:57:D0:66:AC:2B:49
                DirName:/CN=team2-net
                serial:01:F7:81:12:68:DB:85:59:C9:DA:74:0A:01:A2:CA:24:82:28:EC:FF

            X509v3 Extended Key Usage: 
                TLS Web Client Authentication
            X509v3 Key Usage: 
                Digital Signature
    Signature Algorithm: sha256WithRSAEncryption
         4d:7c:f7:bd:4b:85:89:d1:b6:f9:af:5c:c4:cb:af:8e:e7:7d:
         2f:a6:a9:ac:a2:42:21:ff:4a:b8:24:9f:41:38:be:c9:82:d1:
         73:de:c3:89:2c:92:e7:6a:98:a8:e2:d5:cf:44:c6:fd:d0:c7:
         d1:45:42:05:e0:1a:ea:d1:d8:2b:8b:06:d3:03:a4:ba:96:3e:
         84:99:49:23:9e:81:df:d8:8c:ca:b9:48:70:02:d3:fe:64:72:
         37:95:49:4f:dc:16:eb:92:63:fb:55:6d:01:e1:30:b2:4e:71:
         b9:c5:a9:93:29:13:34:6a:6f:9b:0e:f8:81:e9:16:3b:d6:43:
         a3:18:1c:d7:a9:53:85:38:af:91:ae:c4:76:fd:84:e4:29:60:
         0a:81:a7:2c:2e:1e:a2:00:8f:11:6f:ea:ee:dc:c0:c6:58:9c:
         c2:07:d6:7d:ed:58:d6:c2:73:5d:5a:05:ee:c5:64:4f:d5:ba:
         c5:59:91:0b:87:54:55:eb:5b:3d:23:99:9f:e7:2c:56:57:f4:
         fc:ff:d9:79:6f:40:a8:3a:0f:6d:a9:83:76:bb:5b:70:11:c4:
         c0:d1:81:65:87:28:85:9a:79:c2:c0:9d:10:fb:ed:b3:8e:a5:
         b2:0a:04:25:c6:22:23:a9:51:45:02:ed:25:6a:2a:fb:d8:ae:
         5d:8b:26:46
-----BEGIN CERTIFICATE-----
MIIDVjCCAj6gAwIBAgIQVhXeixzRxASBu+fxTdf3FjANBgkqhkiG9w0BAQsFADAU
MRIwEAYDVQQDDAl0ZWFtMi1uZXQwHhcNMjIwODA5MDAxMTI2WhcNMjUwNzI0MDAx
MTI2WjAXMRUwEwYDVQQDDAx0ZWFtMi1jbGllbnQwggEiMA0GCSqGSIb3DQEBAQUA
A4IBDwAwggEKAoIBAQDEJII/yzp2oiK5Bsy9DojArLbiVR+PORDS7rxsNDqiZxzh
vUY2690CUJF/hJpkIBwUeb/vV+7/YOdKANF642MM25fO37Zi93OLbTgEnw9uhqSs
w1At/Ra5CVQMg4s3NP93kW78yiznu6N3PnvkMcnQ5Gsc+dtRgXiCnVly0REY4eKG
nBUxPS3IJe+BYhsyPvrtowdxUpJQ1rwDmr2B09bFpkNSZCcUE4CBPoLjErF6WO7Q
FH7/1pg05WixcqWpRLVtVFVS0KBA9EQubMwEgqsKgIHQOY0JtjGTytMbmOmbUFft
/KRaO4jcOr+9Q1TiHead8RuaVrpezKQfyWsYy2WlAgMBAAGjgaAwgZ0wCQYDVR0T
BAIwADAdBgNVHQ4EFgQUBNNO6WXcn/ODIkyqHQP7SvgTPBAwTwYDVR0jBEgwRoAU
H8EgOMzWoFckAiby6bpX0GasK0mhGKQWMBQxEjAQBgNVBAMMCXRlYW0yLW5ldIIU
AfeBEmjbhVnJ2nQKAaLKJIIo7P8wEwYDVR0lBAwwCgYIKwYBBQUHAwIwCwYDVR0P
BAQDAgeAMA0GCSqGSIb3DQEBCwUAA4IBAQBNfPe9S4WJ0bb5r1zEy6+O530vpqms
okIh/0q4JJ9BOL7JgtFz3sOJLJLnapio4tXPRMb90MfRRUIF4Brq0dgriwbTA6S6
lj6EmUkjnoHf2IzKuUhwAtP+ZHI3lUlP3BbrkmP7VW0B4TCyTnG5xamTKRM0am+b
DviB6RY71kOjGBzXqVOFOK+RrsR2/YTkKWAKgacsLh6iAI8Rb+ru3MDGWJzCB9Z9
7VjWwnNdWgXuxWRP1brFWZELh1RV61s9I5mf5yxWV/T8/9l5b0CoOg9tqYN2u1tw
EcTA0YFlhyiFmnnCwJ0Q++2zjqWyCgQlxiIjqVFFAu0lair72K5diyZG
-----END CERTIFICATE-----
