Certificate:
    Data:
        Version: 3 (0x2)
        Serial Number:
            56:7d:8b:c1:71:b5:8b:76:75:d2:40:be:b4:2b:38:fc
        Signature Algorithm: sha256WithRSAEncryption
        Issuer: CN=team2-net
        Validity
            Not Before: Aug  9 18:52:26 2022 GMT
            Not After : Jul 24 18:52:26 2025 GMT
        Subject: CN=team2-server
        Subject Public Key Info:
            Public Key Algorithm: rsaEncryption
                RSA Public-Key: (2048 bit)
                Modulus:
                    00:c2:44:35:52:95:8f:3c:81:b8:71:28:84:08:95:
                    5f:d9:d8:f9:b9:5d:cd:b5:3d:76:7e:68:e6:de:22:
                    6c:02:67:42:50:40:4e:2d:50:8d:8c:25:99:ed:a1:
                    00:f7:57:55:a8:6c:74:99:db:ea:e3:a1:39:47:34:
                    cc:b8:28:af:7e:84:79:bf:54:b3:97:ae:8c:73:cf:
                    f2:62:bc:2c:e3:71:93:b4:2f:0e:0f:6a:e1:1a:68:
                    bb:55:50:0c:38:59:01:20:1d:ce:9c:4a:9c:70:84:
                    26:8f:54:be:2e:2d:d7:41:1d:27:4f:74:08:e5:2c:
                    e5:67:9d:d8:b9:af:e5:19:9e:ab:a7:d8:f9:0e:7b:
                    e1:6b:e8:40:32:76:af:a8:ac:fa:84:ac:48:19:ae:
                    28:ff:07:bf:7b:39:1b:9b:01:7d:94:d6:1e:02:ac:
                    6d:06:70:72:e9:b0:63:fc:b1:06:97:29:88:6d:81:
                    30:d3:18:f7:54:05:a3:cf:de:ea:6f:dc:c3:ca:b9:
                    a6:4d:08:bd:39:d8:27:fe:2f:04:6d:06:cb:41:46:
                    b3:de:a7:5c:0b:e5:13:72:b6:bc:59:9b:bc:df:b7:
                    9d:58:24:f8:80:75:dd:24:20:2f:be:95:15:5a:33:
                    d8:24:87:f6:0c:4d:d8:66:ab:75:26:5a:06:f3:ab:
                    f9:fd
                Exponent: 65537 (0x10001)
        X509v3 extensions:
            X509v3 Basic Constraints: 
                CA:FALSE
            X509v3 Subject Key Identifier: 
                DA:79:B4:A8:58:9C:22:A4:F3:70:74:CA:B6:25:DC:06:D7:41:CF:61
            X509v3 Authority Key Identifier: 
                keyid:54:49:96:30:8A:CC:C7:B0:93:C5:A2:4A:0C:EA:8A:73:C8:3A:73:4C
                DirName:/CN=team2-net
                serial:31:0F:C7:24:2C:38:FA:67:0C:8B:47:BF:AE:D0:02:E4:71:8C:28:C8

            X509v3 Extended Key Usage: 
                TLS Web Server Authentication
            X509v3 Key Usage: 
                Digital Signature, Key Encipherment
            X509v3 Subject Alternative Name: 
                DNS:team2-server
    Signature Algorithm: sha256WithRSAEncryption
         0f:7e:e3:05:15:16:58:31:1b:22:e4:3b:be:e1:b4:f5:72:c0:
         86:85:32:a9:b7:28:3e:18:ec:be:4f:c8:62:13:58:8d:ea:9e:
         34:aa:35:0f:99:3c:12:79:64:bd:84:c5:c3:5f:56:d3:c2:72:
         0c:ab:4d:e9:d7:68:01:b2:e5:26:8f:9d:2a:4b:d3:51:3a:cc:
         d7:fd:36:da:42:4f:3c:8a:9c:42:0c:5f:d7:30:85:c0:ca:3f:
         82:2c:4d:88:bf:be:07:a1:21:eb:ac:14:95:b9:32:23:be:6a:
         28:84:21:7e:84:07:44:30:e8:d2:8d:84:3c:31:15:c6:31:49:
         e1:7b:cf:f4:2a:60:86:7f:31:16:9b:70:d8:66:65:93:d8:2b:
         70:78:95:87:c5:62:96:bb:c0:30:57:d7:e0:ab:d9:66:f7:97:
         38:52:04:85:c1:a6:6a:f4:3b:4f:90:9d:6c:12:32:97:67:82:
         47:1a:35:8c:72:f2:48:b5:b6:0a:be:1b:1d:02:31:ce:ac:5e:
         f1:e8:dd:02:3e:33:14:4e:4e:4a:4b:08:c9:47:bb:ea:ae:95:
         43:f7:e9:68:a2:f6:83:4d:3c:0a:67:04:00:23:5b:2b:90:0a:
         41:5f:f0:1e:95:01:e4:98:11:f8:6f:79:dc:a4:7e:0e:88:74:
         e5:38:3f:37
-----BEGIN CERTIFICATE-----
MIIDbzCCAlegAwIBAgIQVn2LwXG1i3Z10kC+tCs4/DANBgkqhkiG9w0BAQsFADAU
MRIwEAYDVQQDDAl0ZWFtMi1uZXQwHhcNMjIwODA5MTg1MjI2WhcNMjUwNzI0MTg1
MjI2WjAXMRUwEwYDVQQDDAx0ZWFtMi1zZXJ2ZXIwggEiMA0GCSqGSIb3DQEBAQUA
A4IBDwAwggEKAoIBAQDCRDVSlY88gbhxKIQIlV/Z2Pm5Xc21PXZ+aObeImwCZ0JQ
QE4tUI2MJZntoQD3V1WobHSZ2+rjoTlHNMy4KK9+hHm/VLOXroxzz/JivCzjcZO0
Lw4PauEaaLtVUAw4WQEgHc6cSpxwhCaPVL4uLddBHSdPdAjlLOVnndi5r+UZnqun
2PkOe+Fr6EAydq+orPqErEgZrij/B797ORubAX2U1h4CrG0GcHLpsGP8sQaXKYht
gTDTGPdUBaPP3upv3MPKuaZNCL052Cf+LwRtBstBRrPep1wL5RNytrxZm7zft51Y
JPiAdd0kIC++lRVaM9gkh/YMTdhmq3UmWgbzq/n9AgMBAAGjgbkwgbYwCQYDVR0T
BAIwADAdBgNVHQ4EFgQU2nm0qFicIqTzcHTKtiXcBtdBz2EwTwYDVR0jBEgwRoAU
VEmWMIrMx7CTxaJKDOqKc8g6c0yhGKQWMBQxEjAQBgNVBAMMCXRlYW0yLW5ldIIU
MQ/HJCw4+mcMi0e/rtAC5HGMKMgwEwYDVR0lBAwwCgYIKwYBBQUHAwEwCwYDVR0P
BAQDAgWgMBcGA1UdEQQQMA6CDHRlYW0yLXNlcnZlcjANBgkqhkiG9w0BAQsFAAOC
AQEAD37jBRUWWDEbIuQ7vuG09XLAhoUyqbcoPhjsvk/IYhNYjeqeNKo1D5k8Enlk
vYTFw19W08JyDKtN6ddoAbLlJo+dKkvTUTrM1/022kJPPIqcQgxf1zCFwMo/gixN
iL++B6Eh66wUlbkyI75qKIQhfoQHRDDo0o2EPDEVxjFJ4XvP9Cpghn8xFptw2GZl
k9grcHiVh8VilrvAMFfX4KvZZveXOFIEhcGmavQ7T5CdbBIyl2eCRxo1jHLySLW2
Cr4bHQIxzqxe8ejdAj4zFE5OSksIyUe76q6VQ/fpaKL2g008CmcEACNbK5AKQV/w
HpUB5JgR+G953KR+Doh05Tg/Nw==
-----END CERTIFICATE-----
