Certificate:
    Data:
        Version: 3 (0x2)
        Serial Number:
            fe:4e:f7:fd:c5:59:21:f0:bd:8c:c3:42:d9:d9:e5:8e
        Signature Algorithm: sha256WithRSAEncryption
        Issuer: CN=team2-net
        Validity
            Not Before: Aug  4 12:27:46 2022 GMT
            Not After : Jul 19 12:27:46 2025 GMT
        Subject: CN=team2-server
        Subject Public Key Info:
            Public Key Algorithm: rsaEncryption
                RSA Public-Key: (2048 bit)
                Modulus:
                    00:ed:46:01:46:de:18:b0:96:5d:3c:39:06:e4:41:
                    e9:88:be:34:52:9b:29:52:b2:6c:37:f5:5c:41:53:
                    75:3b:75:e2:6e:82:c6:f3:80:be:1b:f9:9f:5f:cd:
                    e8:b5:95:0f:9f:c7:ae:d0:26:d1:94:05:e3:b7:6e:
                    cf:2e:a1:79:55:fd:06:ab:93:bf:a1:35:4f:19:07:
                    2a:95:a6:2c:a0:5b:c7:be:02:d6:69:c4:65:58:f4:
                    81:54:41:48:03:c5:32:61:e7:81:b6:c4:a5:cd:02:
                    d6:41:7c:f7:38:f7:cd:67:9f:e9:0f:3a:1d:88:18:
                    af:3e:7b:10:47:a1:1c:1d:14:86:08:4f:8d:a5:3d:
                    3d:ed:99:88:ae:51:cc:ea:7b:2b:d5:49:d8:17:1e:
                    92:ab:3d:00:2a:b4:c3:cd:2e:86:55:6a:f7:67:5a:
                    06:7f:b8:25:36:49:d3:19:75:6c:17:51:27:39:97:
                    bc:16:c2:3c:b7:68:ba:a3:b9:28:3f:14:d8:45:22:
                    bc:c2:3a:7c:8d:fc:07:69:5d:46:ce:4e:97:6a:b6:
                    ed:6c:13:55:44:b2:93:2a:de:ce:de:47:08:34:f2:
                    80:9d:6a:1c:53:78:61:a1:79:1e:e9:dc:95:3d:51:
                    ac:f7:77:f6:c6:60:23:09:d9:8a:a6:ee:52:e9:45:
                    df:79
                Exponent: 65537 (0x10001)
        X509v3 extensions:
            X509v3 Basic Constraints: 
                CA:FALSE
            X509v3 Subject Key Identifier: 
                56:19:D5:10:9C:21:50:18:B5:FA:F4:B3:6B:EE:C5:7E:79:9E:8E:F6
            X509v3 Authority Key Identifier: 
                keyid:72:79:94:26:09:8D:44:B6:D7:F6:89:2A:79:49:D0:56:A0:BA:0A:1F
                DirName:/CN=team2-net
                serial:27:B3:92:A9:48:02:A7:15:20:75:45:F1:D6:81:46:DA:A0:E0:AE:5A

            X509v3 Extended Key Usage: 
                TLS Web Server Authentication
            X509v3 Key Usage: 
                Digital Signature, Key Encipherment
            X509v3 Subject Alternative Name: 
                DNS:team2-server
    Signature Algorithm: sha256WithRSAEncryption
         20:a3:1e:bd:3e:c8:a9:e8:6f:f5:7b:79:cf:be:07:9b:cd:65:
         a0:40:52:62:52:a7:42:00:79:50:87:5f:88:cc:8e:c2:d5:49:
         8b:10:2a:9e:28:46:fc:78:44:b6:a1:be:36:f6:6e:e6:c1:62:
         ae:f1:0c:ba:81:f7:1f:08:ab:9d:c8:b9:c7:fc:c5:1d:bf:87:
         c5:78:d2:de:a5:42:7b:e1:de:f6:30:0b:04:9c:e8:75:28:3b:
         43:f8:e2:cd:9e:65:82:a9:8c:01:43:d0:12:f4:f0:3c:08:f3:
         f6:cd:24:2e:c2:4d:bf:b5:4c:fa:f5:8b:7e:a7:ac:9d:4b:7f:
         8d:6f:58:c6:36:8c:86:b4:7f:44:df:48:49:20:9a:e9:56:69:
         d8:5c:87:bd:61:13:e5:80:e7:7b:b4:aa:49:36:2e:4b:f7:40:
         6d:00:24:4f:12:c1:e9:b3:b9:72:a3:9e:21:8f:a8:3b:77:db:
         9e:fb:6f:12:b5:51:31:af:fc:57:c9:14:b8:4e:63:6a:dc:fe:
         01:60:f0:d9:43:16:fd:fa:9d:d1:39:52:15:0e:90:78:32:ee:
         c8:f9:da:d3:c9:6a:aa:54:5a:72:56:21:9a:d3:ed:3b:a6:c7:
         01:d5:9e:51:3f:63:8d:c8:b1:43:4c:a8:43:7e:a1:28:67:cc:
         46:6f:a4:46
-----BEGIN CERTIFICATE-----
MIIDcDCCAligAwIBAgIRAP5O9/3FWSHwvYzDQtnZ5Y4wDQYJKoZIhvcNAQELBQAw
FDESMBAGA1UEAwwJdGVhbTItbmV0MB4XDTIyMDgwNDEyMjc0NloXDTI1MDcxOTEy
Mjc0NlowFzEVMBMGA1UEAwwMdGVhbTItc2VydmVyMIIBIjANBgkqhkiG9w0BAQEF
AAOCAQ8AMIIBCgKCAQEA7UYBRt4YsJZdPDkG5EHpiL40UpspUrJsN/VcQVN1O3Xi
boLG84C+G/mfX83otZUPn8eu0CbRlAXjt27PLqF5Vf0Gq5O/oTVPGQcqlaYsoFvH
vgLWacRlWPSBVEFIA8UyYeeBtsSlzQLWQXz3OPfNZ5/pDzodiBivPnsQR6EcHRSG
CE+NpT097ZmIrlHM6nsr1UnYFx6Sqz0AKrTDzS6GVWr3Z1oGf7glNknTGXVsF1En
OZe8FsI8t2i6o7koPxTYRSK8wjp8jfwHaV1Gzk6XarbtbBNVRLKTKt7O3kcINPKA
nWocU3hhoXke6dyVPVGs93f2xmAjCdmKpu5S6UXfeQIDAQABo4G5MIG2MAkGA1Ud
EwQCMAAwHQYDVR0OBBYEFFYZ1RCcIVAYtfr0s2vuxX55no72ME8GA1UdIwRIMEaA
FHJ5lCYJjUS21/aJKnlJ0FagugofoRikFjAUMRIwEAYDVQQDDAl0ZWFtMi1uZXSC
FCezkqlIAqcVIHVF8daBRtqg4K5aMBMGA1UdJQQMMAoGCCsGAQUFBwMBMAsGA1Ud
DwQEAwIFoDAXBgNVHREEEDAOggx0ZWFtMi1zZXJ2ZXIwDQYJKoZIhvcNAQELBQAD
ggEBACCjHr0+yKnob/V7ec++B5vNZaBAUmJSp0IAeVCHX4jMjsLVSYsQKp4oRvx4
RLahvjb2bubBYq7xDLqB9x8Iq53Iucf8xR2/h8V40t6lQnvh3vYwCwSc6HUoO0P4
4s2eZYKpjAFD0BL08DwI8/bNJC7CTb+1TPr1i36nrJ1Lf41vWMY2jIa0f0TfSEkg
mulWadhch71hE+WA53u0qkk2Lkv3QG0AJE8SwemzuXKjniGPqDt32577bxK1UTGv
/FfJFLhOY2rc/gFg8NlDFv36ndE5UhUOkHgy7sj52tPJaqpUWnJWIZrT7TumxwHV
nlE/Y43IsUNMqEN+oShnzEZvpEY=
-----END CERTIFICATE-----
