Certificate:
    Data:
        Version: 3 (0x2)
        Serial Number:
            b1:e1:53:78:7a:18:e5:bb:cf:d2:b8:de:21:32:52:a5
        Signature Algorithm: sha256WithRSAEncryption
        Issuer: CN=team22-net
        Validity
            Not Before: Aug  9 00:11:43 2022 GMT
            Not After : Jul 24 00:11:43 2025 GMT
        Subject: CN=team22-client
        Subject Public Key Info:
            Public Key Algorithm: rsaEncryption
                RSA Public-Key: (2048 bit)
                Modulus:
                    00:c8:44:da:fc:5b:1e:c5:08:0d:86:d6:38:1c:ce:
                    c1:46:eb:37:5f:52:c5:36:51:60:17:6c:8a:d2:c7:
                    26:a6:fd:29:a7:8c:8a:b2:25:b0:6e:90:2f:28:5a:
                    e2:6c:6e:fd:d7:2f:cb:6d:cc:ec:68:f8:4c:df:fe:
                    55:eb:54:63:02:38:d7:c2:c8:26:9b:c0:59:32:da:
                    17:ef:64:fb:3b:12:9f:6d:56:92:85:bb:d7:c2:b9:
                    36:75:3c:b5:a3:fe:d2:c1:8b:78:09:c4:6c:51:a7:
                    a1:95:dd:27:39:32:57:74:92:84:56:19:cf:4b:a4:
                    2b:19:a9:c7:db:7a:53:3b:fe:a1:27:3f:c4:46:7b:
                    14:75:e0:3e:49:f1:69:41:94:0c:f4:40:94:c2:e3:
                    63:91:5a:e6:19:9b:c3:21:2d:bd:20:15:1d:af:48:
                    51:30:a7:1f:0e:83:71:27:38:d8:52:45:f9:9b:af:
                    96:ad:32:95:26:79:8e:24:46:27:25:94:30:b7:04:
                    cb:fc:47:07:bc:ff:7d:c5:bd:21:e9:1a:71:97:81:
                    d4:5e:a1:b4:24:81:bd:46:f8:34:ca:a6:9b:77:c8:
                    b8:17:bb:87:be:6a:7a:81:b2:d4:ca:48:6c:f8:be:
                    66:f1:84:e4:6c:f1:74:2f:0a:20:0a:bc:fb:34:18:
                    80:f3
                Exponent: 65537 (0x10001)
        X509v3 extensions:
            X509v3 Basic Constraints: 
                CA:FALSE
            X509v3 Subject Key Identifier: 
                04:4D:AB:C3:ED:F3:5F:56:CE:86:A0:81:EC:72:C1:67:70:6D:9C:80
            X509v3 Authority Key Identifier: 
                keyid:57:F3:86:0D:11:4B:09:36:7A:73:DB:33:57:24:C9:52:1A:04:22:B9
                DirName:/CN=team22-net
                serial:1E:4D:A4:8C:46:3E:EA:5E:04:97:28:77:77:DE:78:03:1A:83:E4:08

            X509v3 Extended Key Usage: 
                TLS Web Client Authentication
            X509v3 Key Usage: 
                Digital Signature
    Signature Algorithm: sha256WithRSAEncryption
         0a:38:06:86:62:83:d0:7f:48:db:d5:ed:2f:54:d6:27:da:c2:
         d3:99:7f:ca:43:82:e9:17:55:f2:a4:8b:43:69:fa:2e:1b:9f:
         54:cd:b0:74:8a:19:46:8e:4f:7a:91:25:d7:c9:5f:fe:f2:9e:
         fe:21:8b:77:5a:0c:01:3a:05:46:aa:e7:05:1e:5a:1e:f0:ff:
         6e:7b:fd:68:76:d9:68:81:4e:00:ed:01:7b:67:48:f1:53:6b:
         5d:64:f4:b2:94:25:5a:4e:d6:1b:4b:68:0f:ab:28:69:15:39:
         99:19:f9:07:25:41:da:bc:99:b9:51:ec:84:c0:65:40:c7:3d:
         76:f0:c7:39:b8:14:fb:de:78:a1:2b:57:9b:0d:0f:a3:08:6e:
         d6:25:8f:bf:61:d4:de:ef:c3:01:20:95:88:50:fd:45:1e:f2:
         19:0d:ed:80:3b:f2:ca:05:82:68:6c:1c:80:bf:e9:0d:3c:42:
         6a:98:3f:bb:c1:c3:c1:23:65:70:12:45:a1:a3:8e:38:53:4b:
         c3:eb:8b:66:23:00:2f:89:85:ff:19:b5:fb:0e:80:a4:ba:c1:
         53:6b:42:4c:de:ca:04:af:e1:d9:cc:e6:2a:fd:f0:f7:f1:50:
         ba:a3:6b:32:b2:be:79:6a:e6:01:01:10:1d:3f:b9:a2:5e:74:
         88:c5:17:3f
-----BEGIN CERTIFICATE-----
MIIDWjCCAkKgAwIBAgIRALHhU3h6GOW7z9K43iEyUqUwDQYJKoZIhvcNAQELBQAw
FTETMBEGA1UEAwwKdGVhbTIyLW5ldDAeFw0yMjA4MDkwMDExNDNaFw0yNTA3MjQw
MDExNDNaMBgxFjAUBgNVBAMMDXRlYW0yMi1jbGllbnQwggEiMA0GCSqGSIb3DQEB
AQUAA4IBDwAwggEKAoIBAQDIRNr8Wx7FCA2G1jgczsFG6zdfUsU2UWAXbIrSxyam
/SmnjIqyJbBukC8oWuJsbv3XL8ttzOxo+Ezf/lXrVGMCONfCyCabwFky2hfvZPs7
Ep9tVpKFu9fCuTZ1PLWj/tLBi3gJxGxRp6GV3Sc5Mld0koRWGc9LpCsZqcfbelM7
/qEnP8RGexR14D5J8WlBlAz0QJTC42ORWuYZm8MhLb0gFR2vSFEwpx8Og3EnONhS
Rfmbr5atMpUmeY4kRicllDC3BMv8Rwe8/33FvSHpGnGXgdReobQkgb1G+DTKppt3
yLgXu4e+anqBstTKSGz4vmbxhORs8XQvCiAKvPs0GIDzAgMBAAGjgaEwgZ4wCQYD
VR0TBAIwADAdBgNVHQ4EFgQUBE2rw+3zX1bOhqCB7HLBZ3BtnIAwUAYDVR0jBEkw
R4AUV/OGDRFLCTZ6c9szVyTJUhoEIrmhGaQXMBUxEzARBgNVBAMMCnRlYW0yMi1u
ZXSCFB5NpIxGPupeBJcod3feeAMag+QIMBMGA1UdJQQMMAoGCCsGAQUFBwMCMAsG
A1UdDwQEAwIHgDANBgkqhkiG9w0BAQsFAAOCAQEACjgGhmKD0H9I29XtL1TWJ9rC
05l/ykOC6RdV8qSLQ2n6LhufVM2wdIoZRo5PepEl18lf/vKe/iGLd1oMAToFRqrn
BR5aHvD/bnv9aHbZaIFOAO0Be2dI8VNrXWT0spQlWk7WG0toD6soaRU5mRn5ByVB
2ryZuVHshMBlQMc9dvDHObgU+954oStXmw0Powhu1iWPv2HU3u/DASCViFD9RR7y
GQ3tgDvyygWCaGwcgL/pDTxCapg/u8HDwSNlcBJFoaOOOFNLw+uLZiMAL4mF/xm1
+w6ApLrBU2tCTN7KBK/h2czmKv3w9/FQuqNrMrK+eWrmAQEQHT+5ol50iMUXPw==
-----END CERTIFICATE-----
