Certificate:
    Data:
        Version: 3 (0x2)
        Serial Number:
            8f:9a:48:32:f2:46:3f:c9:9d:91:c6:4a:7b:df:5e:b6
        Signature Algorithm: sha256WithRSAEncryption
        Issuer: CN=team10-net
        Validity
            Not Before: Aug  4 12:27:52 2022 GMT
            Not After : Jul 19 12:27:52 2025 GMT
        Subject: CN=team10-server
        Subject Public Key Info:
            Public Key Algorithm: rsaEncryption
                RSA Public-Key: (2048 bit)
                Modulus:
                    00:bf:e4:8c:ed:25:12:06:fa:02:af:9f:74:0a:f5:
                    37:ae:a8:3b:64:a5:f9:10:24:69:5a:4c:ba:a3:69:
                    7b:3a:66:d5:3f:25:5b:fa:0a:c4:d2:a8:e1:d7:f0:
                    3d:b7:0f:dd:02:7b:29:81:b1:e9:c0:24:05:d5:b0:
                    d4:95:1d:a0:98:da:c1:39:86:1c:16:10:fa:40:55:
                    22:d1:b5:6f:9f:16:91:15:00:40:3c:9b:39:9f:c0:
                    ac:05:67:2d:73:b4:84:a8:2d:ce:ac:da:ee:91:81:
                    86:ec:8c:83:8f:d7:20:1e:cb:0c:96:92:27:aa:f9:
                    44:33:ed:09:00:d8:14:13:d8:b6:dd:8b:38:8b:14:
                    63:24:db:60:b0:c4:88:a5:60:ff:a8:2c:d1:97:3f:
                    e5:fa:ef:69:00:54:bc:0f:36:38:16:26:fd:4e:47:
                    9e:69:9f:31:f8:21:7e:e4:64:23:11:a3:cf:8d:be:
                    f0:4f:9c:ec:ff:13:27:71:7f:6f:38:5e:d3:85:90:
                    6d:82:7e:53:8d:69:79:0a:88:c7:9c:d2:f2:1a:3f:
                    9d:b5:e8:42:e4:05:54:28:8b:ff:1d:93:8e:b9:5b:
                    3b:8a:3a:b9:fc:45:01:1d:25:18:68:08:cb:20:cd:
                    75:77:24:c4:6f:26:59:5c:99:56:9f:02:ec:32:ec:
                    72:7d
                Exponent: 65537 (0x10001)
        X509v3 extensions:
            X509v3 Basic Constraints: 
                CA:FALSE
            X509v3 Subject Key Identifier: 
                7B:29:8A:B0:B0:BD:AF:39:C8:8C:89:78:ED:35:72:0D:F4:B8:1A:4A
            X509v3 Authority Key Identifier: 
                keyid:8B:E5:B1:BB:F0:17:0B:BD:F6:E3:D2:7A:84:87:32:9E:4C:BD:64:98
                DirName:/CN=team10-net
                serial:10:95:A5:FC:70:D9:D7:9C:25:11:66:89:C5:D2:98:73:8B:B8:62:8C

            X509v3 Extended Key Usage: 
                TLS Web Server Authentication
            X509v3 Key Usage: 
                Digital Signature, Key Encipherment
            X509v3 Subject Alternative Name: 
                DNS:team10-server
    Signature Algorithm: sha256WithRSAEncryption
         a4:2a:2d:d9:e6:9b:f1:a4:42:91:00:51:81:44:c8:2b:9e:d4:
         77:f4:3c:e9:eb:37:7b:f0:85:b0:96:f3:6a:04:88:bf:13:41:
         81:48:cd:fb:eb:23:23:39:96:77:52:f0:4a:77:a6:1f:59:b1:
         21:51:b6:e9:84:a3:1c:d9:7d:f6:a5:da:c1:18:66:95:6f:e9:
         4a:3c:56:ba:3a:83:a0:05:a0:98:22:03:d1:67:5b:93:c2:99:
         08:84:d6:b6:a3:cb:9f:a2:66:02:57:56:7b:03:b2:e5:47:ac:
         09:8a:3c:a7:f2:0e:a4:b2:b4:9f:40:ea:84:3b:61:4c:50:82:
         53:84:a8:50:79:b9:47:e3:2d:38:d5:ff:d8:52:10:1b:5a:05:
         28:75:34:a3:b6:69:c8:8d:28:07:dd:c3:fc:87:aa:5b:00:34:
         40:80:f5:3f:6e:b5:92:5b:4e:6f:14:0a:3f:14:5a:a6:41:fa:
         8a:37:44:92:2d:91:ad:56:f4:2f:f1:0f:78:9c:a7:6d:c0:ed:
         cd:a6:4a:6b:fb:ba:d3:f0:92:34:95:7b:44:9b:b1:37:35:08:
         71:7b:1b:ad:79:36:76:03:d5:3e:5d:87:c8:a1:0c:d5:fa:c3:
         48:ac:c8:ee:cd:34:46:1f:9d:d0:28:fd:10:8b:92:c6:b2:37:
         12:30:53:74
-----BEGIN CERTIFICATE-----
MIIDdDCCAlygAwIBAgIRAI+aSDLyRj/JnZHGSnvfXrYwDQYJKoZIhvcNAQELBQAw
FTETMBEGA1UEAwwKdGVhbTEwLW5ldDAeFw0yMjA4MDQxMjI3NTJaFw0yNTA3MTkx
MjI3NTJaMBgxFjAUBgNVBAMMDXRlYW0xMC1zZXJ2ZXIwggEiMA0GCSqGSIb3DQEB
AQUAA4IBDwAwggEKAoIBAQC/5IztJRIG+gKvn3QK9TeuqDtkpfkQJGlaTLqjaXs6
ZtU/JVv6CsTSqOHX8D23D90CeymBsenAJAXVsNSVHaCY2sE5hhwWEPpAVSLRtW+f
FpEVAEA8mzmfwKwFZy1ztISoLc6s2u6RgYbsjIOP1yAeywyWkieq+UQz7QkA2BQT
2LbdiziLFGMk22CwxIilYP+oLNGXP+X672kAVLwPNjgWJv1OR55pnzH4IX7kZCMR
o8+NvvBPnOz/Eydxf284XtOFkG2CflONaXkKiMec0vIaP5216ELkBVQoi/8dk465
WzuKOrn8RQEdJRhoCMsgzXV3JMRvJllcmVafAuwy7HJ9AgMBAAGjgbswgbgwCQYD
VR0TBAIwADAdBgNVHQ4EFgQUeymKsLC9rznIjIl47TVyDfS4GkowUAYDVR0jBEkw
R4AUi+Wxu/AXC73249J6hIcynky9ZJihGaQXMBUxEzARBgNVBAMMCnRlYW0xMC1u
ZXSCFBCVpfxw2decJRFmicXSmHOLuGKMMBMGA1UdJQQMMAoGCCsGAQUFBwMBMAsG
A1UdDwQEAwIFoDAYBgNVHREEETAPgg10ZWFtMTAtc2VydmVyMA0GCSqGSIb3DQEB
CwUAA4IBAQCkKi3Z5pvxpEKRAFGBRMgrntR39Dzp6zd78IWwlvNqBIi/E0GBSM37
6yMjOZZ3UvBKd6YfWbEhUbbphKMc2X32pdrBGGaVb+lKPFa6OoOgBaCYIgPRZ1uT
wpkIhNa2o8ufomYCV1Z7A7LlR6wJijyn8g6ksrSfQOqEO2FMUIJThKhQeblH4y04
1f/YUhAbWgUodTSjtmnIjSgH3cP8h6pbADRAgPU/brWSW05vFAo/FFqmQfqKN0SS
LZGtVvQv8Q94nKdtwO3Npkpr+7rT8JI0lXtEm7E3NQhxexuteTZ2A9U+XYfIoQzV
+sNIrMjuzTRGH53QKP0Qi5LGsjcSMFN0
-----END CERTIFICATE-----
