Certificate:
    Data:
        Version: 3 (0x2)
        Serial Number:
            61:c6:19:e8:3b:79:6f:a5:cf:e1:75:58:94:08:82:59
        Signature Algorithm: sha256WithRSAEncryption
        Issuer: CN=team9-net
        Validity
            Not Before: Aug  4 12:27:52 2022 GMT
            Not After : Jul 19 12:27:52 2025 GMT
        Subject: CN=team9-client
        Subject Public Key Info:
            Public Key Algorithm: rsaEncryption
                RSA Public-Key: (2048 bit)
                Modulus:
                    00:c8:23:4d:21:a2:f1:8f:b2:b8:67:c7:48:c6:7a:
                    60:32:55:fe:e3:fa:7a:40:08:ea:2a:9d:41:b6:31:
                    62:d3:29:8d:9f:73:11:08:6d:42:0b:b2:88:57:ae:
                    d8:06:45:29:51:fa:d1:27:7f:91:38:18:16:17:9a:
                    14:ed:d7:c4:54:d1:c1:6d:3c:0b:70:ef:6e:f9:06:
                    f7:9a:1d:4b:cb:27:22:a7:4b:2a:d2:a3:c2:61:9c:
                    11:26:a0:0b:ef:3a:05:5b:69:a8:b3:5f:ad:36:ef:
                    47:72:56:38:b1:43:c0:5e:dd:d0:b2:7e:43:75:9c:
                    5b:6b:ad:59:5a:97:71:6e:84:20:9d:aa:3f:cf:3a:
                    74:36:12:c3:c7:80:bd:31:43:ba:2a:67:86:dd:f4:
                    ce:86:42:5f:0f:63:1d:5a:70:e0:6e:d4:73:eb:89:
                    64:5a:ae:7b:58:d0:20:58:20:dd:f1:c4:24:ba:35:
                    6f:0e:90:df:9a:4d:28:f8:46:f9:94:46:a0:d9:21:
                    93:42:4f:83:50:f0:65:8e:de:f6:dd:5d:d5:40:ad:
                    27:fb:84:5e:9a:cf:d2:c0:36:d4:c6:46:72:9b:c5:
                    42:4a:7b:ec:65:67:9e:36:ed:89:b3:32:c8:bb:88:
                    1a:8f:7b:ec:2a:35:bd:90:70:89:dd:65:16:bd:26:
                    32:45
                Exponent: 65537 (0x10001)
        X509v3 extensions:
            X509v3 Basic Constraints: 
                CA:FALSE
            X509v3 Subject Key Identifier: 
                24:92:B1:39:FA:25:AA:11:7E:5D:D2:4F:38:2D:49:06:18:69:9F:DE
            X509v3 Authority Key Identifier: 
                keyid:68:FA:51:9B:A1:2F:FC:F1:B2:8D:3D:D5:D6:74:17:A4:8A:08:0B:15
                DirName:/CN=team9-net
                serial:19:4D:80:1F:25:D6:50:09:4D:A4:B4:92:7C:6F:E6:96:E0:CD:A1:02

            X509v3 Extended Key Usage: 
                TLS Web Client Authentication
            X509v3 Key Usage: 
                Digital Signature
    Signature Algorithm: sha256WithRSAEncryption
         30:36:e8:a5:45:5e:fc:ec:36:1f:eb:75:58:86:9a:90:69:42:
         b5:3a:0a:34:bf:27:10:b5:b9:eb:35:3b:8a:51:69:55:8c:81:
         b1:83:f8:41:96:fb:96:c5:5e:79:b0:1c:2f:d6:13:4e:6c:a8:
         94:6e:23:c7:48:6a:ba:27:08:97:ad:d2:7b:f9:e1:66:7b:17:
         7f:ec:bc:63:01:b7:1b:44:0e:66:55:67:9d:cd:13:e1:84:95:
         28:82:15:76:c6:a8:24:f5:b8:cd:c1:02:e5:a0:e0:0f:a0:02:
         b4:06:5c:db:10:a2:b5:4a:a5:6a:2e:68:fe:ef:c9:88:f6:a3:
         2b:7b:15:0b:5b:92:7b:98:56:d8:68:4c:45:cf:e5:be:8b:b5:
         cb:68:51:08:a0:87:70:17:18:52:6e:17:6b:68:4f:7e:08:b7:
         95:de:86:d7:e3:a6:8d:55:d4:d0:9e:71:dd:98:8c:18:2d:8c:
         ae:ca:38:bd:06:f1:99:02:ed:1c:3c:ba:58:0f:58:ce:10:de:
         14:18:b6:ed:9b:88:c8:2b:8f:c3:96:b4:ca:35:e6:88:21:be:
         0a:95:d1:c9:b8:f0:5a:1c:5d:8b:24:e4:d5:21:7c:6c:f8:8c:
         be:df:b7:15:e3:1b:d3:f2:de:5a:9e:cc:ef:4a:0c:c9:c6:f1:
         2b:81:e6:0a
-----BEGIN CERTIFICATE-----
MIIDVjCCAj6gAwIBAgIQYcYZ6Dt5b6XP4XVYlAiCWTANBgkqhkiG9w0BAQsFADAU
MRIwEAYDVQQDDAl0ZWFtOS1uZXQwHhcNMjIwODA0MTIyNzUyWhcNMjUwNzE5MTIy
NzUyWjAXMRUwEwYDVQQDDAx0ZWFtOS1jbGllbnQwggEiMA0GCSqGSIb3DQEBAQUA
A4IBDwAwggEKAoIBAQDII00hovGPsrhnx0jGemAyVf7j+npACOoqnUG2MWLTKY2f
cxEIbUILsohXrtgGRSlR+tEnf5E4GBYXmhTt18RU0cFtPAtw7275BveaHUvLJyKn
SyrSo8JhnBEmoAvvOgVbaaizX60270dyVjixQ8Be3dCyfkN1nFtrrVlal3FuhCCd
qj/POnQ2EsPHgL0xQ7oqZ4bd9M6GQl8PYx1acOBu1HPriWRarntY0CBYIN3xxCS6
NW8OkN+aTSj4RvmURqDZIZNCT4NQ8GWO3vbdXdVArSf7hF6az9LANtTGRnKbxUJK
e+xlZ5427YmzMsi7iBqPe+wqNb2QcIndZRa9JjJFAgMBAAGjgaAwgZ0wCQYDVR0T
BAIwADAdBgNVHQ4EFgQUJJKxOfolqhF+XdJPOC1JBhhpn94wTwYDVR0jBEgwRoAU
aPpRm6Ev/PGyjT3V1nQXpIoICxWhGKQWMBQxEjAQBgNVBAMMCXRlYW05LW5ldIIU
GU2AHyXWUAlNpLSSfG/mluDNoQIwEwYDVR0lBAwwCgYIKwYBBQUHAwIwCwYDVR0P
BAQDAgeAMA0GCSqGSIb3DQEBCwUAA4IBAQAwNuilRV787DYf63VYhpqQaUK1Ogo0
vycQtbnrNTuKUWlVjIGxg/hBlvuWxV55sBwv1hNObKiUbiPHSGq6JwiXrdJ7+eFm
exd/7LxjAbcbRA5mVWedzRPhhJUoghV2xqgk9bjNwQLloOAPoAK0BlzbEKK1SqVq
Lmj+78mI9qMrexULW5J7mFbYaExFz+W+i7XLaFEIoIdwFxhSbhdraE9+CLeV3obX
46aNVdTQnnHdmIwYLYyuyji9BvGZAu0cPLpYD1jOEN4UGLbtm4jIK4/DlrTKNeaI
Ib4KldHJuPBaHF2LJOTVIXxs+Iy+37cV4xvT8t5anszvSgzJxvErgeYK
-----END CERTIFICATE-----
