Certificate:
    Data:
        Version: 3 (0x2)
        Serial Number:
            0e:c9:20:18:60:96:54:69:4d:40:37:a9:2e:99:d2:b4
        Signature Algorithm: sha256WithRSAEncryption
        Issuer: CN=team1-net
        Validity
            Not Before: Aug  9 18:52:25 2022 GMT
            Not After : Jul 24 18:52:25 2025 GMT
        Subject: CN=team1-server
        Subject Public Key Info:
            Public Key Algorithm: rsaEncryption
                RSA Public-Key: (2048 bit)
                Modulus:
                    00:c6:c5:d5:f4:44:76:58:4b:2e:4a:96:95:61:76:
                    f6:4b:44:9a:cb:e3:58:fb:4e:53:ee:eb:76:03:09:
                    dc:ee:57:15:be:e5:98:5a:cd:8e:97:98:3e:b6:09:
                    62:75:b7:49:bc:33:7c:e0:7c:2b:38:39:fc:c4:7e:
                    6f:a8:ef:51:c2:1f:bf:32:dc:c6:a3:0e:08:83:8a:
                    40:5d:b1:15:55:f5:a6:82:be:93:32:b0:ba:c8:55:
                    6c:bb:ad:ab:af:e2:9e:eb:80:5e:46:43:9f:23:8c:
                    dd:8e:cd:0b:df:1c:dd:e3:32:e9:27:6d:1d:ff:d4:
                    a2:85:91:ad:0f:08:28:16:52:14:22:77:15:fb:fe:
                    fa:9a:7a:ec:a5:41:be:c9:92:78:41:10:1f:0d:36:
                    2c:aa:a9:43:20:35:6e:58:a1:87:c1:09:bb:cd:11:
                    be:9c:86:b5:a3:b4:c3:60:85:d4:ea:31:49:8c:b1:
                    1c:62:35:1c:89:cb:fe:cf:fa:95:01:fb:ac:a4:42:
                    ea:4c:94:27:c7:ae:f8:20:07:d7:ad:6f:19:64:53:
                    fb:00:96:32:1b:c3:b3:69:59:10:62:45:a3:03:e1:
                    a1:96:ec:62:64:dc:5f:b3:f5:c4:d6:65:fa:e4:ae:
                    c8:38:b1:43:e5:5e:2e:d1:59:9c:4a:e0:80:c2:49:
                    5a:b3
                Exponent: 65537 (0x10001)
        X509v3 extensions:
            X509v3 Basic Constraints: 
                CA:FALSE
            X509v3 Subject Key Identifier: 
                B7:9F:02:C1:A3:73:94:C6:F1:E6:A7:63:0A:2D:E9:49:75:39:4D:76
            X509v3 Authority Key Identifier: 
                keyid:5F:2F:E1:23:83:CA:27:E4:97:D5:E1:3B:B6:55:79:36:D9:13:45:FC
                DirName:/CN=team1-net
                serial:49:39:22:59:E6:2C:1B:91:65:62:B5:3C:FA:76:87:A8:FE:DF:27:25

            X509v3 Extended Key Usage: 
                TLS Web Server Authentication
            X509v3 Key Usage: 
                Digital Signature, Key Encipherment
            X509v3 Subject Alternative Name: 
                DNS:team1-server
    Signature Algorithm: sha256WithRSAEncryption
         1b:69:3c:4f:08:8d:06:9a:65:a4:ac:dd:84:40:15:28:a9:2b:
         52:ac:c4:e3:22:4f:45:17:5b:ea:f5:fe:4d:e8:a5:ec:a8:07:
         c3:24:ee:f0:b8:2b:7f:ef:bf:74:35:89:52:b0:fe:23:11:d1:
         62:ae:65:3a:91:d1:93:f7:b6:5d:aa:86:f5:b4:15:a1:71:bf:
         16:69:11:fc:a0:78:46:4b:ad:af:dd:99:64:8b:b7:1e:6c:fd:
         43:f2:fb:a0:f6:bb:c6:6b:1d:bf:ec:71:c2:cd:6c:76:83:c3:
         4f:f4:eb:4b:ba:e9:3d:fd:20:15:5d:e7:5e:3f:65:47:8f:64:
         2c:95:2e:6b:f7:e6:75:7d:9f:ca:fd:e3:c6:de:f1:25:75:97:
         30:b0:38:55:c4:29:c5:a2:66:1e:45:f6:31:8e:35:62:45:f5:
         15:d7:69:40:39:08:46:57:e0:68:22:92:a4:20:40:07:26:69:
         7d:18:ec:6e:71:04:48:0b:02:e2:86:63:3d:7e:ed:21:29:5d:
         0f:2a:03:bc:04:3f:28:4f:00:0f:03:57:60:6d:49:3f:1f:07:
         ff:db:58:cb:23:ac:ea:83:ad:68:c0:79:33:01:0c:9f:78:fc:
         f3:11:ac:ae:3c:74:d1:6b:ad:b9:61:58:6f:7a:58:a2:90:8b:
         a9:92:b3:14
-----BEGIN CERTIFICATE-----
MIIDbzCCAlegAwIBAgIQDskgGGCWVGlNQDepLpnStDANBgkqhkiG9w0BAQsFADAU
MRIwEAYDVQQDDAl0ZWFtMS1uZXQwHhcNMjIwODA5MTg1MjI1WhcNMjUwNzI0MTg1
MjI1WjAXMRUwEwYDVQQDDAx0ZWFtMS1zZXJ2ZXIwggEiMA0GCSqGSIb3DQEBAQUA
A4IBDwAwggEKAoIBAQDGxdX0RHZYSy5KlpVhdvZLRJrL41j7TlPu63YDCdzuVxW+
5ZhazY6XmD62CWJ1t0m8M3zgfCs4OfzEfm+o71HCH78y3MajDgiDikBdsRVV9aaC
vpMysLrIVWy7rauv4p7rgF5GQ58jjN2OzQvfHN3jMuknbR3/1KKFka0PCCgWUhQi
dxX7/vqaeuylQb7JknhBEB8NNiyqqUMgNW5YoYfBCbvNEb6chrWjtMNghdTqMUmM
sRxiNRyJy/7P+pUB+6ykQupMlCfHrvggB9etbxlkU/sAljIbw7NpWRBiRaMD4aGW
7GJk3F+z9cTWZfrkrsg4sUPlXi7RWZxK4IDCSVqzAgMBAAGjgbkwgbYwCQYDVR0T
BAIwADAdBgNVHQ4EFgQUt58CwaNzlMbx5qdjCi3pSXU5TXYwTwYDVR0jBEgwRoAU
Xy/hI4PKJ+SX1eE7tlV5NtkTRfyhGKQWMBQxEjAQBgNVBAMMCXRlYW0xLW5ldIIU
STkiWeYsG5FlYrU8+naHqP7fJyUwEwYDVR0lBAwwCgYIKwYBBQUHAwEwCwYDVR0P
BAQDAgWgMBcGA1UdEQQQMA6CDHRlYW0xLXNlcnZlcjANBgkqhkiG9w0BAQsFAAOC
AQEAG2k8TwiNBpplpKzdhEAVKKkrUqzE4yJPRRdb6vX+Teil7KgHwyTu8Lgrf++/
dDWJUrD+IxHRYq5lOpHRk/e2XaqG9bQVoXG/FmkR/KB4Rkutr92ZZIu3Hmz9Q/L7
oPa7xmsdv+xxws1sdoPDT/TrS7rpPf0gFV3nXj9lR49kLJUua/fmdX2fyv3jxt7x
JXWXMLA4VcQpxaJmHkX2MY41YkX1FddpQDkIRlfgaCKSpCBAByZpfRjsbnEESAsC
4oZjPX7tISldDyoDvAQ/KE8ADwNXYG1JPx8H/9tYyyOs6oOtaMB5MwEMn3j88xGs
rjx00WutuWFYb3pYopCLqZKzFA==
-----END CERTIFICATE-----
