Certificate:
    Data:
        Version: 3 (0x2)
        Serial Number:
            f9:c2:db:97:bd:fd:8a:1d:32:0e:da:df:0b:c5:8e:26
        Signature Algorithm: sha256WithRSAEncryption
        Issuer: CN=team1-net
        Validity
            Not Before: Aug  9 18:52:25 2022 GMT
            Not After : Jul 24 18:52:25 2025 GMT
        Subject: CN=team1-client
        Subject Public Key Info:
            Public Key Algorithm: rsaEncryption
                RSA Public-Key: (2048 bit)
                Modulus:
                    00:ca:46:a9:e6:f9:d1:5b:e9:11:1e:cf:3a:81:69:
                    ce:28:b2:0e:ad:70:41:4a:c1:8c:e0:2d:04:e3:6f:
                    5a:9b:86:6a:1c:00:bd:da:f9:70:2c:10:5f:7f:31:
                    d6:32:96:e2:4a:4b:87:73:5e:bc:a2:61:b0:22:8a:
                    50:03:54:d6:e1:5d:1e:e9:06:20:e5:fa:ee:e3:1b:
                    34:c6:be:e9:54:0f:99:b4:6e:5e:d7:49:7d:cf:39:
                    a4:95:06:be:d9:05:68:ca:df:05:bc:c4:de:3a:a6:
                    42:01:e7:89:9d:fd:cb:49:ac:66:66:e0:ae:e6:c8:
                    32:e3:7d:64:c0:35:e3:82:60:7c:9e:64:a3:45:dd:
                    68:06:aa:db:ce:88:fa:73:c6:35:f3:3d:32:da:6a:
                    08:2c:81:cf:fe:9e:99:7c:7a:c1:a0:05:a5:64:d0:
                    22:95:23:8c:0b:6b:8c:62:7d:86:6e:e6:f6:a2:83:
                    b5:ff:38:6f:d7:26:1d:22:e3:10:7c:df:11:32:0b:
                    23:84:5f:49:a7:8d:85:db:90:07:66:cd:6f:8c:9e:
                    23:a6:08:89:c6:e5:0f:78:81:f9:86:8f:55:cf:77:
                    7c:b3:65:f9:f9:b1:da:ba:89:5a:15:51:cb:c7:28:
                    64:b2:7d:09:3c:8f:7f:05:bd:97:63:61:d4:e8:6e:
                    30:dd
                Exponent: 65537 (0x10001)
        X509v3 extensions:
            X509v3 Basic Constraints: 
                CA:FALSE
            X509v3 Subject Key Identifier: 
                2C:C8:11:E2:24:93:DA:9B:C5:0E:9E:C2:F0:87:27:F9:2C:DA:4C:A8
            X509v3 Authority Key Identifier: 
                keyid:5F:2F:E1:23:83:CA:27:E4:97:D5:E1:3B:B6:55:79:36:D9:13:45:FC
                DirName:/CN=team1-net
                serial:49:39:22:59:E6:2C:1B:91:65:62:B5:3C:FA:76:87:A8:FE:DF:27:25

            X509v3 Extended Key Usage: 
                TLS Web Client Authentication
            X509v3 Key Usage: 
                Digital Signature
    Signature Algorithm: sha256WithRSAEncryption
         67:ed:e1:1b:63:cf:e9:24:9c:c4:e3:df:3d:3d:88:dc:c5:70:
         a7:c4:89:f4:be:9b:ce:d3:b4:59:67:54:f1:c2:73:17:c2:71:
         5e:42:a9:a2:f7:a6:1a:c9:94:48:42:2d:f1:32:02:36:93:0a:
         35:e9:7a:0f:1d:a1:fc:b8:0b:c3:d8:a8:07:2f:d2:63:32:21:
         2f:6b:40:02:e0:d2:fc:b0:ea:76:68:73:e0:d3:81:40:28:f6:
         df:bd:23:b5:24:60:0b:4f:c5:ed:5b:39:82:21:2f:8c:c2:36:
         79:25:84:ff:f0:bb:ed:ba:db:5f:7a:b0:b7:14:9e:a5:03:53:
         32:03:e2:69:cb:dc:c4:50:62:8b:b3:56:ed:53:ca:d1:54:a2:
         7f:77:78:f1:42:5d:c9:f7:03:e4:85:c6:31:e8:0b:c6:c3:95:
         60:29:2e:21:07:8d:37:db:bc:3e:73:75:80:de:fd:a0:6b:5f:
         67:bc:af:76:8e:da:5e:d3:be:c0:19:22:34:a2:87:a3:6e:fa:
         ec:a0:51:4c:05:ad:70:ef:15:66:f8:96:4c:39:94:3b:b5:b3:
         99:cd:9c:fc:8f:96:b1:82:5e:e9:1f:99:e9:4d:45:8b:2e:6d:
         5d:aa:ca:2b:65:24:51:d1:08:09:9b:f6:6a:76:73:9d:f1:5a:
         ac:eb:a4:10
-----BEGIN CERTIFICATE-----
MIIDVzCCAj+gAwIBAgIRAPnC25e9/YodMg7a3wvFjiYwDQYJKoZIhvcNAQELBQAw
FDESMBAGA1UEAwwJdGVhbTEtbmV0MB4XDTIyMDgwOTE4NTIyNVoXDTI1MDcyNDE4
NTIyNVowFzEVMBMGA1UEAwwMdGVhbTEtY2xpZW50MIIBIjANBgkqhkiG9w0BAQEF
AAOCAQ8AMIIBCgKCAQEAykap5vnRW+kRHs86gWnOKLIOrXBBSsGM4C0E429am4Zq
HAC92vlwLBBffzHWMpbiSkuHc168omGwIopQA1TW4V0e6QYg5fru4xs0xr7pVA+Z
tG5e10l9zzmklQa+2QVoyt8FvMTeOqZCAeeJnf3LSaxmZuCu5sgy431kwDXjgmB8
nmSjRd1oBqrbzoj6c8Y18z0y2moILIHP/p6ZfHrBoAWlZNAilSOMC2uMYn2Gbub2
ooO1/zhv1yYdIuMQfN8RMgsjhF9Jp42F25AHZs1vjJ4jpgiJxuUPeIH5ho9Vz3d8
s2X5+bHauolaFVHLxyhksn0JPI9/Bb2XY2HU6G4w3QIDAQABo4GgMIGdMAkGA1Ud
EwQCMAAwHQYDVR0OBBYEFCzIEeIkk9qbxQ6ewvCHJ/ks2kyoME8GA1UdIwRIMEaA
FF8v4SODyifkl9XhO7ZVeTbZE0X8oRikFjAUMRIwEAYDVQQDDAl0ZWFtMS1uZXSC
FEk5IlnmLBuRZWK1PPp2h6j+3yclMBMGA1UdJQQMMAoGCCsGAQUFBwMCMAsGA1Ud
DwQEAwIHgDANBgkqhkiG9w0BAQsFAAOCAQEAZ+3hG2PP6SScxOPfPT2I3MVwp8SJ
9L6bztO0WWdU8cJzF8JxXkKpovemGsmUSEIt8TICNpMKNel6Dx2h/LgLw9ioBy/S
YzIhL2tAAuDS/LDqdmhz4NOBQCj2370jtSRgC0/F7Vs5giEvjMI2eSWE//C77brb
X3qwtxSepQNTMgPiacvcxFBii7NW7VPK0VSif3d48UJdyfcD5IXGMegLxsOVYCku
IQeNN9u8PnN1gN79oGtfZ7yvdo7aXtO+wBkiNKKHo2767KBRTAWtcO8VZviWTDmU
O7Wzmc2c/I+WsYJe6R+Z6U1Fiy5tXarKK2UkUdEICZv2anZznfFarOukEA==
-----END CERTIFICATE-----
