Certificate:
    Data:
        Version: 3 (0x2)
        Serial Number:
            fe:40:b6:fa:72:7a:9a:9e:4a:15:1c:d7:46:f3:8e:21
        Signature Algorithm: sha256WithRSAEncryption
        Issuer: CN=team1-net
        Validity
            Not Before: Aug  4 12:27:45 2022 GMT
            Not After : Jul 19 12:27:45 2025 GMT
        Subject: CN=team1-server
        Subject Public Key Info:
            Public Key Algorithm: rsaEncryption
                RSA Public-Key: (2048 bit)
                Modulus:
                    00:ae:b6:d1:10:e7:45:45:9b:0a:ec:63:c9:50:01:
                    c8:15:63:ed:b3:c8:8b:94:65:3a:9a:dd:5e:bd:fb:
                    1d:26:28:97:e7:43:33:17:00:69:c5:e6:9d:7a:80:
                    24:9a:4b:66:e4:58:5f:91:9d:f1:e7:3c:fb:70:70:
                    f3:1f:3e:8c:46:06:49:01:46:5a:67:a2:7a:bf:30:
                    0d:39:39:9c:46:29:1c:22:41:fd:8a:76:5d:c5:e9:
                    41:a6:f3:f4:25:2f:35:02:b0:6f:89:af:9c:53:6c:
                    db:67:16:d5:fb:c8:22:37:8c:a3:8a:2e:ce:28:6e:
                    e6:5d:4d:f6:44:4d:db:58:4f:49:82:38:5b:cb:75:
                    e5:1f:66:19:d2:03:7d:35:cb:b6:49:5d:75:8c:29:
                    66:16:d8:70:89:c1:e8:07:75:93:cf:d8:7d:08:dc:
                    b1:7c:d8:1c:b7:a3:a0:55:5d:da:09:32:48:30:c1:
                    99:33:7a:07:13:51:11:08:6b:de:f8:83:87:6f:bb:
                    4c:c6:88:32:fd:df:33:c5:25:ef:41:2c:69:34:bc:
                    2c:a8:65:a8:26:45:3e:bd:67:7b:de:44:af:a4:8f:
                    cb:24:01:06:9b:a4:db:9c:62:6e:a1:a6:35:e4:8d:
                    8b:3d:76:35:d9:e6:1c:5e:a2:fe:a5:ba:58:b8:66:
                    1d:cb
                Exponent: 65537 (0x10001)
        X509v3 extensions:
            X509v3 Basic Constraints: 
                CA:FALSE
            X509v3 Subject Key Identifier: 
                95:F5:49:10:C1:FE:58:15:79:A9:0F:94:7E:FE:7D:E4:D1:4B:FF:24
            X509v3 Authority Key Identifier: 
                keyid:94:28:C1:0D:36:3F:F2:62:0B:A7:7B:30:73:CF:F0:32:F7:49:EA:78
                DirName:/CN=team1-net
                serial:3B:C7:CC:20:EA:6F:27:A7:E3:30:9A:DA:3B:22:5C:03:33:C0:7F:F1

            X509v3 Extended Key Usage: 
                TLS Web Server Authentication
            X509v3 Key Usage: 
                Digital Signature, Key Encipherment
            X509v3 Subject Alternative Name: 
                DNS:team1-server
    Signature Algorithm: sha256WithRSAEncryption
         4e:f4:f7:fb:6a:e6:fd:9a:f8:72:97:a8:2c:37:62:29:ba:8a:
         e8:0f:21:08:d9:d4:d2:bd:7a:fc:26:5a:c3:d4:53:11:3b:1a:
         4f:5d:eb:09:36:e1:8e:b3:be:32:39:85:ae:6a:c5:47:5a:70:
         a9:76:e4:23:4f:f0:27:bd:8a:ba:d3:41:54:da:61:90:cf:79:
         c9:f5:f1:14:83:75:25:0c:d7:d5:57:1e:5e:76:6a:11:da:b9:
         6a:c3:85:24:fc:41:5f:40:d2:73:92:c0:1a:0f:76:55:d6:c8:
         bf:d2:d2:f4:4a:c8:2f:12:3a:40:34:3e:f2:c0:cd:1f:0a:4e:
         df:b3:7e:f6:8a:c6:68:ff:1e:39:18:ca:af:3f:10:d5:c2:19:
         49:ec:d9:27:e7:1b:57:7f:37:37:49:a5:81:98:c9:8b:c3:19:
         a4:e6:68:c4:a5:b0:5b:ba:4d:02:11:b7:95:0c:64:a5:b3:f6:
         68:82:2a:e1:8c:66:80:06:b1:96:7c:2b:f1:f1:41:78:dd:87:
         02:7e:22:d5:5d:1e:ea:c0:7b:7a:0b:a0:05:f0:e9:85:cc:ab:
         91:fd:21:46:fc:e4:de:7c:a7:c6:47:f0:51:e7:e9:f0:fe:3b:
         01:42:e3:ea:61:3f:1d:86:bd:60:36:e3:52:52:d9:86:19:d7:
         1e:1d:72:e6
-----BEGIN CERTIFICATE-----
MIIDcDCCAligAwIBAgIRAP5AtvpyepqeShUc10bzjiEwDQYJKoZIhvcNAQELBQAw
FDESMBAGA1UEAwwJdGVhbTEtbmV0MB4XDTIyMDgwNDEyMjc0NVoXDTI1MDcxOTEy
Mjc0NVowFzEVMBMGA1UEAwwMdGVhbTEtc2VydmVyMIIBIjANBgkqhkiG9w0BAQEF
AAOCAQ8AMIIBCgKCAQEArrbREOdFRZsK7GPJUAHIFWPts8iLlGU6mt1evfsdJiiX
50MzFwBpxeadeoAkmktm5FhfkZ3x5zz7cHDzHz6MRgZJAUZaZ6J6vzANOTmcRikc
IkH9inZdxelBpvP0JS81ArBvia+cU2zbZxbV+8giN4yjii7OKG7mXU32RE3bWE9J
gjhby3XlH2YZ0gN9Ncu2SV11jClmFthwicHoB3WTz9h9CNyxfNgct6OgVV3aCTJI
MMGZM3oHE1ERCGve+IOHb7tMxogy/d8zxSXvQSxpNLwsqGWoJkU+vWd73kSvpI/L
JAEGm6TbnGJuoaY15I2LPXY12eYcXqL+pbpYuGYdywIDAQABo4G5MIG2MAkGA1Ud
EwQCMAAwHQYDVR0OBBYEFJX1SRDB/lgVeakPlH7+feTRS/8kME8GA1UdIwRIMEaA
FJQowQ02P/JiC6d7MHPP8DL3Sep4oRikFjAUMRIwEAYDVQQDDAl0ZWFtMS1uZXSC
FDvHzCDqbyen4zCa2jsiXAMzwH/xMBMGA1UdJQQMMAoGCCsGAQUFBwMBMAsGA1Ud
DwQEAwIFoDAXBgNVHREEEDAOggx0ZWFtMS1zZXJ2ZXIwDQYJKoZIhvcNAQELBQAD
ggEBAE709/tq5v2a+HKXqCw3Yim6iugPIQjZ1NK9evwmWsPUUxE7Gk9d6wk24Y6z
vjI5ha5qxUdacKl25CNP8Ce9irrTQVTaYZDPecn18RSDdSUM19VXHl52ahHauWrD
hST8QV9A0nOSwBoPdlXWyL/S0vRKyC8SOkA0PvLAzR8KTt+zfvaKxmj/HjkYyq8/
ENXCGUns2SfnG1d/NzdJpYGYyYvDGaTmaMSlsFu6TQIRt5UMZKWz9miCKuGMZoAG
sZZ8K/HxQXjdhwJ+ItVdHurAe3oLoAXw6YXMq5H9IUb85N58p8ZH8FHn6fD+OwFC
4+phPx2GvWA241JS2YYZ1x4dcuY=
-----END CERTIFICATE-----
