Certificate:
    Data:
        Version: 3 (0x2)
        Serial Number:
            3d:57:2e:7c:82:fe:a4:da:aa:30:df:31:2b:58:10:af
        Signature Algorithm: sha256WithRSAEncryption
        Issuer: CN=team15-net
        Validity
            Not Before: Aug  9 00:11:37 2022 GMT
            Not After : Jul 24 00:11:37 2025 GMT
        Subject: CN=team15-client
        Subject Public Key Info:
            Public Key Algorithm: rsaEncryption
                RSA Public-Key: (2048 bit)
                Modulus:
                    00:d9:6c:e2:4a:d8:cc:4d:d4:b4:f1:83:2e:e4:4a:
                    02:77:4e:f8:a4:0d:9d:05:93:32:d2:3e:67:4b:00:
                    08:dd:74:53:e6:a5:00:44:40:65:a3:e8:0c:22:6c:
                    05:31:84:44:7d:65:c8:4d:a6:f5:2f:80:26:13:04:
                    09:d5:51:36:90:ff:33:0a:e8:e6:b8:ce:81:e3:c2:
                    5c:3c:38:7e:c4:ae:1a:55:dc:13:84:5a:7a:7c:bc:
                    ca:42:be:84:f7:21:78:28:56:12:ac:ac:a9:0c:a1:
                    23:65:4e:28:13:8c:ec:c2:fb:b8:1c:cd:76:a1:4d:
                    ef:5c:26:f5:a7:3f:2f:d9:a0:98:42:45:c7:84:f0:
                    3a:cd:38:03:49:c0:db:47:89:e6:66:59:8f:d3:8e:
                    f1:c1:fb:01:ee:e3:29:c6:9e:84:c9:f7:7e:0d:a7:
                    f7:72:9e:14:0e:10:ee:3a:a4:49:fa:70:d5:9d:11:
                    d5:36:1f:75:a3:cb:da:93:44:80:b6:8a:20:f9:71:
                    8a:c1:b3:62:0f:49:7f:14:2a:56:83:f3:b7:b2:59:
                    f4:74:9c:30:c0:1b:78:e9:76:74:c2:62:0c:27:c2:
                    d1:d4:b6:54:d5:11:e6:bb:28:79:f8:08:a0:e3:6f:
                    ac:1d:0c:93:71:9e:60:a8:4a:bb:5c:19:c7:9f:b7:
                    a5:bb
                Exponent: 65537 (0x10001)
        X509v3 extensions:
            X509v3 Basic Constraints: 
                CA:FALSE
            X509v3 Subject Key Identifier: 
                CA:75:9D:03:E7:C6:60:BB:56:0C:4E:CA:5B:BD:9E:98:64:68:80:2B
            X509v3 Authority Key Identifier: 
                keyid:DC:CC:13:F2:C7:92:1E:B3:FD:67:D1:D9:52:9F:49:DA:3C:BE:B5:A4
                DirName:/CN=team15-net
                serial:49:6F:96:E8:7D:5E:A6:14:2F:46:BA:D7:7D:B6:A2:FB:DF:08:33:01

            X509v3 Extended Key Usage: 
                TLS Web Client Authentication
            X509v3 Key Usage: 
                Digital Signature
    Signature Algorithm: sha256WithRSAEncryption
         9f:16:ea:6b:d1:2e:e3:d3:c2:2c:1f:a1:3a:6e:ec:6a:dc:6b:
         00:06:13:02:dc:b4:b0:5f:4a:7d:5f:58:63:2b:16:24:3b:f8:
         66:a4:25:d0:e8:32:b5:3d:24:00:48:42:63:c9:f1:e2:d8:f8:
         ea:39:44:f4:dc:67:a6:b7:1a:15:7c:ec:99:ea:65:b7:9d:f7:
         2a:3b:c5:12:8d:36:39:ef:fd:04:51:46:b5:d4:fc:b9:b9:34:
         01:cc:0d:17:1e:10:6b:e9:3f:f1:38:4d:41:5d:35:dd:d1:1d:
         7c:15:b0:4d:66:95:b3:1e:4b:11:65:01:8d:37:d3:3b:25:06:
         29:1c:94:23:65:8d:16:8c:4a:ca:de:76:34:ad:23:df:12:77:
         0e:61:b0:b1:f5:7f:01:50:49:68:b1:2c:19:39:a7:bc:b6:d3:
         8a:42:1f:d5:9e:9e:13:9e:cb:8b:88:f5:db:49:87:93:2b:d4:
         a8:e0:3a:8d:30:d6:b1:cf:eb:a9:81:e3:34:b9:47:6d:b9:c4:
         1f:e2:d1:c6:68:b8:9a:88:57:ff:37:79:91:a2:c8:cd:4f:d5:
         67:90:c4:23:46:05:2d:27:87:c1:66:2f:13:95:17:1d:17:71:
         e9:22:95:81:8e:85:7d:08:3b:7a:77:16:53:6c:41:f8:fd:e1:
         ab:f1:09:a6
-----BEGIN CERTIFICATE-----
MIIDWTCCAkGgAwIBAgIQPVcufIL+pNqqMN8xK1gQrzANBgkqhkiG9w0BAQsFADAV
MRMwEQYDVQQDDAp0ZWFtMTUtbmV0MB4XDTIyMDgwOTAwMTEzN1oXDTI1MDcyNDAw
MTEzN1owGDEWMBQGA1UEAwwNdGVhbTE1LWNsaWVudDCCASIwDQYJKoZIhvcNAQEB
BQADggEPADCCAQoCggEBANls4krYzE3UtPGDLuRKAndO+KQNnQWTMtI+Z0sACN10
U+alAERAZaPoDCJsBTGERH1lyE2m9S+AJhMECdVRNpD/Mwro5rjOgePCXDw4fsSu
GlXcE4Raeny8ykK+hPcheChWEqysqQyhI2VOKBOM7ML7uBzNdqFN71wm9ac/L9mg
mEJFx4TwOs04A0nA20eJ5mZZj9OO8cH7Ae7jKcaehMn3fg2n93KeFA4Q7jqkSfpw
1Z0R1TYfdaPL2pNEgLaKIPlxisGzYg9JfxQqVoPzt7JZ9HScMMAbeOl2dMJiDCfC
0dS2VNUR5rsoefgIoONvrB0Mk3GeYKhKu1wZx5+3pbsCAwEAAaOBoTCBnjAJBgNV
HRMEAjAAMB0GA1UdDgQWBBTKdZ0D58Zgu1YMTspbvZ6YZGiAKzBQBgNVHSMESTBH
gBTczBPyx5Ies/1n0dlSn0naPL61pKEZpBcwFTETMBEGA1UEAwwKdGVhbTE1LW5l
dIIUSW+W6H1ephQvRrrXfbai+98IMwEwEwYDVR0lBAwwCgYIKwYBBQUHAwIwCwYD
VR0PBAQDAgeAMA0GCSqGSIb3DQEBCwUAA4IBAQCfFupr0S7j08IsH6E6buxq3GsA
BhMC3LSwX0p9X1hjKxYkO/hmpCXQ6DK1PSQASEJjyfHi2PjqOUT03GemtxoVfOyZ
6mW3nfcqO8USjTY57/0EUUa11Py5uTQBzA0XHhBr6T/xOE1BXTXd0R18FbBNZpWz
HksRZQGNN9M7JQYpHJQjZY0WjErK3nY0rSPfEncOYbCx9X8BUElosSwZOae8ttOK
Qh/Vnp4TnsuLiPXbSYeTK9So4DqNMNaxz+upgeM0uUdtucQf4tHGaLiaiFf/N3mR
osjNT9VnkMQjRgUtJ4fBZi8TlRcdF3HpIpWBjoV9CDt6dxZTbEH4/eGr8Qmm
-----END CERTIFICATE-----
