Certificate:
    Data:
        Version: 3 (0x2)
        Serial Number:
            47:a4:c7:5b:db:a1:65:e3:ae:b4:f4:88:a7:0e:73:66
        Signature Algorithm: sha256WithRSAEncryption
        Issuer: CN=team15-net
        Validity
            Not Before: Aug  9 18:52:38 2022 GMT
            Not After : Jul 24 18:52:38 2025 GMT
        Subject: CN=team15-server
        Subject Public Key Info:
            Public Key Algorithm: rsaEncryption
                RSA Public-Key: (2048 bit)
                Modulus:
                    00:a4:7d:68:f7:7b:ca:89:fb:c8:8a:bc:0d:1a:61:
                    dd:d7:a8:55:e2:fc:e6:d6:82:d6:69:f0:d6:11:fc:
                    83:9a:c0:ce:92:b7:01:06:1f:a4:4d:70:e0:49:08:
                    25:1c:a9:ab:9d:6f:8c:40:61:37:a0:09:2a:b2:5c:
                    50:7d:f1:13:3c:0c:fb:15:e4:63:cf:f8:84:96:a3:
                    d6:6c:a1:fb:94:7c:de:0d:b4:55:87:7f:94:4e:94:
                    f6:80:17:5c:f7:bf:13:15:5a:b9:c1:6d:74:1b:a0:
                    7a:8b:92:99:39:b5:73:b8:e9:4a:56:26:e5:d1:99:
                    07:90:67:14:53:93:2d:15:99:26:4e:ae:00:ba:49:
                    40:75:4c:13:74:19:85:9b:13:1e:c9:5b:f6:ea:e4:
                    15:91:9d:1d:30:ac:d4:db:7e:f1:16:35:b1:73:c9:
                    c5:f3:55:09:14:04:c8:ba:ac:74:2c:10:13:e0:fc:
                    98:b9:cd:31:85:c1:96:57:65:79:4c:9a:71:d6:69:
                    ec:20:7c:7a:c3:81:3c:39:0c:3a:38:b4:17:7a:a2:
                    14:71:19:32:8d:e8:47:95:b0:ee:26:eb:3a:4f:fb:
                    3f:76:9d:ac:ed:a8:0f:4a:6a:ec:a6:f5:77:c3:2d:
                    fa:7a:fb:9f:01:e3:e7:90:d8:81:f6:b0:19:3d:a2:
                    5f:9d
                Exponent: 65537 (0x10001)
        X509v3 extensions:
            X509v3 Basic Constraints: 
                CA:FALSE
            X509v3 Subject Key Identifier: 
                D7:53:6D:87:A0:B6:6D:CE:B0:B9:17:00:02:A4:F5:71:B3:EA:FC:06
            X509v3 Authority Key Identifier: 
                keyid:D4:5A:4A:EF:63:63:BC:4B:79:9C:B6:70:5C:9D:F0:52:1A:DC:EF:51
                DirName:/CN=team15-net
                serial:2C:2B:73:6D:44:5F:D4:BF:B3:8D:C5:F9:E7:FE:36:1C:D2:77:E2:1B

            X509v3 Extended Key Usage: 
                TLS Web Server Authentication
            X509v3 Key Usage: 
                Digital Signature, Key Encipherment
            X509v3 Subject Alternative Name: 
                DNS:team15-server
    Signature Algorithm: sha256WithRSAEncryption
         5b:07:8f:9e:5a:36:4a:84:27:cc:7d:5a:36:d8:f1:cc:90:59:
         a7:af:a6:d5:39:b6:46:54:29:0e:48:92:86:6d:76:fb:92:52:
         27:97:a7:62:8f:d5:97:86:ce:ba:f2:26:22:a7:50:a8:c2:8a:
         3e:18:6d:bb:d1:72:de:66:b9:dd:bf:5a:6d:e8:7f:c2:88:ed:
         35:ed:af:e3:6b:47:7a:11:0b:c0:ef:2c:45:0d:34:a3:c0:90:
         e1:6d:a7:96:f3:c7:92:66:d4:c9:86:5d:9c:64:6a:f5:cc:ae:
         af:08:be:21:07:93:f1:b8:8f:35:45:16:64:bc:d7:b4:11:61:
         56:00:16:06:a0:07:5d:d4:e5:46:34:0a:38:6d:75:d5:13:a8:
         0a:b0:89:9e:3f:dc:d2:82:15:1c:ba:54:1b:d2:59:6c:b9:91:
         17:42:86:45:f5:29:46:be:c8:85:a6:ca:02:62:f9:a8:89:a8:
         77:8e:e2:65:c7:c1:2d:3a:d1:cc:bb:34:3c:60:62:af:b5:99:
         97:3b:4f:3d:a7:90:b5:43:db:3c:39:e9:ac:e6:3c:c9:02:7f:
         bb:b6:4c:65:76:9d:d0:6a:8e:da:95:4f:6c:7b:c5:99:e0:26:
         bb:11:05:6d:e5:18:aa:80:a4:fc:1b:ca:75:e5:70:2f:de:dd:
         03:a6:19:1b
-----BEGIN CERTIFICATE-----
MIIDczCCAlugAwIBAgIQR6THW9uhZeOutPSIpw5zZjANBgkqhkiG9w0BAQsFADAV
MRMwEQYDVQQDDAp0ZWFtMTUtbmV0MB4XDTIyMDgwOTE4NTIzOFoXDTI1MDcyNDE4
NTIzOFowGDEWMBQGA1UEAwwNdGVhbTE1LXNlcnZlcjCCASIwDQYJKoZIhvcNAQEB
BQADggEPADCCAQoCggEBAKR9aPd7yon7yIq8DRph3deoVeL85taC1mnw1hH8g5rA
zpK3AQYfpE1w4EkIJRypq51vjEBhN6AJKrJcUH3xEzwM+xXkY8/4hJaj1myh+5R8
3g20VYd/lE6U9oAXXPe/ExVaucFtdBugeouSmTm1c7jpSlYm5dGZB5BnFFOTLRWZ
Jk6uALpJQHVME3QZhZsTHslb9urkFZGdHTCs1Nt+8RY1sXPJxfNVCRQEyLqsdCwQ
E+D8mLnNMYXBlldleUyacdZp7CB8esOBPDkMOji0F3qiFHEZMo3oR5Ww7ibrOk/7
P3adrO2oD0pq7Kb1d8Mt+nr7nwHj55DYgfawGT2iX50CAwEAAaOBuzCBuDAJBgNV
HRMEAjAAMB0GA1UdDgQWBBTXU22HoLZtzrC5FwACpPVxs+r8BjBQBgNVHSMESTBH
gBTUWkrvY2O8S3mctnBcnfBSGtzvUaEZpBcwFTETMBEGA1UEAwwKdGVhbTE1LW5l
dIIULCtzbURf1L+zjcX55/42HNJ34hswEwYDVR0lBAwwCgYIKwYBBQUHAwEwCwYD
VR0PBAQDAgWgMBgGA1UdEQQRMA+CDXRlYW0xNS1zZXJ2ZXIwDQYJKoZIhvcNAQEL
BQADggEBAFsHj55aNkqEJ8x9WjbY8cyQWaevptU5tkZUKQ5IkoZtdvuSUieXp2KP
1ZeGzrryJiKnUKjCij4YbbvRct5mud2/Wm3of8KI7TXtr+NrR3oRC8DvLEUNNKPA
kOFtp5bzx5Jm1MmGXZxkavXMrq8IviEHk/G4jzVFFmS817QRYVYAFgagB13U5UY0
CjhtddUTqAqwiZ4/3NKCFRy6VBvSWWy5kRdChkX1KUa+yIWmygJi+aiJqHeO4mXH
wS060cy7NDxgYq+1mZc7Tz2nkLVD2zw56azmPMkCf7u2TGV2ndBqjtqVT2x7xZng
JrsRBW3lGKqApPwbynXlcC/e3QOmGRs=
-----END CERTIFICATE-----
