Certificate:
    Data:
        Version: 3 (0x2)
        Serial Number:
            c9:8a:e4:de:fe:8a:72:36:36:d2:01:74:e8:79:12:de
        Signature Algorithm: sha256WithRSAEncryption
        Issuer: CN=team15-net
        Validity
            Not Before: Aug  9 18:52:37 2022 GMT
            Not After : Jul 24 18:52:37 2025 GMT
        Subject: CN=team15-client
        Subject Public Key Info:
            Public Key Algorithm: rsaEncryption
                RSA Public-Key: (2048 bit)
                Modulus:
                    00:e3:53:fa:c4:cf:7d:a5:5f:a3:25:c5:c7:87:89:
                    84:dd:90:7e:85:8f:82:1d:9a:56:f4:2b:0c:5e:66:
                    dc:85:1d:6f:e6:e5:53:bc:fe:1a:e3:b2:a9:90:5f:
                    9b:ca:25:19:21:4e:4d:92:b4:95:a7:56:06:31:fa:
                    13:f6:bf:b3:98:32:7a:2c:bb:ea:df:66:5f:90:d2:
                    77:3f:5c:b1:e5:be:21:1f:81:34:5e:96:ea:07:e6:
                    42:8f:ac:07:8b:05:4d:f7:e5:33:5b:5b:bd:de:9a:
                    e7:2c:ac:40:ac:37:9a:c6:84:87:13:f7:1e:67:af:
                    71:60:09:67:36:4f:1b:0e:81:c6:22:ca:ae:a6:59:
                    45:cd:00:c1:b7:f8:f8:75:d1:99:2a:30:fa:ad:ff:
                    a8:61:09:f3:10:65:d6:79:31:a4:5c:e8:8a:7c:df:
                    30:63:ef:a6:4a:5a:cf:82:ec:a3:27:ab:d9:95:d7:
                    96:9e:5a:9b:00:25:ce:97:60:03:c7:87:d6:b5:16:
                    5b:83:e6:4e:fb:b2:a2:5e:5f:90:f2:f6:77:f9:30:
                    9b:7f:9e:63:cb:23:5b:b2:2d:3f:a5:63:42:0e:5f:
                    10:e8:0b:2b:98:f0:4e:3b:22:cd:f2:36:3a:de:1d:
                    9f:61:de:56:26:a1:95:50:89:b6:93:0c:f4:84:e7:
                    34:ad
                Exponent: 65537 (0x10001)
        X509v3 extensions:
            X509v3 Basic Constraints: 
                CA:FALSE
            X509v3 Subject Key Identifier: 
                65:78:E9:8B:03:4D:85:DB:F5:E6:D4:01:7A:94:13:D4:D0:6B:8D:C2
            X509v3 Authority Key Identifier: 
                keyid:D4:5A:4A:EF:63:63:BC:4B:79:9C:B6:70:5C:9D:F0:52:1A:DC:EF:51
                DirName:/CN=team15-net
                serial:2C:2B:73:6D:44:5F:D4:BF:B3:8D:C5:F9:E7:FE:36:1C:D2:77:E2:1B

            X509v3 Extended Key Usage: 
                TLS Web Client Authentication
            X509v3 Key Usage: 
                Digital Signature
    Signature Algorithm: sha256WithRSAEncryption
         86:6f:fe:e3:1f:38:0b:2f:3c:f0:ea:b2:45:97:b8:ff:af:cc:
         88:58:c6:97:0c:6d:dd:35:54:7b:d2:95:46:fa:72:d2:92:ea:
         db:df:b7:fb:e1:66:31:ed:79:b9:d7:3a:df:33:fc:d8:71:91:
         06:fa:b7:b6:27:4b:8f:5e:85:ac:02:c3:51:74:40:e2:af:a2:
         dd:dc:b7:ce:08:09:47:33:28:74:55:27:39:0b:05:e8:eb:6e:
         15:de:e5:e2:01:51:47:63:d4:5c:66:15:66:d8:06:1e:ec:4d:
         b4:c3:24:8e:4a:b6:21:ed:2f:1a:43:36:58:7a:a2:38:88:1b:
         29:94:d6:a0:a7:26:fa:73:81:77:21:57:f1:96:c7:96:d3:d0:
         e7:6c:1b:b6:85:8a:2c:ea:da:18:05:6c:32:00:6b:28:c1:41:
         a0:8d:f3:02:92:6d:e6:66:c0:c5:1b:fc:9f:65:4a:62:95:8f:
         78:76:68:3a:d9:f8:f8:f7:76:8d:dd:1c:97:b3:98:7e:04:2d:
         44:be:6f:34:69:6f:34:93:2d:83:35:95:d8:a8:25:e9:7d:c5:
         67:a4:d0:f0:13:cb:a1:e7:3c:07:a1:71:e3:95:27:6e:e1:97:
         ce:06:d3:5c:44:69:3f:78:14:96:8a:17:1f:5f:26:36:97:cc:
         f6:be:e6:8e
-----BEGIN CERTIFICATE-----
MIIDWjCCAkKgAwIBAgIRAMmK5N7+inI2NtIBdOh5Et4wDQYJKoZIhvcNAQELBQAw
FTETMBEGA1UEAwwKdGVhbTE1LW5ldDAeFw0yMjA4MDkxODUyMzdaFw0yNTA3MjQx
ODUyMzdaMBgxFjAUBgNVBAMMDXRlYW0xNS1jbGllbnQwggEiMA0GCSqGSIb3DQEB
AQUAA4IBDwAwggEKAoIBAQDjU/rEz32lX6MlxceHiYTdkH6Fj4Idmlb0KwxeZtyF
HW/m5VO8/hrjsqmQX5vKJRkhTk2StJWnVgYx+hP2v7OYMnosu+rfZl+Q0nc/XLHl
viEfgTReluoH5kKPrAeLBU335TNbW73emucsrECsN5rGhIcT9x5nr3FgCWc2TxsO
gcYiyq6mWUXNAMG3+Ph10ZkqMPqt/6hhCfMQZdZ5MaRc6Ip83zBj76ZKWs+C7KMn
q9mV15aeWpsAJc6XYAPHh9a1FluD5k77sqJeX5Dy9nf5MJt/nmPLI1uyLT+lY0IO
XxDoCyuY8E47Is3yNjreHZ9h3lYmoZVQibaTDPSE5zStAgMBAAGjgaEwgZ4wCQYD
VR0TBAIwADAdBgNVHQ4EFgQUZXjpiwNNhdv15tQBepQT1NBrjcIwUAYDVR0jBEkw
R4AU1FpK72NjvEt5nLZwXJ3wUhrc71GhGaQXMBUxEzARBgNVBAMMCnRlYW0xNS1u
ZXSCFCwrc21EX9S/s43F+ef+NhzSd+IbMBMGA1UdJQQMMAoGCCsGAQUFBwMCMAsG
A1UdDwQEAwIHgDANBgkqhkiG9w0BAQsFAAOCAQEAhm/+4x84Cy888OqyRZe4/6/M
iFjGlwxt3TVUe9KVRvpy0pLq29+3++FmMe15udc63zP82HGRBvq3tidLj16FrALD
UXRA4q+i3dy3zggJRzModFUnOQsF6OtuFd7l4gFRR2PUXGYVZtgGHuxNtMMkjkq2
Ie0vGkM2WHqiOIgbKZTWoKcm+nOBdyFX8ZbHltPQ52wbtoWKLOraGAVsMgBrKMFB
oI3zApJt5mbAxRv8n2VKYpWPeHZoOtn4+Pd2jd0cl7OYfgQtRL5vNGlvNJMtgzWV
2Kgl6X3FZ6TQ8BPLoec8B6Fx45UnbuGXzgbTXERpP3gUlooXH18mNpfM9r7mjg==
-----END CERTIFICATE-----
