Certificate:
    Data:
        Version: 3 (0x2)
        Serial Number:
            d9:33:07:cb:57:3d:6b:37:e0:65:4f:7a:0a:ad:48:1b
        Signature Algorithm: sha256WithRSAEncryption
        Issuer: CN=team15-net
        Validity
            Not Before: Aug  9 00:11:37 2022 GMT
            Not After : Jul 24 00:11:37 2025 GMT
        Subject: CN=team15-server
        Subject Public Key Info:
            Public Key Algorithm: rsaEncryption
                RSA Public-Key: (2048 bit)
                Modulus:
                    00:dd:2c:27:d9:28:5d:ec:00:a9:3f:87:eb:03:20:
                    30:7e:8f:f3:7a:b6:ad:6b:45:ae:2b:87:38:8c:f7:
                    60:74:c3:59:20:81:10:d6:59:4e:6c:d6:85:38:a8:
                    1d:d1:46:9e:39:63:09:5b:00:e8:42:7a:32:ae:99:
                    5e:7e:b2:ec:68:18:73:89:58:8d:ea:da:04:9f:2e:
                    44:1b:0c:b0:a7:56:9d:64:67:6d:a8:2e:7d:27:86:
                    b5:46:be:91:1b:11:56:c3:ff:07:83:99:bf:04:67:
                    63:84:93:0e:50:10:70:30:83:50:05:6b:01:1e:fa:
                    5b:65:a3:66:ee:b3:98:d0:09:7c:10:21:ac:69:10:
                    24:4d:5e:b3:e6:33:80:10:c0:91:27:a5:9f:63:75:
                    22:03:1d:85:46:a9:14:ce:f4:95:40:f6:78:2b:aa:
                    35:a3:8b:15:98:28:79:a5:1d:9c:23:c4:03:2b:59:
                    cc:30:c7:94:5a:f0:eb:72:4e:b2:ca:fa:39:cb:83:
                    8c:0c:5d:8d:0b:2e:d9:fe:f5:6f:43:40:d8:8e:54:
                    74:ff:f1:61:3d:fa:a9:43:23:15:78:61:f6:01:4e:
                    b7:29:ba:bf:3b:7c:08:b7:f1:4c:1e:98:9a:ee:9f:
                    66:a4:88:e1:54:37:9d:e7:ff:84:0c:31:26:ad:73:
                    14:f9
                Exponent: 65537 (0x10001)
        X509v3 extensions:
            X509v3 Basic Constraints: 
                CA:FALSE
            X509v3 Subject Key Identifier: 
                AA:44:ED:1F:13:02:51:55:61:2F:2D:4A:4B:2A:70:F9:96:61:D5:30
            X509v3 Authority Key Identifier: 
                keyid:DC:CC:13:F2:C7:92:1E:B3:FD:67:D1:D9:52:9F:49:DA:3C:BE:B5:A4
                DirName:/CN=team15-net
                serial:49:6F:96:E8:7D:5E:A6:14:2F:46:BA:D7:7D:B6:A2:FB:DF:08:33:01

            X509v3 Extended Key Usage: 
                TLS Web Server Authentication
            X509v3 Key Usage: 
                Digital Signature, Key Encipherment
            X509v3 Subject Alternative Name: 
                DNS:team15-server
    Signature Algorithm: sha256WithRSAEncryption
         43:aa:12:02:50:09:87:7c:31:69:d5:df:1d:5d:f6:dc:06:e7:
         6a:99:8b:7d:db:b8:01:14:8a:be:4d:ad:c9:04:e9:73:9b:47:
         67:99:07:78:48:d2:21:5f:60:4d:29:48:1b:b4:5f:37:9a:6e:
         25:28:be:c1:24:79:ea:34:0f:f8:a3:ff:ca:53:fc:2f:35:c2:
         5d:52:a3:a5:fb:ed:41:66:6a:a1:8f:e1:28:34:37:bb:a9:fa:
         24:7a:c7:a8:96:62:c9:99:dc:e8:ca:11:bd:ac:a7:9b:49:0a:
         05:91:b5:51:9d:58:45:42:17:6f:a9:75:f5:71:d7:34:0a:3a:
         e1:9c:69:1d:86:85:5e:b2:a9:cb:92:4a:10:e5:e4:5b:da:55:
         89:04:0b:f6:0d:d5:44:1a:5b:16:9b:11:94:76:12:6e:1c:c5:
         bb:ff:62:7c:bd:92:d6:88:4f:51:45:5f:38:44:55:4f:04:4b:
         f6:9a:18:67:07:15:9a:57:1c:7c:27:de:c5:eb:a2:15:34:37:
         82:b8:9f:49:ec:96:b1:ae:ea:9b:e9:1d:73:da:19:fb:08:85:
         90:62:46:bd:99:7b:ab:d2:90:5f:35:f1:2d:81:ce:87:af:b6:
         72:77:49:09:66:f1:02:3a:e8:ec:84:8f:58:63:cc:f3:fa:7a:
         6c:df:23:aa
-----BEGIN CERTIFICATE-----
MIIDdDCCAlygAwIBAgIRANkzB8tXPWs34GVPegqtSBswDQYJKoZIhvcNAQELBQAw
FTETMBEGA1UEAwwKdGVhbTE1LW5ldDAeFw0yMjA4MDkwMDExMzdaFw0yNTA3MjQw
MDExMzdaMBgxFjAUBgNVBAMMDXRlYW0xNS1zZXJ2ZXIwggEiMA0GCSqGSIb3DQEB
AQUAA4IBDwAwggEKAoIBAQDdLCfZKF3sAKk/h+sDIDB+j/N6tq1rRa4rhziM92B0
w1kggRDWWU5s1oU4qB3RRp45YwlbAOhCejKumV5+suxoGHOJWI3q2gSfLkQbDLCn
Vp1kZ22oLn0nhrVGvpEbEVbD/weDmb8EZ2OEkw5QEHAwg1AFawEe+ltlo2bus5jQ
CXwQIaxpECRNXrPmM4AQwJEnpZ9jdSIDHYVGqRTO9JVA9ngrqjWjixWYKHmlHZwj
xAMrWcwwx5Ra8OtyTrLK+jnLg4wMXY0LLtn+9W9DQNiOVHT/8WE9+qlDIxV4YfYB
Trcpur87fAi38UwemJrun2akiOFUN53n/4QMMSatcxT5AgMBAAGjgbswgbgwCQYD
VR0TBAIwADAdBgNVHQ4EFgQUqkTtHxMCUVVhLy1KSypw+ZZh1TAwUAYDVR0jBEkw
R4AU3MwT8seSHrP9Z9HZUp9J2jy+taShGaQXMBUxEzARBgNVBAMMCnRlYW0xNS1u
ZXSCFElvluh9XqYUL0a61322ovvfCDMBMBMGA1UdJQQMMAoGCCsGAQUFBwMBMAsG
A1UdDwQEAwIFoDAYBgNVHREEETAPgg10ZWFtMTUtc2VydmVyMA0GCSqGSIb3DQEB
CwUAA4IBAQBDqhICUAmHfDFp1d8dXfbcBudqmYt927gBFIq+Ta3JBOlzm0dnmQd4
SNIhX2BNKUgbtF83mm4lKL7BJHnqNA/4o//KU/wvNcJdUqOl++1BZmqhj+EoNDe7
qfokeseolmLJmdzoyhG9rKebSQoFkbVRnVhFQhdvqXX1cdc0CjrhnGkdhoVesqnL
kkoQ5eRb2lWJBAv2DdVEGlsWmxGUdhJuHMW7/2J8vZLWiE9RRV84RFVPBEv2mhhn
BxWaVxx8J97F66IVNDeCuJ9J7Jaxruqb6R1z2hn7CIWQYka9mXur0pBfNfEtgc6H
r7Zyd0kJZvECOujshI9YY8zz+nps3yOq
-----END CERTIFICATE-----
