Certificate:
    Data:
        Version: 3 (0x2)
        Serial Number:
            3a:e4:0c:40:89:97:41:4d:51:72:b5:01:93:82:c6:16
        Signature Algorithm: sha256WithRSAEncryption
        Issuer: CN=team24-net
        Validity
            Not Before: Aug  9 00:11:45 2022 GMT
            Not After : Jul 24 00:11:45 2025 GMT
        Subject: CN=team24-client
        Subject Public Key Info:
            Public Key Algorithm: rsaEncryption
                RSA Public-Key: (2048 bit)
                Modulus:
                    00:ba:fb:82:98:3a:ab:a9:44:88:10:0d:53:21:6e:
                    bd:8d:e3:1b:e2:9e:92:5a:e3:8c:e4:8c:d2:2e:20:
                    df:67:92:af:c5:54:e6:b6:81:ad:b7:3d:0b:ba:03:
                    7b:a0:29:63:ca:2b:3a:46:66:c4:dd:a0:60:a0:2c:
                    a6:43:0b:61:ca:11:7f:ad:e2:6e:95:cb:7c:bc:d9:
                    e4:cb:4a:55:e4:d7:11:4b:32:06:94:0c:85:ef:15:
                    4a:c1:e8:ad:7b:7d:65:65:42:f1:ab:4f:fe:94:8d:
                    6b:09:70:3a:f2:07:53:3e:1d:a6:09:ae:db:ea:be:
                    d6:b2:cb:27:d7:84:4e:5a:ad:8d:f4:ca:3c:0b:68:
                    8b:69:99:5e:71:ba:98:c5:1c:8c:90:05:8f:af:af:
                    21:9b:dd:8c:03:27:9c:bb:1f:ff:1c:c5:56:f6:03:
                    4c:1b:17:7f:7f:63:6f:cf:a3:2d:ac:cd:3c:6c:db:
                    61:60:90:d0:40:6d:53:f6:6e:69:38:33:6e:3b:32:
                    33:86:74:b6:0c:c0:5b:7a:2d:6e:b9:2d:4f:e4:06:
                    1c:2a:88:0d:ac:01:1c:06:95:26:3f:26:1b:a7:9c:
                    dc:29:60:e0:5b:fc:9b:da:27:12:81:8f:dd:4e:25:
                    41:d3:11:01:40:31:5d:7a:47:47:66:34:76:b3:35:
                    fb:41
                Exponent: 65537 (0x10001)
        X509v3 extensions:
            X509v3 Basic Constraints: 
                CA:FALSE
            X509v3 Subject Key Identifier: 
                15:40:83:12:4B:2E:9A:83:4E:8B:91:D1:E4:1A:EB:E2:4C:90:B1:03
            X509v3 Authority Key Identifier: 
                keyid:2A:4B:8E:6D:A1:5F:7F:A8:BE:10:87:B2:F9:DB:0A:F9:99:5C:25:62
                DirName:/CN=team24-net
                serial:59:9A:EB:56:77:F3:75:10:A0:25:5B:12:AD:9F:6A:C0:DA:8F:37:32

            X509v3 Extended Key Usage: 
                TLS Web Client Authentication
            X509v3 Key Usage: 
                Digital Signature
    Signature Algorithm: sha256WithRSAEncryption
         23:87:3f:42:1c:87:ac:b8:68:bb:38:f2:9b:b1:7f:42:cc:f8:
         b8:ad:83:b5:c2:f6:a8:22:2c:0b:17:54:fa:ed:d1:ac:59:4c:
         7b:58:d7:6e:ae:8d:03:b4:dc:5b:60:50:34:f3:38:7e:a7:36:
         68:9b:47:92:9f:c2:93:ec:d3:77:39:4c:97:c5:4b:34:8c:f6:
         e1:ea:0e:fb:6d:de:25:05:bb:1e:ed:2c:06:fe:73:23:cd:70:
         fa:d0:f7:8d:51:0b:83:4c:73:e8:7a:72:ad:1b:64:1e:6e:19:
         f3:18:95:99:4e:00:ee:e5:14:c0:34:c5:14:8d:07:30:b4:86:
         4d:ad:4b:1f:42:7c:e8:d3:a0:89:01:fe:6e:4e:b0:2d:5f:52:
         76:37:00:5b:11:47:18:e8:af:2b:7e:11:ec:16:8f:83:90:9d:
         e1:b4:be:fe:e4:8c:47:cc:97:c5:73:a8:90:67:f3:c0:a1:0c:
         73:81:81:03:51:e0:2d:d8:a1:5a:4b:81:6b:cd:2a:a8:9b:94:
         45:87:1d:8c:97:a6:e6:10:91:49:a3:4c:6e:07:98:65:1f:82:
         e6:62:aa:3f:14:0a:b7:70:a2:66:c4:8f:13:35:fc:5e:a0:bc:
         e9:88:40:6f:b2:c3:5c:3c:20:60:8b:02:aa:1a:b3:d0:f3:83:
         3e:53:7b:a9
-----BEGIN CERTIFICATE-----
MIIDWTCCAkGgAwIBAgIQOuQMQImXQU1RcrUBk4LGFjANBgkqhkiG9w0BAQsFADAV
MRMwEQYDVQQDDAp0ZWFtMjQtbmV0MB4XDTIyMDgwOTAwMTE0NVoXDTI1MDcyNDAw
MTE0NVowGDEWMBQGA1UEAwwNdGVhbTI0LWNsaWVudDCCASIwDQYJKoZIhvcNAQEB
BQADggEPADCCAQoCggEBALr7gpg6q6lEiBANUyFuvY3jG+KeklrjjOSM0i4g32eS
r8VU5raBrbc9C7oDe6ApY8orOkZmxN2gYKAspkMLYcoRf63ibpXLfLzZ5MtKVeTX
EUsyBpQMhe8VSsHorXt9ZWVC8atP/pSNawlwOvIHUz4dpgmu2+q+1rLLJ9eETlqt
jfTKPAtoi2mZXnG6mMUcjJAFj6+vIZvdjAMnnLsf/xzFVvYDTBsXf39jb8+jLazN
PGzbYWCQ0EBtU/ZuaTgzbjsyM4Z0tgzAW3otbrktT+QGHCqIDawBHAaVJj8mG6ec
3Clg4Fv8m9onEoGP3U4lQdMRAUAxXXpHR2Y0drM1+0ECAwEAAaOBoTCBnjAJBgNV
HRMEAjAAMB0GA1UdDgQWBBQVQIMSSy6ag06LkdHkGuviTJCxAzBQBgNVHSMESTBH
gBQqS45toV9/qL4Qh7L52wr5mVwlYqEZpBcwFTETMBEGA1UEAwwKdGVhbTI0LW5l
dIIUWZrrVnfzdRCgJVsSrZ9qwNqPNzIwEwYDVR0lBAwwCgYIKwYBBQUHAwIwCwYD
VR0PBAQDAgeAMA0GCSqGSIb3DQEBCwUAA4IBAQAjhz9CHIesuGi7OPKbsX9CzPi4
rYO1wvaoIiwLF1T67dGsWUx7WNduro0DtNxbYFA08zh+pzZom0eSn8KT7NN3OUyX
xUs0jPbh6g77bd4lBbse7SwG/nMjzXD60PeNUQuDTHPoenKtG2QebhnzGJWZTgDu
5RTANMUUjQcwtIZNrUsfQnzo06CJAf5uTrAtX1J2NwBbEUcY6K8rfhHsFo+DkJ3h
tL7+5IxHzJfFc6iQZ/PAoQxzgYEDUeAt2KFaS4FrzSqom5RFhx2Ml6bmEJFJo0xu
B5hlH4LmYqo/FAq3cKJmxI8TNfxeoLzpiEBvssNcPCBgiwKqGrPQ84M+U3up
-----END CERTIFICATE-----
