Certificate:
    Data:
        Version: 3 (0x2)
        Serial Number:
            7c:bb:23:0b:b1:b1:6f:f8:8b:a6:d1:0a:b0:2f:31:fa
        Signature Algorithm: sha256WithRSAEncryption
        Issuer: CN=team24-net
        Validity
            Not Before: Aug  9 00:11:45 2022 GMT
            Not After : Jul 24 00:11:45 2025 GMT
        Subject: CN=team24-server
        Subject Public Key Info:
            Public Key Algorithm: rsaEncryption
                RSA Public-Key: (2048 bit)
                Modulus:
                    00:be:9b:25:67:e7:5f:12:c7:aa:98:16:0b:24:1c:
                    72:37:e8:96:d4:03:5d:97:79:f1:f6:cd:ce:74:7b:
                    6d:e7:1a:e6:96:42:23:29:ec:75:ab:ac:15:cf:a9:
                    78:bd:0c:20:d9:7d:3c:fe:a7:fa:6c:a5:37:66:ab:
                    91:d8:56:ce:d7:41:58:3e:1f:9b:7c:2b:b8:43:46:
                    fb:c4:26:74:dc:32:6c:65:cd:9b:b9:5a:df:0a:69:
                    90:f0:cd:84:7b:8d:a1:af:11:20:69:2e:a4:ce:c4:
                    94:69:92:13:a4:18:20:4f:2a:68:8b:41:ec:50:f4:
                    46:60:d5:05:f4:c5:bf:b3:ca:12:74:bf:03:c6:72:
                    37:62:f7:b7:bd:4d:bd:25:28:16:49:f0:19:e6:6f:
                    e6:7e:5c:60:50:a2:8e:7f:9e:1f:a8:2e:d6:54:88:
                    cb:37:b1:23:cc:82:b0:c6:90:ab:18:f4:26:e2:8b:
                    5b:db:f9:08:e1:2d:85:2b:48:5a:d1:3b:f1:aa:2b:
                    b5:97:aa:8e:24:7e:ac:01:c3:1a:5f:57:64:1e:ef:
                    12:6d:95:fd:c5:c9:32:a4:07:dc:13:bd:57:2e:1e:
                    3b:6a:99:29:56:65:4a:e1:cf:3a:a0:1b:4d:dd:c9:
                    87:1d:20:7c:91:b5:19:30:7d:7b:57:67:d6:6b:44:
                    2d:f9
                Exponent: 65537 (0x10001)
        X509v3 extensions:
            X509v3 Basic Constraints: 
                CA:FALSE
            X509v3 Subject Key Identifier: 
                FC:87:3D:1C:89:F0:00:1A:81:83:0E:7C:09:B0:DF:11:ED:C5:00:C3
            X509v3 Authority Key Identifier: 
                keyid:2A:4B:8E:6D:A1:5F:7F:A8:BE:10:87:B2:F9:DB:0A:F9:99:5C:25:62
                DirName:/CN=team24-net
                serial:59:9A:EB:56:77:F3:75:10:A0:25:5B:12:AD:9F:6A:C0:DA:8F:37:32

            X509v3 Extended Key Usage: 
                TLS Web Server Authentication
            X509v3 Key Usage: 
                Digital Signature, Key Encipherment
            X509v3 Subject Alternative Name: 
                DNS:team24-server
    Signature Algorithm: sha256WithRSAEncryption
         50:4c:26:c7:21:5f:90:94:8d:a0:5c:ac:ac:dc:a4:d8:d0:dc:
         eb:cf:85:60:a8:d7:4b:73:fd:a5:44:bb:0e:64:ec:19:c6:35:
         22:76:d4:41:91:b0:fd:cc:0d:cd:13:f6:cd:01:88:82:74:96:
         02:c6:d3:18:ee:e3:5b:42:a6:04:27:48:6b:29:37:0d:fd:9a:
         74:ef:3a:32:3f:11:23:ae:bb:6b:fd:d4:b1:b1:83:46:42:21:
         81:3f:70:9c:da:12:ac:71:a1:9d:ea:c2:7d:4a:69:6e:e8:40:
         1b:27:da:13:0d:71:0f:3e:2d:f4:64:0e:bf:3a:39:8f:95:3c:
         bf:c7:43:29:41:40:5e:e1:ee:99:27:92:92:4c:3e:a2:0d:3b:
         09:f3:f5:da:a2:f8:b8:5f:c4:c1:29:51:b0:68:ad:c8:47:72:
         53:fd:6f:02:f9:f1:d4:2f:17:1b:38:eb:63:77:0e:1f:17:d4:
         58:cf:1c:57:46:1e:5c:ef:5d:d0:66:0c:01:cc:62:33:34:12:
         d2:77:90:14:5f:f6:fb:4c:45:42:c2:dd:fd:fa:1e:02:6f:4e:
         8e:fd:c1:27:e9:9e:c6:ac:8b:28:c4:54:b5:03:15:cd:22:2e:
         7c:ad:ef:29:7a:f6:34:42:c8:8b:ea:9d:4f:a7:7b:de:5c:22:
         86:f1:a6:77
-----BEGIN CERTIFICATE-----
MIIDczCCAlugAwIBAgIQfLsjC7Gxb/iLptEKsC8x+jANBgkqhkiG9w0BAQsFADAV
MRMwEQYDVQQDDAp0ZWFtMjQtbmV0MB4XDTIyMDgwOTAwMTE0NVoXDTI1MDcyNDAw
MTE0NVowGDEWMBQGA1UEAwwNdGVhbTI0LXNlcnZlcjCCASIwDQYJKoZIhvcNAQEB
BQADggEPADCCAQoCggEBAL6bJWfnXxLHqpgWCyQccjfoltQDXZd58fbNznR7beca
5pZCIynsdausFc+peL0MINl9PP6n+mylN2arkdhWztdBWD4fm3wruENG+8QmdNwy
bGXNm7la3wppkPDNhHuNoa8RIGkupM7ElGmSE6QYIE8qaItB7FD0RmDVBfTFv7PK
EnS/A8ZyN2L3t71NvSUoFknwGeZv5n5cYFCijn+eH6gu1lSIyzexI8yCsMaQqxj0
JuKLW9v5COEthStIWtE78aortZeqjiR+rAHDGl9XZB7vEm2V/cXJMqQH3BO9Vy4e
O2qZKVZlSuHPOqAbTd3Jhx0gfJG1GTB9e1dn1mtELfkCAwEAAaOBuzCBuDAJBgNV
HRMEAjAAMB0GA1UdDgQWBBT8hz0cifAAGoGDDnwJsN8R7cUAwzBQBgNVHSMESTBH
gBQqS45toV9/qL4Qh7L52wr5mVwlYqEZpBcwFTETMBEGA1UEAwwKdGVhbTI0LW5l
dIIUWZrrVnfzdRCgJVsSrZ9qwNqPNzIwEwYDVR0lBAwwCgYIKwYBBQUHAwEwCwYD
VR0PBAQDAgWgMBgGA1UdEQQRMA+CDXRlYW0yNC1zZXJ2ZXIwDQYJKoZIhvcNAQEL
BQADggEBAFBMJschX5CUjaBcrKzcpNjQ3OvPhWCo10tz/aVEuw5k7BnGNSJ21EGR
sP3MDc0T9s0BiIJ0lgLG0xju41tCpgQnSGspNw39mnTvOjI/ESOuu2v91LGxg0ZC
IYE/cJzaEqxxoZ3qwn1KaW7oQBsn2hMNcQ8+LfRkDr86OY+VPL/HQylBQF7h7pkn
kpJMPqINOwnz9dqi+LhfxMEpUbBorchHclP9bwL58dQvFxs462N3Dh8X1FjPHFdG
HlzvXdBmDAHMYjM0EtJ3kBRf9vtMRULC3f36HgJvTo79wSfpnsasiyjEVLUDFc0i
Lnyt7yl69jRCyIvqnU+ne95cIobxpnc=
-----END CERTIFICATE-----
