Certificate:
    Data:
        Version: 3 (0x2)
        Serial Number:
            8a:a9:f0:6a:c7:90:da:78:84:7c:a2:0b:e8:0c:8d:44
        Signature Algorithm: sha256WithRSAEncryption
        Issuer: CN=team26-net
        Validity
            Not Before: Aug  9 18:52:45 2022 GMT
            Not After : Jul 24 18:52:45 2025 GMT
        Subject: CN=team26-server
        Subject Public Key Info:
            Public Key Algorithm: rsaEncryption
                RSA Public-Key: (2048 bit)
                Modulus:
                    00:cf:f2:27:b7:a0:9a:05:ce:4f:18:ac:69:7b:af:
                    1d:96:07:67:8b:61:46:96:e9:7d:f1:0c:49:6d:0c:
                    71:4b:c3:30:5b:99:a5:77:fa:e7:e5:60:9f:39:7e:
                    93:39:c1:0b:c5:3d:2e:28:33:11:4d:05:c0:18:5c:
                    66:f2:17:f1:5e:5a:19:6b:44:19:41:e4:2a:22:f9:
                    20:37:1c:f4:e8:04:ce:16:fe:94:8a:87:c3:17:1a:
                    79:86:dc:27:4f:be:f2:cb:03:f9:bd:dd:38:6c:55:
                    7a:bd:27:fb:37:fd:b3:81:70:a6:5b:57:2b:20:e0:
                    74:09:b6:52:58:fb:ec:ca:62:2a:08:76:10:b1:04:
                    da:13:7d:22:d8:f0:ab:b6:62:b9:2d:af:2a:f9:a1:
                    c3:2f:c4:1e:90:25:61:4c:85:15:c6:55:71:af:4e:
                    65:e4:eb:27:d4:50:5d:a6:9c:b3:f1:93:91:a3:af:
                    1c:d3:c4:e7:7f:bc:b1:f1:10:d1:bd:e2:73:ac:3d:
                    f9:95:07:06:ed:6f:34:7e:3b:3c:0a:d0:6c:cf:dc:
                    f1:b0:43:69:61:aa:f0:28:f1:6d:fa:3e:a1:f0:9e:
                    5d:93:f5:c1:3a:e7:76:d7:20:1f:e3:20:eb:22:f7:
                    6b:93:7b:bb:5f:f0:cd:a0:ae:47:92:04:e7:ac:7f:
                    06:af
                Exponent: 65537 (0x10001)
        X509v3 extensions:
            X509v3 Basic Constraints: 
                CA:FALSE
            X509v3 Subject Key Identifier: 
                3F:B3:FA:4E:86:D8:E0:50:C3:7C:3D:AE:CA:D7:16:EA:78:99:5B:1A
            X509v3 Authority Key Identifier: 
                keyid:A5:F4:BD:1C:82:DE:08:D9:35:76:CF:58:8D:C7:B6:30:57:16:5C:82
                DirName:/CN=team26-net
                serial:06:EB:35:66:E5:47:B8:69:4D:43:30:BB:3B:01:AB:50:37:09:F7:E6

            X509v3 Extended Key Usage: 
                TLS Web Server Authentication
            X509v3 Key Usage: 
                Digital Signature, Key Encipherment
            X509v3 Subject Alternative Name: 
                DNS:team26-server
    Signature Algorithm: sha256WithRSAEncryption
         0e:d5:5a:9a:1b:53:88:3e:2f:5a:63:7b:44:80:c7:ec:fd:b5:
         f0:ae:f3:6e:66:36:67:ef:8e:76:b5:92:50:7b:c8:a1:c1:5d:
         fa:60:40:52:39:53:94:9c:a3:db:02:d2:f4:37:15:61:d4:46:
         4b:35:e9:1c:6c:97:13:e4:5a:c1:0c:fe:93:a1:32:3e:d6:17:
         5c:a8:48:83:bf:b7:e0:44:e6:95:9a:7c:61:09:67:3f:67:69:
         e8:b9:30:2e:eb:2f:f1:b5:bc:57:3e:9a:38:58:59:d8:e6:9d:
         70:27:f0:4b:94:70:12:ae:fe:b1:12:f9:2a:1c:23:ea:e8:b2:
         09:3b:97:7d:d3:e9:51:d3:7d:95:98:bf:6a:34:d1:ee:a7:0c:
         28:db:81:c4:bb:6c:57:eb:fc:f3:69:b6:0e:71:ac:12:53:40:
         28:df:a5:d0:49:b8:3c:fe:e1:06:e4:98:94:80:98:5d:e6:54:
         ac:f7:15:8d:fe:36:85:42:50:28:14:ab:2b:f9:45:2e:bb:36:
         bf:be:17:49:dd:cb:b2:0c:f8:9b:c1:bf:40:c8:d5:8b:57:ba:
         3a:6a:ee:6f:19:f2:eb:6f:15:ac:f0:72:69:26:1e:92:be:1b:
         86:e8:31:ce:21:a5:75:fb:08:7b:c2:91:c0:ba:d4:48:1d:e9:
         1b:0b:d1:1f
-----BEGIN CERTIFICATE-----
MIIDdDCCAlygAwIBAgIRAIqp8GrHkNp4hHyiC+gMjUQwDQYJKoZIhvcNAQELBQAw
FTETMBEGA1UEAwwKdGVhbTI2LW5ldDAeFw0yMjA4MDkxODUyNDVaFw0yNTA3MjQx
ODUyNDVaMBgxFjAUBgNVBAMMDXRlYW0yNi1zZXJ2ZXIwggEiMA0GCSqGSIb3DQEB
AQUAA4IBDwAwggEKAoIBAQDP8ie3oJoFzk8YrGl7rx2WB2eLYUaW6X3xDEltDHFL
wzBbmaV3+uflYJ85fpM5wQvFPS4oMxFNBcAYXGbyF/FeWhlrRBlB5Coi+SA3HPTo
BM4W/pSKh8MXGnmG3CdPvvLLA/m93ThsVXq9J/s3/bOBcKZbVysg4HQJtlJY++zK
YioIdhCxBNoTfSLY8Ku2Yrktryr5ocMvxB6QJWFMhRXGVXGvTmXk6yfUUF2mnLPx
k5GjrxzTxOd/vLHxENG94nOsPfmVBwbtbzR+OzwK0GzP3PGwQ2lhqvAo8W36PqHw
nl2T9cE653bXIB/jIOsi92uTe7tf8M2grkeSBOesfwavAgMBAAGjgbswgbgwCQYD
VR0TBAIwADAdBgNVHQ4EFgQUP7P6TobY4FDDfD2uytcW6niZWxowUAYDVR0jBEkw
R4AUpfS9HILeCNk1ds9Yjce2MFcWXIKhGaQXMBUxEzARBgNVBAMMCnRlYW0yNi1u
ZXSCFAbrNWblR7hpTUMwuzsBq1A3CffmMBMGA1UdJQQMMAoGCCsGAQUFBwMBMAsG
A1UdDwQEAwIFoDAYBgNVHREEETAPgg10ZWFtMjYtc2VydmVyMA0GCSqGSIb3DQEB
CwUAA4IBAQAO1VqaG1OIPi9aY3tEgMfs/bXwrvNuZjZn7452tZJQe8ihwV36YEBS
OVOUnKPbAtL0NxVh1EZLNekcbJcT5FrBDP6ToTI+1hdcqEiDv7fgROaVmnxhCWc/
Z2nouTAu6y/xtbxXPpo4WFnY5p1wJ/BLlHASrv6xEvkqHCPq6LIJO5d90+lR032V
mL9qNNHupwwo24HEu2xX6/zzabYOcawSU0Ao36XQSbg8/uEG5JiUgJhd5lSs9xWN
/jaFQlAoFKsr+UUuuza/vhdJ3cuyDPibwb9AyNWLV7o6au5vGfLrbxWs8HJpJh6S
vhuG6DHOIaV1+wh7wpHAutRIHekbC9Ef
-----END CERTIFICATE-----
