Certificate:
    Data:
        Version: 3 (0x2)
        Serial Number:
            17:4b:4b:b0:05:00:2e:2b:c6:c5:3a:2c:0f:80:c6:ef
        Signature Algorithm: sha256WithRSAEncryption
        Issuer: CN=team26-net
        Validity
            Not Before: Aug  9 00:11:47 2022 GMT
            Not After : Jul 24 00:11:47 2025 GMT
        Subject: CN=team26-client
        Subject Public Key Info:
            Public Key Algorithm: rsaEncryption
                RSA Public-Key: (2048 bit)
                Modulus:
                    00:e7:ba:35:d3:f3:ca:bc:68:28:80:76:a4:77:99:
                    a0:59:75:e2:17:d3:4b:fd:95:ba:5d:b3:bd:d6:b2:
                    c2:8e:f6:7a:b5:1d:f1:27:d9:38:d3:bd:c8:26:d8:
                    22:5c:09:95:b6:01:c0:3d:56:b8:0a:ce:e0:e5:b5:
                    cc:7c:6a:9b:d0:74:fe:5d:b2:3c:2c:e1:be:55:75:
                    a1:02:16:06:d4:7f:1e:c8:d6:d0:f9:90:eb:9e:63:
                    12:6a:0a:55:ac:fc:87:b6:aa:70:e4:ff:2c:7c:08:
                    fb:c8:65:ae:7c:0a:3c:0f:5d:c6:01:ae:c0:8a:59:
                    2a:2a:1d:df:35:18:ca:73:3e:a1:1f:6e:7e:0b:8e:
                    1c:91:e3:16:c7:dc:b1:c3:b4:b6:dc:0e:1e:ec:47:
                    d8:0d:82:c4:fb:c4:32:55:45:35:7e:da:12:be:b6:
                    8c:54:a3:f6:da:64:96:db:8c:8a:56:7f:04:58:4b:
                    5c:94:d9:eb:11:cd:54:48:f4:3b:2b:eb:d1:66:28:
                    40:3f:fb:56:63:f7:0c:20:8f:d5:53:e5:b9:2d:6f:
                    0f:da:37:37:5f:b8:08:29:6e:3c:d7:2d:f1:e1:30:
                    ab:42:e6:cd:87:81:f6:45:9d:d7:9b:89:ea:2c:5f:
                    b9:58:d0:0d:09:4b:9d:bc:64:11:32:55:a8:21:c1:
                    14:0f
                Exponent: 65537 (0x10001)
        X509v3 extensions:
            X509v3 Basic Constraints: 
                CA:FALSE
            X509v3 Subject Key Identifier: 
                B5:B7:14:93:42:86:84:76:2F:21:D4:12:BD:C2:A4:10:6B:F2:0F:D5
            X509v3 Authority Key Identifier: 
                keyid:64:E6:3A:DA:69:8B:E3:6B:7C:12:BD:6E:A0:70:41:BE:D4:9E:F3:45
                DirName:/CN=team26-net
                serial:11:93:80:C8:EF:A4:1F:CE:8A:42:76:63:37:D1:CC:20:FB:26:53:74

            X509v3 Extended Key Usage: 
                TLS Web Client Authentication
            X509v3 Key Usage: 
                Digital Signature
    Signature Algorithm: sha256WithRSAEncryption
         a4:8d:c3:c7:33:9f:d6:52:81:ab:39:be:5b:a5:4f:f7:ef:fb:
         76:01:ed:a7:38:9a:85:cd:f8:60:cb:d1:a9:79:10:59:50:34:
         bc:a5:ee:8f:50:3d:b4:96:0d:34:4b:b1:3d:81:26:66:71:f1:
         e4:b7:39:9d:c4:c9:0b:76:1d:a4:a9:4c:cd:f7:cb:10:9e:fd:
         53:10:08:00:d6:62:52:b7:5c:2f:d2:03:cd:9e:ff:84:72:c7:
         46:f2:5e:f6:43:91:6d:80:0b:7a:e4:42:18:cd:6c:97:dc:20:
         52:d6:1f:f4:17:4c:a0:3e:63:c9:79:df:bd:ab:43:02:b0:12:
         71:bb:7d:ac:40:be:96:60:90:3f:c2:50:70:fd:d4:10:6b:34:
         35:b0:69:14:d4:87:8a:13:81:f2:06:95:77:f4:20:c3:04:8c:
         eb:ac:ab:b3:95:30:bb:2c:7f:d7:7a:00:41:e5:10:19:75:38:
         83:a2:86:57:0c:88:8b:fe:b5:ce:4f:08:6b:58:a4:0b:df:8c:
         b1:d6:8b:0f:64:e5:20:4a:8b:14:78:c4:d5:da:ed:d5:48:db:
         8e:81:d2:05:27:5d:88:71:9a:dc:eb:54:0c:2a:23:4d:e5:5a:
         81:e0:91:15:61:9c:7e:16:6c:b6:9a:0a:02:dc:e7:70:e7:60:
         4f:a8:b8:3d
-----BEGIN CERTIFICATE-----
MIIDWTCCAkGgAwIBAgIQF0tLsAUALivGxTosD4DG7zANBgkqhkiG9w0BAQsFADAV
MRMwEQYDVQQDDAp0ZWFtMjYtbmV0MB4XDTIyMDgwOTAwMTE0N1oXDTI1MDcyNDAw
MTE0N1owGDEWMBQGA1UEAwwNdGVhbTI2LWNsaWVudDCCASIwDQYJKoZIhvcNAQEB
BQADggEPADCCAQoCggEBAOe6NdPzyrxoKIB2pHeZoFl14hfTS/2Vul2zvdaywo72
erUd8SfZONO9yCbYIlwJlbYBwD1WuArO4OW1zHxqm9B0/l2yPCzhvlV1oQIWBtR/
HsjW0PmQ655jEmoKVaz8h7aqcOT/LHwI+8hlrnwKPA9dxgGuwIpZKiod3zUYynM+
oR9ufguOHJHjFsfcscO0ttwOHuxH2A2CxPvEMlVFNX7aEr62jFSj9tpkltuMilZ/
BFhLXJTZ6xHNVEj0Oyvr0WYoQD/7VmP3DCCP1VPluS1vD9o3N1+4CCluPNct8eEw
q0LmzYeB9kWd15uJ6ixfuVjQDQlLnbxkETJVqCHBFA8CAwEAAaOBoTCBnjAJBgNV
HRMEAjAAMB0GA1UdDgQWBBS1txSTQoaEdi8h1BK9wqQQa/IP1TBQBgNVHSMESTBH
gBRk5jraaYvja3wSvW6gcEG+1J7zRaEZpBcwFTETMBEGA1UEAwwKdGVhbTI2LW5l
dIIUEZOAyO+kH86KQnZjN9HMIPsmU3QwEwYDVR0lBAwwCgYIKwYBBQUHAwIwCwYD
VR0PBAQDAgeAMA0GCSqGSIb3DQEBCwUAA4IBAQCkjcPHM5/WUoGrOb5bpU/37/t2
Ae2nOJqFzfhgy9GpeRBZUDS8pe6PUD20lg00S7E9gSZmcfHktzmdxMkLdh2kqUzN
98sQnv1TEAgA1mJSt1wv0gPNnv+EcsdG8l72Q5FtgAt65EIYzWyX3CBS1h/0F0yg
PmPJed+9q0MCsBJxu32sQL6WYJA/wlBw/dQQazQ1sGkU1IeKE4HyBpV39CDDBIzr
rKuzlTC7LH/XegBB5RAZdTiDooZXDIiL/rXOTwhrWKQL34yx1osPZOUgSosUeMTV
2u3VSNuOgdIFJ12IcZrc61QMKiNN5VqB4JEVYZx+Fmy2mgoC3Odw52BPqLg9
-----END CERTIFICATE-----
