Certificate:
    Data:
        Version: 3 (0x2)
        Serial Number:
            07:ca:4a:0b:0d:c5:7b:16:13:04:dc:14:ce:e3:7c:1a
        Signature Algorithm: sha256WithRSAEncryption
        Issuer: CN=team8-net
        Validity
            Not Before: Aug  9 00:11:31 2022 GMT
            Not After : Jul 24 00:11:31 2025 GMT
        Subject: CN=team8-client
        Subject Public Key Info:
            Public Key Algorithm: rsaEncryption
                RSA Public-Key: (2048 bit)
                Modulus:
                    00:d2:3d:ab:b4:8c:22:54:a9:1b:3d:84:3b:0c:3c:
                    e7:ce:d2:75:41:03:e4:11:71:2c:dc:97:5e:5d:d4:
                    15:42:21:6f:89:26:27:28:46:d7:eb:9c:53:88:b6:
                    72:ae:7e:b6:72:f1:b8:b3:12:b7:08:1c:dc:8a:4a:
                    8e:e4:2d:ce:3b:1f:cf:91:f5:bb:1b:3e:2e:80:f8:
                    46:57:8f:a9:cd:e3:fc:1d:d2:00:9d:23:c1:27:7c:
                    8d:67:c1:0e:c2:de:7d:f9:f5:eb:18:d6:83:83:6b:
                    77:4a:8d:54:43:a3:fa:5b:42:8c:6b:19:a0:51:d5:
                    d2:21:d7:8c:5e:67:2a:c7:e5:e4:5e:35:74:13:93:
                    2a:8c:b8:04:4d:69:d5:59:4c:b2:c0:92:d0:4c:5d:
                    04:b4:f7:96:37:41:1d:7b:20:d9:bd:fd:35:6a:7d:
                    10:a9:40:ce:41:f6:34:8f:e9:d5:69:f8:00:0e:53:
                    e1:e0:54:eb:7b:f6:51:fd:38:d8:f7:be:d0:86:50:
                    6a:a5:95:e6:02:69:52:28:a1:c2:08:e7:5d:62:9e:
                    a3:db:b4:25:c5:86:42:ce:9a:d6:d9:9c:d2:d2:99:
                    7d:d4:1e:db:9c:b8:3f:71:19:80:78:2e:d4:55:36:
                    a5:6b:63:82:d6:af:69:23:1e:bb:9d:20:ad:fe:be:
                    dd:6d
                Exponent: 65537 (0x10001)
        X509v3 extensions:
            X509v3 Basic Constraints: 
                CA:FALSE
            X509v3 Subject Key Identifier: 
                28:E7:5C:9E:F0:B6:E9:E7:E9:18:DB:67:F2:A8:B2:FC:62:1A:05:72
            X509v3 Authority Key Identifier: 
                keyid:F1:86:9E:7F:42:4C:4A:31:9D:C8:F1:FC:5C:56:CD:27:02:2E:69:D8
                DirName:/CN=team8-net
                serial:2A:7F:C2:96:19:DB:E6:D5:EA:BE:86:66:6C:7F:A4:08:B6:A1:2F:79

            X509v3 Extended Key Usage: 
                TLS Web Client Authentication
            X509v3 Key Usage: 
                Digital Signature
    Signature Algorithm: sha256WithRSAEncryption
         80:d6:12:83:d1:20:26:92:45:a0:78:5b:ea:31:63:a0:e7:a4:
         e7:68:ba:f3:f6:ef:72:f6:36:b2:2d:d9:d7:da:84:8b:9d:66:
         17:b0:8a:5d:cb:35:de:b1:4d:e2:c5:30:d7:ae:63:92:48:d3:
         7e:62:5b:d7:1c:12:2c:56:e3:e9:5e:12:53:d7:09:0c:ff:a6:
         b9:99:fa:29:3b:c6:a1:2c:a9:60:38:ca:ec:24:d8:3f:a8:f1:
         60:8a:52:01:86:cc:f9:09:ce:af:9b:cd:0f:d6:5c:f4:09:98:
         24:3c:c4:d7:aa:ca:6b:1a:de:b0:5f:ed:7b:2c:e6:9c:e6:1a:
         07:18:a1:e3:41:5d:fe:b2:32:11:44:4e:43:5d:c5:d6:eb:4b:
         2f:bb:27:66:aa:b4:68:cf:9a:63:80:a8:8a:6d:14:cf:2e:41:
         a4:26:76:14:34:de:e1:77:e8:d7:0f:13:a8:41:ab:be:b1:d2:
         f7:f3:b9:d1:bc:ef:44:dd:e4:44:ef:89:1e:b0:f7:cb:8c:05:
         44:87:64:30:cf:c2:66:85:5f:d7:e5:8f:86:74:85:c8:ac:d9:
         3a:40:f7:97:73:1b:6a:46:58:18:a1:f5:05:30:76:e9:0f:4c:
         3f:58:ce:08:2e:47:e3:18:93:00:84:18:84:0a:91:bd:26:0e:
         bb:f6:2e:8a
-----BEGIN CERTIFICATE-----
MIIDVjCCAj6gAwIBAgIQB8pKCw3FexYTBNwUzuN8GjANBgkqhkiG9w0BAQsFADAU
MRIwEAYDVQQDDAl0ZWFtOC1uZXQwHhcNMjIwODA5MDAxMTMxWhcNMjUwNzI0MDAx
MTMxWjAXMRUwEwYDVQQDDAx0ZWFtOC1jbGllbnQwggEiMA0GCSqGSIb3DQEBAQUA
A4IBDwAwggEKAoIBAQDSPau0jCJUqRs9hDsMPOfO0nVBA+QRcSzcl15d1BVCIW+J
JicoRtfrnFOItnKufrZy8bizErcIHNyKSo7kLc47H8+R9bsbPi6A+EZXj6nN4/wd
0gCdI8EnfI1nwQ7C3n359esY1oODa3dKjVRDo/pbQoxrGaBR1dIh14xeZyrH5eRe
NXQTkyqMuARNadVZTLLAktBMXQS095Y3QR17INm9/TVqfRCpQM5B9jSP6dVp+AAO
U+HgVOt79lH9ONj3vtCGUGqlleYCaVIoocII511inqPbtCXFhkLOmtbZnNLSmX3U
HtucuD9xGYB4LtRVNqVrY4LWr2kjHrudIK3+vt1tAgMBAAGjgaAwgZ0wCQYDVR0T
BAIwADAdBgNVHQ4EFgQUKOdcnvC26efpGNtn8qiy/GIaBXIwTwYDVR0jBEgwRoAU
8Yaef0JMSjGdyPH8XFbNJwIuadihGKQWMBQxEjAQBgNVBAMMCXRlYW04LW5ldIIU
Kn/Clhnb5tXqvoZmbH+kCLahL3kwEwYDVR0lBAwwCgYIKwYBBQUHAwIwCwYDVR0P
BAQDAgeAMA0GCSqGSIb3DQEBCwUAA4IBAQCA1hKD0SAmkkWgeFvqMWOg56TnaLrz
9u9y9jayLdnX2oSLnWYXsIpdyzXesU3ixTDXrmOSSNN+YlvXHBIsVuPpXhJT1wkM
/6a5mfopO8ahLKlgOMrsJNg/qPFgilIBhsz5Cc6vm80P1lz0CZgkPMTXqsprGt6w
X+17LOac5hoHGKHjQV3+sjIRRE5DXcXW60svuydmqrRoz5pjgKiKbRTPLkGkJnYU
NN7hd+jXDxOoQau+sdL387nRvO9E3eRE74kesPfLjAVEh2Qwz8JmhV/X5Y+GdIXI
rNk6QPeXcxtqRlgYofUFMHbpD0w/WM4ILkfjGJMAhBiECpG9Jg679i6K
-----END CERTIFICATE-----
