Certificate:
    Data:
        Version: 3 (0x2)
        Serial Number:
            09:2b:7d:90:12:48:88:57:3f:e3:57:c3:7d:98:95:93
        Signature Algorithm: sha256WithRSAEncryption
        Issuer: CN=team8-net
        Validity
            Not Before: Aug  4 12:27:51 2022 GMT
            Not After : Jul 19 12:27:51 2025 GMT
        Subject: CN=team8-client
        Subject Public Key Info:
            Public Key Algorithm: rsaEncryption
                RSA Public-Key: (2048 bit)
                Modulus:
                    00:ea:fa:35:de:f6:75:3e:0a:de:f0:e6:79:64:70:
                    8d:9d:3a:8d:40:06:15:f8:aa:4a:f2:22:0e:7d:80:
                    78:4d:00:2f:64:0e:f3:bf:46:50:bf:11:40:e0:61:
                    dc:d1:b3:de:c3:57:91:38:e2:5d:04:51:4b:2a:ee:
                    64:46:5f:25:79:3e:ea:3e:c4:c0:d0:36:78:a1:d9:
                    b2:51:54:dc:15:52:1c:8e:cf:79:51:13:d1:fa:e5:
                    df:33:c7:6d:81:54:e6:90:a6:80:38:ee:32:ca:f8:
                    5c:36:91:2b:ea:fd:d9:97:79:72:a8:10:80:e3:09:
                    da:5a:7c:5c:40:c0:c4:af:8a:68:17:bf:25:aa:9d:
                    ca:78:b5:cd:15:7e:43:84:bd:31:a7:3a:20:ec:b6:
                    f2:bf:8d:44:9d:a8:b4:40:26:81:2e:a5:dd:34:b5:
                    cc:72:a1:02:9c:f0:18:6e:e9:49:32:63:72:47:29:
                    55:22:f8:3e:68:71:c8:24:b0:35:6e:48:09:3d:07:
                    22:13:c2:cf:ff:fd:c5:46:f2:a4:06:3c:6f:b0:fc:
                    e7:ec:f0:51:a6:c0:9a:46:c4:07:53:4c:c2:52:2b:
                    72:ba:8c:c9:0f:86:46:8b:35:2e:f2:8e:4f:dd:10:
                    93:67:3f:a0:a9:52:5e:5e:49:19:7c:63:77:b1:0b:
                    b1:95
                Exponent: 65537 (0x10001)
        X509v3 extensions:
            X509v3 Basic Constraints: 
                CA:FALSE
            X509v3 Subject Key Identifier: 
                DC:B1:B4:CE:17:D3:C6:B8:2D:05:7D:15:AB:08:07:47:37:B9:2A:C2
            X509v3 Authority Key Identifier: 
                keyid:F8:3E:A0:7E:71:33:2B:31:BF:35:AF:94:69:BB:0F:38:E0:D4:BD:E7
                DirName:/CN=team8-net
                serial:41:7F:19:A7:CA:14:2D:67:85:96:C6:91:34:F3:CC:8C:6D:E4:F9:DE

            X509v3 Extended Key Usage: 
                TLS Web Client Authentication
            X509v3 Key Usage: 
                Digital Signature
    Signature Algorithm: sha256WithRSAEncryption
         29:3a:17:c3:50:a2:77:75:83:28:76:9f:9e:3a:a7:ed:22:88:
         49:05:c0:31:1c:88:fa:d9:14:0a:9c:e9:e4:f0:63:05:92:79:
         77:05:c7:ea:31:2d:7f:85:38:d2:1e:c2:26:35:4c:dc:c3:f5:
         04:d4:60:49:c0:a1:df:5c:53:d4:6e:71:02:47:26:1f:b3:53:
         1e:01:2d:b9:b3:b3:e8:ab:6e:2f:0e:4c:33:6d:cf:b7:48:47:
         7e:24:a7:ba:ec:72:76:ad:38:d9:67:f6:98:9e:d2:30:87:81:
         9c:41:21:a9:ed:54:48:42:07:ee:1b:7c:33:e1:29:43:53:d2:
         34:6e:1b:27:92:35:62:f5:64:b0:e2:df:63:67:a6:ea:c5:e2:
         cf:c8:b0:0f:e7:69:1d:41:98:ee:6c:62:23:e7:af:d6:3c:59:
         6d:85:43:fd:33:2c:13:9c:3c:4d:ad:08:cd:dd:64:02:1c:16:
         de:66:4c:f2:cd:1a:f7:80:b3:25:9a:53:56:67:6f:f0:22:e7:
         22:60:5d:16:5e:0f:ec:73:74:06:d9:04:72:36:c0:29:48:4f:
         f8:a6:d6:2b:43:3d:4e:d5:2b:54:0f:a3:46:2b:78:d1:fb:7b:
         a7:63:1e:54:60:47:2d:18:a1:ba:3e:ed:e1:69:3b:07:59:e3:
         e2:27:e4:06
-----BEGIN CERTIFICATE-----
MIIDVjCCAj6gAwIBAgIQCSt9kBJIiFc/41fDfZiVkzANBgkqhkiG9w0BAQsFADAU
MRIwEAYDVQQDDAl0ZWFtOC1uZXQwHhcNMjIwODA0MTIyNzUxWhcNMjUwNzE5MTIy
NzUxWjAXMRUwEwYDVQQDDAx0ZWFtOC1jbGllbnQwggEiMA0GCSqGSIb3DQEBAQUA
A4IBDwAwggEKAoIBAQDq+jXe9nU+Ct7w5nlkcI2dOo1ABhX4qkryIg59gHhNAC9k
DvO/RlC/EUDgYdzRs97DV5E44l0EUUsq7mRGXyV5Puo+xMDQNnih2bJRVNwVUhyO
z3lRE9H65d8zx22BVOaQpoA47jLK+Fw2kSvq/dmXeXKoEIDjCdpafFxAwMSvimgX
vyWqncp4tc0VfkOEvTGnOiDstvK/jUSdqLRAJoEupd00tcxyoQKc8Bhu6UkyY3JH
KVUi+D5occgksDVuSAk9ByITws///cVG8qQGPG+w/Ofs8FGmwJpGxAdTTMJSK3K6
jMkPhkaLNS7yjk/dEJNnP6CpUl5eSRl8Y3exC7GVAgMBAAGjgaAwgZ0wCQYDVR0T
BAIwADAdBgNVHQ4EFgQU3LG0zhfTxrgtBX0VqwgHRze5KsIwTwYDVR0jBEgwRoAU
+D6gfnEzKzG/Na+UabsPOODUveehGKQWMBQxEjAQBgNVBAMMCXRlYW04LW5ldIIU
QX8Zp8oULWeFlsaRNPPMjG3k+d4wEwYDVR0lBAwwCgYIKwYBBQUHAwIwCwYDVR0P
BAQDAgeAMA0GCSqGSIb3DQEBCwUAA4IBAQApOhfDUKJ3dYModp+eOqftIohJBcAx
HIj62RQKnOnk8GMFknl3BcfqMS1/hTjSHsImNUzcw/UE1GBJwKHfXFPUbnECRyYf
s1MeAS25s7Poq24vDkwzbc+3SEd+JKe67HJ2rTjZZ/aYntIwh4GcQSGp7VRIQgfu
G3wz4SlDU9I0bhsnkjVi9WSw4t9jZ6bqxeLPyLAP52kdQZjubGIj56/WPFlthUP9
MywTnDxNrQjN3WQCHBbeZkzyzRr3gLMlmlNWZ2/wIuciYF0WXg/sc3QG2QRyNsAp
SE/4ptYrQz1O1StUD6NGK3jR+3unYx5UYEctGKG6Pu3haTsHWePiJ+QG
-----END CERTIFICATE-----
