Certificate:
    Data:
        Version: 3 (0x2)
        Serial Number:
            14:bf:56:fb:42:3a:c7:ec:6f:1a:b8:ad:7d:8b:cf:f4
        Signature Algorithm: sha256WithRSAEncryption
        Issuer: CN=team8-net
        Validity
            Not Before: Aug  9 00:11:31 2022 GMT
            Not After : Jul 24 00:11:31 2025 GMT
        Subject: CN=team8-server
        Subject Public Key Info:
            Public Key Algorithm: rsaEncryption
                RSA Public-Key: (2048 bit)
                Modulus:
                    00:b4:ca:cd:f5:66:d1:76:9e:c2:7b:4d:80:e2:44:
                    57:75:53:4f:9c:ee:79:1c:2a:6f:cc:42:b2:4a:e8:
                    de:3d:a9:a6:dd:f4:70:67:a7:58:2c:4e:e4:05:09:
                    f9:2a:aa:6f:d3:29:95:e2:7b:e6:e3:f1:13:ca:ea:
                    48:4e:94:1b:12:dd:83:f4:6b:8f:54:1d:a4:18:2f:
                    a0:c4:ef:cc:58:60:e2:63:fe:d3:c7:24:44:a9:0e:
                    fa:30:77:80:4f:43:48:66:18:25:fc:7f:e0:d3:6d:
                    d9:3f:c6:ab:02:17:34:21:c0:20:ef:14:a1:89:65:
                    6b:ac:1c:c5:d6:24:91:8c:5d:e8:84:34:1e:e4:06:
                    6e:00:99:83:48:a2:b3:f9:e1:9e:71:10:ac:cd:14:
                    47:b5:fc:06:dc:b0:97:9b:52:2d:5b:3f:36:40:5f:
                    e9:d7:55:ae:7a:57:76:ca:ca:9a:4a:4d:9b:b3:db:
                    d0:89:f9:c8:db:e0:b4:3f:07:7b:33:bd:fd:be:e8:
                    5c:5b:1d:c2:29:9b:01:4c:78:90:5e:f2:83:4d:ea:
                    0b:e6:3e:c9:56:a7:5d:c7:df:14:3b:8f:bc:b2:c6:
                    9d:1e:4d:01:96:2e:cd:9a:62:32:85:2d:23:e4:c5:
                    28:d7:03:76:6d:93:6f:9e:d0:d6:69:d1:6c:99:0f:
                    69:ff
                Exponent: 65537 (0x10001)
        X509v3 extensions:
            X509v3 Basic Constraints: 
                CA:FALSE
            X509v3 Subject Key Identifier: 
                15:7A:5D:5D:09:97:52:BF:7C:7D:62:AC:A7:E7:6C:F4:88:8E:0C:C5
            X509v3 Authority Key Identifier: 
                keyid:F1:86:9E:7F:42:4C:4A:31:9D:C8:F1:FC:5C:56:CD:27:02:2E:69:D8
                DirName:/CN=team8-net
                serial:2A:7F:C2:96:19:DB:E6:D5:EA:BE:86:66:6C:7F:A4:08:B6:A1:2F:79

            X509v3 Extended Key Usage: 
                TLS Web Server Authentication
            X509v3 Key Usage: 
                Digital Signature, Key Encipherment
            X509v3 Subject Alternative Name: 
                DNS:team8-server
    Signature Algorithm: sha256WithRSAEncryption
         86:e1:f1:1e:8f:b4:58:51:48:c9:72:3b:59:95:28:53:b1:da:
         18:57:eb:37:f0:48:29:47:38:11:12:1c:6e:dd:80:d4:13:75:
         5b:6c:b8:d8:20:2c:56:48:8d:7e:c8:c4:d3:71:c9:7f:e5:81:
         79:54:94:87:7c:d2:13:c2:58:17:4a:2f:c6:ee:85:65:1a:ea:
         3e:b5:f6:0d:9f:a7:3a:05:a0:4c:4f:36:18:81:05:3c:76:f4:
         a2:93:80:74:5c:d1:09:c6:90:69:70:01:46:1f:08:37:88:14:
         0c:b8:c1:c5:e1:0a:5a:25:be:48:f8:21:b7:f8:f9:4d:3a:97:
         fd:80:84:6d:4e:6e:41:1e:16:c7:61:37:37:1d:de:fe:62:24:
         f9:45:7f:fd:5c:41:6e:b6:06:d6:9e:9a:e4:85:5d:98:b9:b4:
         c9:21:4f:1c:c7:52:72:c0:28:7a:91:1c:44:60:27:e2:63:0d:
         88:81:fc:96:06:7f:9c:25:b4:7a:50:45:af:50:6a:fb:92:76:
         7d:f6:b3:f0:c0:67:18:9a:93:fc:d7:3b:a9:61:12:6e:9e:6e:
         81:ad:46:ee:e0:63:a8:20:d3:f6:6c:12:3f:b3:04:06:82:75:
         e7:50:aa:d5:9d:e2:d9:e8:6e:1d:5b:1a:10:ae:03:e7:19:fd:
         84:21:9f:02
-----BEGIN CERTIFICATE-----
MIIDbzCCAlegAwIBAgIQFL9W+0I6x+xvGritfYvP9DANBgkqhkiG9w0BAQsFADAU
MRIwEAYDVQQDDAl0ZWFtOC1uZXQwHhcNMjIwODA5MDAxMTMxWhcNMjUwNzI0MDAx
MTMxWjAXMRUwEwYDVQQDDAx0ZWFtOC1zZXJ2ZXIwggEiMA0GCSqGSIb3DQEBAQUA
A4IBDwAwggEKAoIBAQC0ys31ZtF2nsJ7TYDiRFd1U0+c7nkcKm/MQrJK6N49qabd
9HBnp1gsTuQFCfkqqm/TKZXie+bj8RPK6khOlBsS3YP0a49UHaQYL6DE78xYYOJj
/tPHJESpDvowd4BPQ0hmGCX8f+DTbdk/xqsCFzQhwCDvFKGJZWusHMXWJJGMXeiE
NB7kBm4AmYNIorP54Z5xEKzNFEe1/AbcsJebUi1bPzZAX+nXVa56V3bKyppKTZuz
29CJ+cjb4LQ/B3szvf2+6FxbHcIpmwFMeJBe8oNN6gvmPslWp13H3xQ7j7yyxp0e
TQGWLs2aYjKFLSPkxSjXA3Ztk2+e0NZp0WyZD2n/AgMBAAGjgbkwgbYwCQYDVR0T
BAIwADAdBgNVHQ4EFgQUFXpdXQmXUr98fWKsp+ds9IiODMUwTwYDVR0jBEgwRoAU
8Yaef0JMSjGdyPH8XFbNJwIuadihGKQWMBQxEjAQBgNVBAMMCXRlYW04LW5ldIIU
Kn/Clhnb5tXqvoZmbH+kCLahL3kwEwYDVR0lBAwwCgYIKwYBBQUHAwEwCwYDVR0P
BAQDAgWgMBcGA1UdEQQQMA6CDHRlYW04LXNlcnZlcjANBgkqhkiG9w0BAQsFAAOC
AQEAhuHxHo+0WFFIyXI7WZUoU7HaGFfrN/BIKUc4ERIcbt2A1BN1W2y42CAsVkiN
fsjE03HJf+WBeVSUh3zSE8JYF0ovxu6FZRrqPrX2DZ+nOgWgTE82GIEFPHb0opOA
dFzRCcaQaXABRh8IN4gUDLjBxeEKWiW+SPght/j5TTqX/YCEbU5uQR4Wx2E3Nx3e
/mIk+UV//VxBbrYG1p6a5IVdmLm0ySFPHMdScsAoepEcRGAn4mMNiIH8lgZ/nCW0
elBFr1Bq+5J2ffaz8MBnGJqT/Nc7qWESbp5uga1G7uBjqCDT9mwSP7MEBoJ151Cq
1Z3i2ehuHVsaEK4D5xn9hCGfAg==
-----END CERTIFICATE-----
