Certificate:
    Data:
        Version: 3 (0x2)
        Serial Number:
            2a:5e:b4:11:12:74:37:15:cc:54:ab:b4:60:34:53:48
        Signature Algorithm: sha256WithRSAEncryption
        Issuer: CN=team8-net
        Validity
            Not Before: Aug  9 18:52:31 2022 GMT
            Not After : Jul 24 18:52:31 2025 GMT
        Subject: CN=team8-server
        Subject Public Key Info:
            Public Key Algorithm: rsaEncryption
                RSA Public-Key: (2048 bit)
                Modulus:
                    00:9a:4c:8d:b6:11:ff:34:1f:37:9d:f3:cb:7d:d4:
                    b3:80:bd:e6:d4:75:fc:c2:09:43:cd:25:a2:fe:42:
                    6c:53:29:07:7b:74:3f:72:69:34:a0:8e:e1:24:9c:
                    4b:72:6b:ba:32:24:76:bb:1d:23:9b:e6:91:51:c0:
                    b6:44:4e:7f:77:13:a2:8c:67:b9:84:14:f0:2f:7a:
                    79:8a:93:fd:36:3b:94:e5:8e:11:12:bb:2b:81:a7:
                    8b:56:2d:a1:28:bb:0f:b1:0e:52:e0:29:bb:e6:65:
                    ad:3e:ae:4d:ea:a2:31:7f:98:ed:5a:a6:e0:b0:9c:
                    a3:32:33:cc:b0:04:43:be:a4:f6:26:1f:7b:27:48:
                    b7:dc:bf:10:c7:16:cf:ec:1c:a9:dd:2e:cc:11:f7:
                    a2:2c:08:40:23:6a:67:f3:62:1b:a2:1a:53:d8:e5:
                    86:ed:91:8d:84:a0:a7:0a:68:3e:be:00:8b:aa:12:
                    c8:ce:c7:d5:33:49:cd:d8:3b:e9:f7:11:b4:ae:21:
                    a2:ca:74:20:e4:cf:23:e0:43:f5:33:f8:30:76:e0:
                    f0:99:45:22:2d:d0:14:c5:45:66:ea:90:6d:8b:32:
                    cd:63:33:0f:03:e1:32:27:bd:62:1c:62:b8:2c:12:
                    d8:89:e1:5e:97:b9:15:2e:40:a2:6f:fa:2c:09:8a:
                    c3:83
                Exponent: 65537 (0x10001)
        X509v3 extensions:
            X509v3 Basic Constraints: 
                CA:FALSE
            X509v3 Subject Key Identifier: 
                DF:33:30:BC:68:80:EB:09:0E:2A:92:DA:4F:F9:E0:C6:08:44:CE:EE
            X509v3 Authority Key Identifier: 
                keyid:F0:AF:22:8D:9C:DD:68:D9:D1:93:F2:CC:00:95:08:5A:FB:07:FA:11
                DirName:/CN=team8-net
                serial:6E:4A:86:DF:95:05:A4:F1:7A:E2:F0:15:EB:91:68:2F:26:DF:6C:51

            X509v3 Extended Key Usage: 
                TLS Web Server Authentication
            X509v3 Key Usage: 
                Digital Signature, Key Encipherment
            X509v3 Subject Alternative Name: 
                DNS:team8-server
    Signature Algorithm: sha256WithRSAEncryption
         14:8c:3e:92:e3:a5:6d:b5:12:1f:06:b9:cc:f1:87:9e:06:11:
         95:f8:05:72:3b:4c:24:81:cb:89:35:52:d4:94:9e:0e:12:b8:
         29:64:36:57:bd:b5:76:c0:a6:2f:99:de:41:27:a7:ce:ed:f2:
         f5:52:44:68:57:c3:35:59:fe:29:a8:b4:80:36:c8:40:fc:86:
         d9:5a:7d:4c:76:4c:16:3b:72:e6:07:c9:4e:8c:91:ad:e3:db:
         b2:8b:cb:1d:03:7c:a8:01:62:c4:fe:90:8d:48:bb:ce:f0:f9:
         61:8b:10:aa:fd:2a:d6:72:44:b6:12:5a:44:13:bc:99:81:e2:
         62:f0:a0:9d:56:74:14:b4:d9:f9:7e:1a:9e:04:3f:c9:b0:b4:
         5c:46:78:5e:e1:4c:39:e8:e5:ca:ab:24:89:62:b8:7c:41:81:
         dc:04:ad:3f:7a:e1:05:e8:20:be:83:51:41:08:d5:7f:b9:0d:
         61:e8:55:ac:b2:15:1b:bb:1d:25:b6:09:1a:16:cf:cc:07:49:
         5f:09:2a:5a:0a:6a:eb:5d:d2:ba:5e:19:52:e8:50:c9:8c:12:
         83:75:f9:84:66:ab:8e:2c:ec:91:7c:31:17:60:79:4e:e1:0a:
         62:26:2e:e8:4c:15:01:fe:60:d3:5c:db:4c:d4:9b:46:12:80:
         63:85:e5:0e
-----BEGIN CERTIFICATE-----
MIIDbzCCAlegAwIBAgIQKl60ERJ0NxXMVKu0YDRTSDANBgkqhkiG9w0BAQsFADAU
MRIwEAYDVQQDDAl0ZWFtOC1uZXQwHhcNMjIwODA5MTg1MjMxWhcNMjUwNzI0MTg1
MjMxWjAXMRUwEwYDVQQDDAx0ZWFtOC1zZXJ2ZXIwggEiMA0GCSqGSIb3DQEBAQUA
A4IBDwAwggEKAoIBAQCaTI22Ef80Hzed88t91LOAvebUdfzCCUPNJaL+QmxTKQd7
dD9yaTSgjuEknEtya7oyJHa7HSOb5pFRwLZETn93E6KMZ7mEFPAvenmKk/02O5Tl
jhESuyuBp4tWLaEouw+xDlLgKbvmZa0+rk3qojF/mO1apuCwnKMyM8ywBEO+pPYm
H3snSLfcvxDHFs/sHKndLswR96IsCEAjamfzYhuiGlPY5YbtkY2EoKcKaD6+AIuq
EsjOx9UzSc3YO+n3EbSuIaLKdCDkzyPgQ/Uz+DB24PCZRSIt0BTFRWbqkG2LMs1j
Mw8D4TInvWIcYrgsEtiJ4V6XuRUuQKJv+iwJisODAgMBAAGjgbkwgbYwCQYDVR0T
BAIwADAdBgNVHQ4EFgQU3zMwvGiA6wkOKpLaT/ngxghEzu4wTwYDVR0jBEgwRoAU
8K8ijZzdaNnRk/LMAJUIWvsH+hGhGKQWMBQxEjAQBgNVBAMMCXRlYW04LW5ldIIU
bkqG35UFpPF64vAV65FoLybfbFEwEwYDVR0lBAwwCgYIKwYBBQUHAwEwCwYDVR0P
BAQDAgWgMBcGA1UdEQQQMA6CDHRlYW04LXNlcnZlcjANBgkqhkiG9w0BAQsFAAOC
AQEAFIw+kuOlbbUSHwa5zPGHngYRlfgFcjtMJIHLiTVS1JSeDhK4KWQ2V721dsCm
L5neQSenzu3y9VJEaFfDNVn+Kai0gDbIQPyG2Vp9THZMFjty5gfJToyRrePbsovL
HQN8qAFixP6QjUi7zvD5YYsQqv0q1nJEthJaRBO8mYHiYvCgnVZ0FLTZ+X4angQ/
ybC0XEZ4XuFMOejlyqskiWK4fEGB3AStP3rhBeggvoNRQQjVf7kNYehVrLIVG7sd
JbYJGhbPzAdJXwkqWgpq613Sul4ZUuhQyYwSg3X5hGarjizskXwxF2B5TuEKYiYu
6EwVAf5g01zbTNSbRhKAY4XlDg==
-----END CERTIFICATE-----
