Certificate:
    Data:
        Version: 3 (0x2)
        Serial Number:
            02:bc:3b:50:23:df:76:c4:eb:57:12:17:fb:1e:27:50
        Signature Algorithm: sha256WithRSAEncryption
        Issuer: CN=team18-net
        Validity
            Not Before: Aug  9 18:52:40 2022 GMT
            Not After : Jul 24 18:52:40 2025 GMT
        Subject: CN=team18-client
        Subject Public Key Info:
            Public Key Algorithm: rsaEncryption
                RSA Public-Key: (2048 bit)
                Modulus:
                    00:e3:50:a8:ac:44:2f:3d:70:31:b8:16:f7:da:65:
                    40:ca:e2:19:df:84:12:32:0b:87:7b:dd:3c:75:44:
                    45:2b:c6:34:5a:7c:14:ec:49:ec:34:69:1c:06:2f:
                    32:dd:d9:59:29:38:7a:8a:29:9c:ed:37:a9:44:21:
                    cd:ff:71:34:27:b6:15:0f:90:83:02:af:a1:1e:ac:
                    4d:a7:dc:0e:d3:35:d8:16:50:5a:e2:35:2f:05:af:
                    67:d8:24:a8:31:83:fe:31:08:7d:a6:b6:77:4f:44:
                    92:cb:42:e7:93:8d:86:72:c5:f4:c7:16:3c:42:85:
                    d1:77:b7:f6:91:a2:eb:71:48:f9:0b:39:d8:f8:69:
                    a0:c6:30:94:b3:c2:72:6a:42:cb:d9:e1:f0:42:92:
                    99:7d:e8:43:48:54:4c:6f:d7:c0:e6:c9:fc:f4:e6:
                    fe:b9:c6:47:56:9b:e5:a9:c3:70:94:5d:4b:4b:33:
                    b8:98:53:62:15:78:44:ba:30:9c:19:f5:d6:99:ce:
                    91:5a:b0:68:92:7e:8c:8f:30:f9:92:b4:74:b1:b9:
                    9c:42:08:43:fb:01:e8:61:0e:7a:7c:7f:30:ce:10:
                    44:f1:c2:a5:72:20:17:8f:d4:6a:ac:00:3a:6c:54:
                    dd:76:56:8a:ef:ab:c6:fb:77:df:ec:44:98:21:40:
                    bf:43
                Exponent: 65537 (0x10001)
        X509v3 extensions:
            X509v3 Basic Constraints: 
                CA:FALSE
            X509v3 Subject Key Identifier: 
                3E:20:7B:AF:90:3E:E6:F5:E6:C9:CA:2F:F5:25:B9:3D:E2:DE:6A:E1
            X509v3 Authority Key Identifier: 
                keyid:32:5D:D3:05:7F:E4:BE:3D:AB:8C:DA:4A:FC:4E:62:B0:C7:84:50:F9
                DirName:/CN=team18-net
                serial:54:1E:B3:F7:1B:A7:8F:47:BE:EE:B5:C4:A9:68:6D:8A:FA:36:3E:16

            X509v3 Extended Key Usage: 
                TLS Web Client Authentication
            X509v3 Key Usage: 
                Digital Signature
    Signature Algorithm: sha256WithRSAEncryption
         29:0b:00:f2:13:fb:9e:61:a4:23:7c:d0:29:f7:dd:22:4b:23:
         49:66:64:cc:b4:ed:66:a4:b2:26:e7:58:de:9e:aa:2f:f0:82:
         b9:ee:ea:80:02:1e:9d:93:e4:c1:cc:d2:c9:4f:ff:5a:4d:3c:
         33:26:79:77:01:ca:e6:a9:6d:e1:94:f0:fc:0d:44:7f:34:b9:
         3b:5e:0a:f7:5c:b8:13:f3:9b:35:5d:1a:0b:18:f1:86:a1:90:
         5b:af:4b:ed:30:c5:59:b0:dd:bd:1b:94:fd:d1:da:6a:94:cb:
         a3:9f:52:a3:b6:39:4b:15:db:a1:f8:18:b1:4c:8e:69:ac:6b:
         b9:d6:10:7a:9c:d8:a5:58:95:21:08:dd:e2:ab:3a:06:cc:39:
         85:19:e8:c1:80:66:bc:a3:af:e1:0f:2e:65:55:39:a5:a4:10:
         93:e6:01:b3:56:23:ec:16:41:dd:73:36:06:2f:7e:11:a0:e6:
         70:76:0a:bb:d1:93:cc:bb:b1:9b:fd:cf:57:6c:ad:d2:5b:64:
         32:ce:0b:7f:83:3b:f9:22:ce:89:34:09:ed:d1:21:84:26:d2:
         87:e2:21:61:45:e4:7f:5f:ce:c4:63:3f:77:9a:56:1c:e1:10:
         94:5b:f7:2f:da:2a:e2:68:76:76:95:18:8d:52:64:49:8a:9b:
         2c:b3:aa:45
-----BEGIN CERTIFICATE-----
MIIDWTCCAkGgAwIBAgIQArw7UCPfdsTrVxIX+x4nUDANBgkqhkiG9w0BAQsFADAV
MRMwEQYDVQQDDAp0ZWFtMTgtbmV0MB4XDTIyMDgwOTE4NTI0MFoXDTI1MDcyNDE4
NTI0MFowGDEWMBQGA1UEAwwNdGVhbTE4LWNsaWVudDCCASIwDQYJKoZIhvcNAQEB
BQADggEPADCCAQoCggEBAONQqKxELz1wMbgW99plQMriGd+EEjILh3vdPHVERSvG
NFp8FOxJ7DRpHAYvMt3ZWSk4eoopnO03qUQhzf9xNCe2FQ+QgwKvoR6sTafcDtM1
2BZQWuI1LwWvZ9gkqDGD/jEIfaa2d09EkstC55ONhnLF9McWPEKF0Xe39pGi63FI
+Qs52PhpoMYwlLPCcmpCy9nh8EKSmX3oQ0hUTG/XwObJ/PTm/rnGR1ab5anDcJRd
S0szuJhTYhV4RLownBn11pnOkVqwaJJ+jI8w+ZK0dLG5nEIIQ/sB6GEOenx/MM4Q
RPHCpXIgF4/UaqwAOmxU3XZWiu+rxvt33+xEmCFAv0MCAwEAAaOBoTCBnjAJBgNV
HRMEAjAAMB0GA1UdDgQWBBQ+IHuvkD7m9ebJyi/1Jbk94t5q4TBQBgNVHSMESTBH
gBQyXdMFf+S+PauM2kr8TmKwx4RQ+aEZpBcwFTETMBEGA1UEAwwKdGVhbTE4LW5l
dIIUVB6z9xunj0e+7rXEqWhtivo2PhYwEwYDVR0lBAwwCgYIKwYBBQUHAwIwCwYD
VR0PBAQDAgeAMA0GCSqGSIb3DQEBCwUAA4IBAQApCwDyE/ueYaQjfNAp990iSyNJ
ZmTMtO1mpLIm51jenqov8IK57uqAAh6dk+TBzNLJT/9aTTwzJnl3AcrmqW3hlPD8
DUR/NLk7Xgr3XLgT85s1XRoLGPGGoZBbr0vtMMVZsN29G5T90dpqlMujn1KjtjlL
Fduh+BixTI5prGu51hB6nNilWJUhCN3iqzoGzDmFGejBgGa8o6/hDy5lVTmlpBCT
5gGzViPsFkHdczYGL34RoOZwdgq70ZPMu7Gb/c9XbK3SW2Qyzgt/gzv5Is6JNAnt
0SGEJtKH4iFhReR/X87EYz93mlYc4RCUW/cv2iriaHZ2lRiNUmRJipsss6pF
-----END CERTIFICATE-----
