Certificate:
    Data:
        Version: 3 (0x2)
        Serial Number:
            25:bd:44:bf:0d:54:57:e2:40:9b:98:d2:b2:1b:55:76
        Signature Algorithm: sha256WithRSAEncryption
        Issuer: CN=team29-net
        Validity
            Not Before: Aug  9 00:11:49 2022 GMT
            Not After : Jul 24 00:11:49 2025 GMT
        Subject: CN=team29-server
        Subject Public Key Info:
            Public Key Algorithm: rsaEncryption
                RSA Public-Key: (2048 bit)
                Modulus:
                    00:b8:3f:23:b2:a4:57:ed:4f:01:7c:60:4c:ca:7f:
                    84:53:c2:8e:1e:00:b4:3e:33:7b:31:48:0d:48:10:
                    28:d4:c2:d0:1b:c3:a4:3f:4d:ac:c8:50:a5:6c:f0:
                    62:ff:22:bd:fd:ee:a1:77:de:ca:65:9d:03:13:da:
                    b3:e9:e0:3e:bf:aa:bf:e9:80:c5:93:ac:e5:73:94:
                    69:f6:94:60:bf:82:6a:91:73:41:de:e4:2d:c8:8e:
                    86:3c:56:f4:19:f0:2b:72:f8:4b:b7:c1:72:c0:5f:
                    38:a7:5f:a4:78:a5:0c:32:0a:6e:f9:45:dd:d9:e5:
                    eb:37:f9:fa:7f:1b:e2:96:6e:c0:13:f4:56:f6:ff:
                    60:e6:3e:c1:86:c6:b1:9d:5f:d6:66:59:3b:f9:03:
                    02:61:99:fc:92:8f:03:61:af:ce:f2:36:74:d8:31:
                    33:0f:b2:42:a9:bf:c3:95:12:da:a8:f3:3e:85:e4:
                    f5:8f:3b:1c:2b:ad:16:73:e3:c1:2d:57:69:6b:6a:
                    a6:a2:a4:b6:fd:c7:19:03:c1:64:b8:17:d0:0a:3c:
                    1f:b5:55:b5:60:06:6c:40:83:e4:66:2c:e3:9a:ac:
                    fb:9c:fa:3a:39:10:8c:a6:fc:42:dc:0a:7f:b1:a1:
                    1a:2a:6d:44:21:59:29:ed:85:96:0e:bd:e5:d7:53:
                    41:7d
                Exponent: 65537 (0x10001)
        X509v3 extensions:
            X509v3 Basic Constraints: 
                CA:FALSE
            X509v3 Subject Key Identifier: 
                95:CC:BC:72:F2:F7:77:EC:92:EC:72:37:8A:6E:95:DE:F4:05:41:58
            X509v3 Authority Key Identifier: 
                keyid:6D:3E:DE:AE:8B:26:1F:98:35:89:D8:8D:F1:E6:D0:83:19:E1:8D:C3
                DirName:/CN=team29-net
                serial:64:8C:7F:37:5A:3D:E5:A3:7C:A0:D9:12:41:3D:20:6E:B4:5B:D5:8B

            X509v3 Extended Key Usage: 
                TLS Web Server Authentication
            X509v3 Key Usage: 
                Digital Signature, Key Encipherment
            X509v3 Subject Alternative Name: 
                DNS:team29-server
    Signature Algorithm: sha256WithRSAEncryption
         2c:94:dc:29:d7:23:5b:49:96:43:dc:5f:61:0c:41:7a:a5:8f:
         84:be:ba:c7:c2:62:bf:2f:21:37:1d:cb:a0:54:f2:d2:1c:15:
         9f:02:99:d1:db:37:a2:59:d5:24:78:d2:f5:20:b3:c9:4b:84:
         d8:70:aa:9d:2a:de:40:86:0b:a1:d9:3c:ff:e8:81:5d:65:0a:
         07:67:c7:ca:0b:3d:09:2a:5d:60:2d:38:c8:4f:45:8b:8d:b5:
         c6:e3:35:8a:79:d5:26:78:fe:1f:e5:30:0d:6a:81:93:5b:c3:
         35:0e:a3:ad:81:50:2a:9b:67:2e:a7:46:1d:1b:15:d2:ce:97:
         84:bb:6f:5a:45:30:01:fd:ce:30:dc:32:0b:5f:3b:3e:8e:ad:
         e5:1d:26:c4:68:34:fe:db:83:cd:83:2c:1c:a0:91:71:38:ee:
         ca:a6:98:b8:0d:7a:12:3f:93:e3:4b:98:5f:50:db:3a:ea:27:
         18:52:17:4b:90:24:ff:7e:80:0f:56:06:af:ad:b1:0b:89:c8:
         1e:9a:f1:a0:0c:f8:61:40:9b:c6:33:71:15:ca:a7:e2:d0:be:
         60:e8:50:2e:37:3a:c3:57:50:56:3e:6e:54:dd:e2:06:43:dc:
         0d:0d:1a:f7:42:cf:d1:f8:c8:73:36:84:c3:be:58:fb:e6:fa:
         f9:09:e2:65
-----BEGIN CERTIFICATE-----
MIIDczCCAlugAwIBAgIQJb1Evw1UV+JAm5jSshtVdjANBgkqhkiG9w0BAQsFADAV
MRMwEQYDVQQDDAp0ZWFtMjktbmV0MB4XDTIyMDgwOTAwMTE0OVoXDTI1MDcyNDAw
MTE0OVowGDEWMBQGA1UEAwwNdGVhbTI5LXNlcnZlcjCCASIwDQYJKoZIhvcNAQEB
BQADggEPADCCAQoCggEBALg/I7KkV+1PAXxgTMp/hFPCjh4AtD4zezFIDUgQKNTC
0BvDpD9NrMhQpWzwYv8ivf3uoXfeymWdAxPas+ngPr+qv+mAxZOs5XOUafaUYL+C
apFzQd7kLciOhjxW9BnwK3L4S7fBcsBfOKdfpHilDDIKbvlF3dnl6zf5+n8b4pZu
wBP0Vvb/YOY+wYbGsZ1f1mZZO/kDAmGZ/JKPA2GvzvI2dNgxMw+yQqm/w5US2qjz
PoXk9Y87HCutFnPjwS1XaWtqpqKktv3HGQPBZLgX0Ao8H7VVtWAGbECD5GYs45qs
+5z6OjkQjKb8QtwKf7GhGiptRCFZKe2Flg695ddTQX0CAwEAAaOBuzCBuDAJBgNV
HRMEAjAAMB0GA1UdDgQWBBSVzLxy8vd37JLscjeKbpXe9AVBWDBQBgNVHSMESTBH
gBRtPt6uiyYfmDWJ2I3x5tCDGeGNw6EZpBcwFTETMBEGA1UEAwwKdGVhbTI5LW5l
dIIUZIx/N1o95aN8oNkSQT0gbrRb1YswEwYDVR0lBAwwCgYIKwYBBQUHAwEwCwYD
VR0PBAQDAgWgMBgGA1UdEQQRMA+CDXRlYW0yOS1zZXJ2ZXIwDQYJKoZIhvcNAQEL
BQADggEBACyU3CnXI1tJlkPcX2EMQXqlj4S+usfCYr8vITcdy6BU8tIcFZ8CmdHb
N6JZ1SR40vUgs8lLhNhwqp0q3kCGC6HZPP/ogV1lCgdnx8oLPQkqXWAtOMhPRYuN
tcbjNYp51SZ4/h/lMA1qgZNbwzUOo62BUCqbZy6nRh0bFdLOl4S7b1pFMAH9zjDc
MgtfOz6OreUdJsRoNP7bg82DLBygkXE47sqmmLgNehI/k+NLmF9Q2zrqJxhSF0uQ
JP9+gA9WBq+tsQuJyB6a8aAM+GFAm8YzcRXKp+LQvmDoUC43OsNXUFY+blTd4gZD
3A0NGvdCz9H4yHM2hMO+WPvm+vkJ4mU=
-----END CERTIFICATE-----
