Certificate:
    Data:
        Version: 3 (0x2)
        Serial Number:
            fd:96:3d:03:33:16:d9:74:8b:51:ce:ff:7d:2a:38:70
        Signature Algorithm: sha256WithRSAEncryption
        Issuer: CN=team29-net
        Validity
            Not Before: Aug  9 18:52:47 2022 GMT
            Not After : Jul 24 18:52:47 2025 GMT
        Subject: CN=team29-client
        Subject Public Key Info:
            Public Key Algorithm: rsaEncryption
                RSA Public-Key: (2048 bit)
                Modulus:
                    00:c6:48:52:b6:4c:7b:ef:e0:a8:5a:1b:03:39:a2:
                    16:d6:f9:1d:81:01:21:5e:cb:44:14:7d:a9:19:37:
                    53:10:e3:1a:16:59:9b:31:c4:0e:8d:29:5f:d9:45:
                    4d:df:b6:f7:f9:f2:41:83:44:e1:08:e3:9e:88:fe:
                    06:46:c2:b1:14:c6:2f:0e:f0:33:e5:c7:f7:c6:21:
                    73:45:87:01:78:2f:cd:1f:83:78:b2:14:50:8d:ea:
                    b9:b9:0a:9e:b1:77:df:db:23:01:a2:0d:fb:6f:5f:
                    35:c7:3c:48:9a:55:61:08:90:55:0f:4a:9c:e3:88:
                    b5:c1:35:5e:f9:9a:10:77:7d:aa:4c:c1:cb:2a:01:
                    93:4e:32:09:ce:ad:2d:fe:82:c7:56:dd:fc:cb:ec:
                    6f:7e:46:4f:50:64:8a:8c:8f:cb:7b:3f:37:42:7e:
                    15:d7:5c:9e:b7:2e:67:f4:04:8e:25:a5:98:84:98:
                    4c:13:45:4b:96:94:49:d2:db:cf:c2:83:cc:45:41:
                    cd:6d:b3:dd:b0:87:80:00:b1:7c:14:82:09:ed:3d:
                    0d:aa:48:9a:ab:0e:4c:45:76:88:e9:ab:11:6b:53:
                    74:f0:7e:f6:6b:74:1d:0d:22:22:15:b2:74:dc:3b:
                    f3:be:a2:22:d7:3f:6f:70:6b:71:b3:e6:cf:05:3b:
                    c4:b9
                Exponent: 65537 (0x10001)
        X509v3 extensions:
            X509v3 Basic Constraints: 
                CA:FALSE
            X509v3 Subject Key Identifier: 
                23:AF:51:0B:CF:0A:9A:27:EE:12:1B:47:93:76:FB:E8:1D:5C:31:55
            X509v3 Authority Key Identifier: 
                keyid:DE:A1:78:82:AD:8C:C6:F5:3E:E2:35:0F:9A:E9:50:E8:36:63:E9:E4
                DirName:/CN=team29-net
                serial:71:1C:89:9B:A0:E6:FC:A4:4F:E5:B7:15:78:D9:65:F9:48:31:9A:4A

            X509v3 Extended Key Usage: 
                TLS Web Client Authentication
            X509v3 Key Usage: 
                Digital Signature
    Signature Algorithm: sha256WithRSAEncryption
         0d:46:5b:79:d7:bd:d4:ea:1a:48:a0:d6:d5:0f:15:bf:46:e0:
         7a:39:8e:d7:7a:01:bc:4a:9b:bd:90:af:78:cc:1f:b8:5d:be:
         0f:23:4a:1d:65:a9:4b:a3:3b:72:de:47:85:f9:1a:63:9a:c9:
         14:f2:92:b8:16:77:41:70:4a:0d:f7:23:62:3d:4d:7b:a3:ed:
         f1:50:49:54:88:51:84:51:81:d4:b6:63:dc:4d:e5:27:1a:00:
         08:e7:2d:65:08:c0:79:5c:12:59:db:1c:d3:ba:c7:5e:e5:23:
         4a:75:f2:bc:3f:7c:7c:ba:26:53:79:3f:8f:13:4a:ef:85:f6:
         f6:e4:39:00:65:96:13:08:c5:9a:cb:9b:fd:f7:72:83:5c:80:
         34:a5:68:36:89:4f:e9:51:71:78:ee:45:47:20:96:20:68:c3:
         5f:bd:11:4c:38:58:ed:96:3e:e6:40:02:21:67:87:0c:8e:41:
         c8:ea:58:c6:67:a6:d4:e8:d4:e1:b3:3a:95:6e:20:fb:ad:9a:
         2d:29:bb:38:13:67:af:ca:9a:75:0f:a4:12:cb:0b:e1:82:b7:
         d6:78:25:ee:ff:d4:8a:62:75:df:e9:39:44:d3:9e:dd:43:e3:
         49:05:e6:97:45:e8:33:c2:17:57:10:3f:12:45:7c:c4:1d:43:
         ea:e4:cf:5e
-----BEGIN CERTIFICATE-----
MIIDWjCCAkKgAwIBAgIRAP2WPQMzFtl0i1HO/30qOHAwDQYJKoZIhvcNAQELBQAw
FTETMBEGA1UEAwwKdGVhbTI5LW5ldDAeFw0yMjA4MDkxODUyNDdaFw0yNTA3MjQx
ODUyNDdaMBgxFjAUBgNVBAMMDXRlYW0yOS1jbGllbnQwggEiMA0GCSqGSIb3DQEB
AQUAA4IBDwAwggEKAoIBAQDGSFK2THvv4KhaGwM5ohbW+R2BASFey0QUfakZN1MQ
4xoWWZsxxA6NKV/ZRU3ftvf58kGDROEI456I/gZGwrEUxi8O8DPlx/fGIXNFhwF4
L80fg3iyFFCN6rm5Cp6xd9/bIwGiDftvXzXHPEiaVWEIkFUPSpzjiLXBNV75mhB3
fapMwcsqAZNOMgnOrS3+gsdW3fzL7G9+Rk9QZIqMj8t7PzdCfhXXXJ63Lmf0BI4l
pZiEmEwTRUuWlEnS28/Cg8xFQc1ts92wh4AAsXwUggntPQ2qSJqrDkxFdojpqxFr
U3TwfvZrdB0NIiIVsnTcO/O+oiLXP29wa3Gz5s8FO8S5AgMBAAGjgaEwgZ4wCQYD
VR0TBAIwADAdBgNVHQ4EFgQUI69RC88KmifuEhtHk3b76B1cMVUwUAYDVR0jBEkw
R4AU3qF4gq2MxvU+4jUPmulQ6DZj6eShGaQXMBUxEzARBgNVBAMMCnRlYW0yOS1u
ZXSCFHEciZug5vykT+W3FXjZZflIMZpKMBMGA1UdJQQMMAoGCCsGAQUFBwMCMAsG
A1UdDwQEAwIHgDANBgkqhkiG9w0BAQsFAAOCAQEADUZbede91OoaSKDW1Q8Vv0bg
ejmO13oBvEqbvZCveMwfuF2+DyNKHWWpS6M7ct5HhfkaY5rJFPKSuBZ3QXBKDfcj
Yj1Ne6Pt8VBJVIhRhFGB1LZj3E3lJxoACOctZQjAeVwSWdsc07rHXuUjSnXyvD98
fLomU3k/jxNK74X29uQ5AGWWEwjFmsub/fdyg1yANKVoNolP6VFxeO5FRyCWIGjD
X70RTDhY7ZY+5kACIWeHDI5ByOpYxmem1OjU4bM6lW4g+62aLSm7OBNnr8qadQ+k
EssL4YK31ngl7v/UimJ13+k5RNOe3UPjSQXml0XoM8IXVxA/EkV8xB1D6uTPXg==
-----END CERTIFICATE-----
