Certificate:
    Data:
        Version: 3 (0x2)
        Serial Number:
            bc:97:e8:3c:47:bf:fa:20:43:07:9d:d4:a8:66:17:a8
        Signature Algorithm: sha256WithRSAEncryption
        Issuer: CN=team8-net
        Validity
            Not Before: Aug  4 12:27:51 2022 GMT
            Not After : Jul 19 12:27:51 2025 GMT
        Subject: CN=team8-server
        Subject Public Key Info:
            Public Key Algorithm: rsaEncryption
                RSA Public-Key: (2048 bit)
                Modulus:
                    00:d7:26:0b:1b:4e:c2:11:e7:8d:ab:21:31:70:c0:
                    d2:e6:47:8d:88:db:0b:c6:81:bb:09:e3:c6:dc:a8:
                    5b:60:e4:83:e9:25:89:de:a0:a0:6c:38:11:6a:5e:
                    6f:ff:cd:1d:da:71:47:b4:aa:52:fe:23:97:f7:cd:
                    bb:eb:b5:c5:c5:a6:6e:a3:54:0c:05:f4:7e:9f:e5:
                    91:00:40:f5:94:64:fa:12:6d:24:6b:f2:d9:7e:49:
                    f9:60:57:ad:04:b7:67:96:a7:12:4f:ae:f9:0a:d3:
                    5b:41:15:6e:bf:11:49:9d:bc:9c:5e:f7:24:a3:6d:
                    d5:a1:a7:ab:2b:95:55:a3:90:25:33:b3:c2:6e:3d:
                    69:16:c7:0d:05:c5:e9:c0:6c:b4:ff:39:ff:2e:c8:
                    0b:6d:db:8b:82:4d:39:43:83:01:92:4e:f9:90:74:
                    0b:75:30:83:f2:01:1d:13:15:79:fa:15:83:87:74:
                    1a:85:f5:12:50:02:c4:27:ff:25:c4:1a:15:08:e1:
                    97:2e:32:bc:74:78:e7:de:f1:85:b6:f5:22:ea:0f:
                    51:5c:81:cd:bd:47:e8:d4:34:85:48:43:09:31:dd:
                    e9:79:56:70:a1:5d:0e:8d:35:62:4d:ba:27:a6:56:
                    3e:35:4f:33:71:5f:dc:60:e9:a2:d0:1d:f2:87:00:
                    31:e9
                Exponent: 65537 (0x10001)
        X509v3 extensions:
            X509v3 Basic Constraints: 
                CA:FALSE
            X509v3 Subject Key Identifier: 
                80:64:42:33:9C:1B:66:AE:A0:BB:27:3F:E1:E5:1F:1D:BD:FC:E1:F6
            X509v3 Authority Key Identifier: 
                keyid:F8:3E:A0:7E:71:33:2B:31:BF:35:AF:94:69:BB:0F:38:E0:D4:BD:E7
                DirName:/CN=team8-net
                serial:41:7F:19:A7:CA:14:2D:67:85:96:C6:91:34:F3:CC:8C:6D:E4:F9:DE

            X509v3 Extended Key Usage: 
                TLS Web Server Authentication
            X509v3 Key Usage: 
                Digital Signature, Key Encipherment
            X509v3 Subject Alternative Name: 
                DNS:team8-server
    Signature Algorithm: sha256WithRSAEncryption
         8a:a9:a8:39:ca:96:6d:c2:32:0f:c0:85:89:57:a4:37:22:f7:
         6c:d0:9d:96:a0:b7:a3:25:1f:4b:5e:e2:2a:2a:70:22:2c:ed:
         ac:8f:66:13:20:ea:7c:54:93:c4:8c:53:3a:f1:b5:e2:58:9c:
         a5:55:af:7a:3a:2c:85:3a:2a:80:c6:86:a2:c0:25:59:79:25:
         7b:6f:c8:b1:d0:ca:14:65:7f:f9:83:57:f8:6e:5a:73:d6:3c:
         07:39:b2:85:d0:f4:48:80:47:00:24:a5:8a:51:67:98:00:e6:
         dd:75:d6:07:d5:4b:aa:08:10:2e:b2:d1:20:c7:01:e5:83:63:
         ee:69:6d:f2:ce:8d:2c:79:c2:74:66:54:94:54:99:d6:45:dd:
         82:a8:a8:f6:45:84:90:10:b2:93:ea:9e:7c:5f:4b:a4:7f:26:
         76:9b:bd:e5:d8:e3:7f:9f:6c:7f:9d:86:af:97:1d:16:e5:bd:
         e3:77:f1:fe:cc:46:89:bb:5f:04:a7:b9:48:2a:cd:24:a5:d2:
         6c:ce:24:3e:46:ad:69:8b:73:d3:7c:82:a6:8b:27:7d:c0:c5:
         d9:bd:b1:64:11:5c:02:c3:4a:a5:64:b7:db:7f:5a:33:14:a1:
         67:d4:a5:34:92:95:95:3d:ed:14:0d:5b:03:96:83:77:34:e5:
         d8:48:f7:4b
-----BEGIN CERTIFICATE-----
MIIDcDCCAligAwIBAgIRALyX6DxHv/ogQwed1KhmF6gwDQYJKoZIhvcNAQELBQAw
FDESMBAGA1UEAwwJdGVhbTgtbmV0MB4XDTIyMDgwNDEyMjc1MVoXDTI1MDcxOTEy
Mjc1MVowFzEVMBMGA1UEAwwMdGVhbTgtc2VydmVyMIIBIjANBgkqhkiG9w0BAQEF
AAOCAQ8AMIIBCgKCAQEA1yYLG07CEeeNqyExcMDS5keNiNsLxoG7CePG3KhbYOSD
6SWJ3qCgbDgRal5v/80d2nFHtKpS/iOX982767XFxaZuo1QMBfR+n+WRAED1lGT6
Em0ka/LZfkn5YFetBLdnlqcST675CtNbQRVuvxFJnbycXvcko23VoaerK5VVo5Al
M7PCbj1pFscNBcXpwGy0/zn/LsgLbduLgk05Q4MBkk75kHQLdTCD8gEdExV5+hWD
h3QahfUSUALEJ/8lxBoVCOGXLjK8dHjn3vGFtvUi6g9RXIHNvUfo1DSFSEMJMd3p
eVZwoV0OjTViTbonplY+NU8zcV/cYOmi0B3yhwAx6QIDAQABo4G5MIG2MAkGA1Ud
EwQCMAAwHQYDVR0OBBYEFIBkQjOcG2auoLsnP+HlHx29/OH2ME8GA1UdIwRIMEaA
FPg+oH5xMysxvzWvlGm7Dzjg1L3noRikFjAUMRIwEAYDVQQDDAl0ZWFtOC1uZXSC
FEF/GafKFC1nhZbGkTTzzIxt5PneMBMGA1UdJQQMMAoGCCsGAQUFBwMBMAsGA1Ud
DwQEAwIFoDAXBgNVHREEEDAOggx0ZWFtOC1zZXJ2ZXIwDQYJKoZIhvcNAQELBQAD
ggEBAIqpqDnKlm3CMg/AhYlXpDci92zQnZagt6MlH0te4ioqcCIs7ayPZhMg6nxU
k8SMUzrxteJYnKVVr3o6LIU6KoDGhqLAJVl5JXtvyLHQyhRlf/mDV/huWnPWPAc5
soXQ9EiARwAkpYpRZ5gA5t111gfVS6oIEC6y0SDHAeWDY+5pbfLOjSx5wnRmVJRU
mdZF3YKoqPZFhJAQspPqnnxfS6R/JnabveXY43+fbH+dhq+XHRblveN38f7MRom7
XwSnuUgqzSSl0mzOJD5GrWmLc9N8gqaLJ33Axdm9sWQRXALDSqVkt9t/WjMUoWfU
pTSSlZU97RQNWwOWg3c05dhI90s=
-----END CERTIFICATE-----
