Certificate:
    Data:
        Version: 3 (0x2)
        Serial Number:
            60:53:b4:8f:3c:27:71:fb:f3:87:c0:5b:c7:47:32:a9
        Signature Algorithm: sha256WithRSAEncryption
        Issuer: CN=team27-net
        Validity
            Not Before: Aug  9 00:11:47 2022 GMT
            Not After : Jul 24 00:11:47 2025 GMT
        Subject: CN=team27-client
        Subject Public Key Info:
            Public Key Algorithm: rsaEncryption
                RSA Public-Key: (2048 bit)
                Modulus:
                    00:d0:ed:82:69:83:08:33:f9:8d:d1:46:1b:7c:0d:
                    c3:f2:18:1d:2a:ef:c7:d2:81:c7:c8:5f:73:46:6f:
                    1f:81:80:e1:cf:da:d3:39:1a:87:12:e3:3c:bf:21:
                    f1:36:f0:b4:98:40:94:8c:ea:a2:09:48:68:97:69:
                    fd:a6:c9:22:49:d7:0d:93:c3:05:58:da:c9:03:82:
                    ca:c2:01:aa:3f:7f:b3:36:a0:4f:da:f4:d0:eb:8f:
                    60:e9:87:4d:76:d6:c4:c6:a1:ea:33:72:bd:ca:7f:
                    8a:ef:e0:58:f1:59:d8:bc:7c:7c:7c:86:b8:79:23:
                    f6:5f:79:80:e2:b2:8f:2c:16:1b:6d:76:30:17:2c:
                    cc:97:6d:b3:c9:00:7c:d1:57:8e:99:84:af:f8:1c:
                    6d:fa:01:3a:3a:0f:a7:89:a8:61:57:52:5c:07:4e:
                    d3:7c:b8:af:b1:7b:20:cc:99:88:71:07:e3:27:ac:
                    b6:b4:d8:e5:33:1b:7f:3a:86:37:f2:49:65:e5:00:
                    d8:3e:ee:7b:47:db:ca:dd:1a:21:6c:d7:fe:d5:97:
                    78:df:dd:6f:2b:21:fd:16:8b:43:60:2d:b2:f5:f4:
                    8a:a6:c1:af:54:d0:f9:7c:6c:05:c1:29:2f:87:c0:
                    29:51:bc:38:42:64:36:cc:34:f3:c1:5b:41:25:7d:
                    56:49
                Exponent: 65537 (0x10001)
        X509v3 extensions:
            X509v3 Basic Constraints: 
                CA:FALSE
            X509v3 Subject Key Identifier: 
                20:47:77:18:C2:0D:A7:41:CD:BF:4E:63:0C:A5:DF:84:C8:90:F3:4D
            X509v3 Authority Key Identifier: 
                keyid:10:6D:48:F9:1D:E1:B9:3B:6D:3D:40:F3:F5:FF:99:16:B4:DE:BF:3E
                DirName:/CN=team27-net
                serial:35:2F:6F:48:F4:CA:C8:40:0B:56:E0:4E:05:3D:47:3C:21:AD:15:51

            X509v3 Extended Key Usage: 
                TLS Web Client Authentication
            X509v3 Key Usage: 
                Digital Signature
    Signature Algorithm: sha256WithRSAEncryption
         17:dc:c6:b6:26:10:44:c1:31:5b:b0:4a:1a:b7:03:53:5e:0f:
         a7:97:83:89:92:9a:ed:63:fd:57:eb:eb:b7:8f:8d:32:b8:d6:
         16:45:7b:94:da:6a:fb:d8:8a:26:53:c7:76:ba:9f:45:f2:79:
         7b:d2:53:59:f2:89:85:00:d4:1c:7a:81:b8:f7:bb:db:35:2e:
         8f:6a:9f:89:c1:14:d4:f6:f2:33:3e:59:bc:7f:98:b2:d6:a2:
         b8:e7:c0:23:80:9e:89:c4:b6:df:a9:d2:c7:78:10:08:45:7c:
         fd:1c:bf:c7:43:a0:c5:3d:dd:36:6c:92:26:c0:cd:31:63:2c:
         ad:b1:17:d3:44:a2:8b:52:e9:67:bf:3d:93:e6:66:dc:5d:c3:
         37:52:b3:2f:72:7d:18:8d:de:46:16:37:5b:72:e4:ee:fd:59:
         a2:9d:5f:83:e5:57:56:59:6c:5f:3f:5b:6f:47:cf:ef:9d:fe:
         21:fe:38:08:39:59:04:0b:6a:b0:ec:5b:f4:32:7a:e6:f3:b3:
         02:54:7f:48:67:39:48:a5:a1:e5:fc:6f:7b:02:94:73:04:6e:
         e0:2a:bd:9e:56:c7:c1:f6:e3:bd:9f:f8:98:93:15:8d:aa:c4:
         e4:f0:50:c0:ca:d1:c9:a4:d3:2d:49:7f:06:6f:f1:ab:fa:a3:
         4f:26:ab:26
-----BEGIN CERTIFICATE-----
MIIDWTCCAkGgAwIBAgIQYFO0jzwncfvzh8Bbx0cyqTANBgkqhkiG9w0BAQsFADAV
MRMwEQYDVQQDDAp0ZWFtMjctbmV0MB4XDTIyMDgwOTAwMTE0N1oXDTI1MDcyNDAw
MTE0N1owGDEWMBQGA1UEAwwNdGVhbTI3LWNsaWVudDCCASIwDQYJKoZIhvcNAQEB
BQADggEPADCCAQoCggEBANDtgmmDCDP5jdFGG3wNw/IYHSrvx9KBx8hfc0ZvH4GA
4c/a0zkahxLjPL8h8TbwtJhAlIzqoglIaJdp/abJIknXDZPDBVjayQOCysIBqj9/
szagT9r00OuPYOmHTXbWxMah6jNyvcp/iu/gWPFZ2Lx8fHyGuHkj9l95gOKyjywW
G212MBcszJdts8kAfNFXjpmEr/gcbfoBOjoPp4moYVdSXAdO03y4r7F7IMyZiHEH
4yestrTY5TMbfzqGN/JJZeUA2D7ue0fbyt0aIWzX/tWXeN/dbysh/RaLQ2AtsvX0
iqbBr1TQ+XxsBcEpL4fAKVG8OEJkNsw088FbQSV9VkkCAwEAAaOBoTCBnjAJBgNV
HRMEAjAAMB0GA1UdDgQWBBQgR3cYwg2nQc2/TmMMpd+EyJDzTTBQBgNVHSMESTBH
gBQQbUj5HeG5O209QPP1/5kWtN6/PqEZpBcwFTETMBEGA1UEAwwKdGVhbTI3LW5l
dIIUNS9vSPTKyEALVuBOBT1HPCGtFVEwEwYDVR0lBAwwCgYIKwYBBQUHAwIwCwYD
VR0PBAQDAgeAMA0GCSqGSIb3DQEBCwUAA4IBAQAX3Ma2JhBEwTFbsEoatwNTXg+n
l4OJkprtY/1X6+u3j40yuNYWRXuU2mr72IomU8d2up9F8nl70lNZ8omFANQceoG4
97vbNS6Pap+JwRTU9vIzPlm8f5iy1qK458AjgJ6JxLbfqdLHeBAIRXz9HL/HQ6DF
Pd02bJImwM0xYyytsRfTRKKLUulnvz2T5mbcXcM3UrMvcn0Yjd5GFjdbcuTu/Vmi
nV+D5VdWWWxfP1tvR8/vnf4h/jgIOVkEC2qw7Fv0Mnrm87MCVH9IZzlIpaHl/G97
ApRzBG7gKr2eVsfB9uO9n/iYkxWNqsTk8FDAytHJpNMtSX8Gb/Gr+qNPJqsm
-----END CERTIFICATE-----
