Certificate:
    Data:
        Version: 3 (0x2)
        Serial Number:
            de:e8:dd:60:47:dc:d6:a7:c8:22:53:a5:91:c5:96:7c
        Signature Algorithm: sha256WithRSAEncryption
        Issuer: CN=team27-net
        Validity
            Not Before: Aug  9 00:11:48 2022 GMT
            Not After : Jul 24 00:11:48 2025 GMT
        Subject: CN=team27-server
        Subject Public Key Info:
            Public Key Algorithm: rsaEncryption
                RSA Public-Key: (2048 bit)
                Modulus:
                    00:a2:86:cb:a4:e9:c1:43:7d:24:8c:53:4c:52:31:
                    05:33:39:12:b4:22:77:34:53:75:c4:cd:7a:01:9f:
                    36:89:15:05:bd:34:29:f1:05:95:3f:16:02:04:d2:
                    b0:e2:22:40:f0:6e:a0:8a:36:15:c4:0c:f2:9c:55:
                    4e:55:1b:58:e6:bb:46:e0:5f:f2:5a:6a:de:05:5b:
                    94:66:72:0e:11:46:bf:4a:f6:a5:17:d2:c8:42:1c:
                    f3:1f:07:7d:d4:4f:fa:c6:25:4e:2a:be:2f:ec:77:
                    b5:ff:75:d2:fe:e0:7c:bf:72:fa:27:d0:fd:7f:03:
                    2d:2b:d5:90:5c:63:be:5c:4b:c7:9b:51:6c:ba:1c:
                    8b:dd:6e:f0:fb:00:d4:95:5d:73:51:69:62:37:d5:
                    5f:b4:f1:e3:e5:03:9e:7f:36:e6:ad:5d:5c:47:92:
                    87:b3:fe:79:59:ff:6b:3f:e7:d0:1e:4f:40:ca:24:
                    05:b8:aa:10:c3:e1:c6:4a:b7:df:51:18:49:b4:16:
                    63:82:4f:57:1e:0c:76:9b:7d:6d:78:64:9d:68:c8:
                    62:63:77:c5:cf:d9:3c:68:90:2b:9f:0a:a9:06:4d:
                    67:79:2f:10:7e:1b:63:9d:1e:a8:f2:a5:2e:ab:8e:
                    ea:1e:dc:06:71:02:e3:d0:85:4d:da:56:68:1f:89:
                    80:bd
                Exponent: 65537 (0x10001)
        X509v3 extensions:
            X509v3 Basic Constraints: 
                CA:FALSE
            X509v3 Subject Key Identifier: 
                4F:7D:F7:B2:D2:2A:08:C8:7D:D1:45:3C:38:D4:12:E5:01:49:18:07
            X509v3 Authority Key Identifier: 
                keyid:10:6D:48:F9:1D:E1:B9:3B:6D:3D:40:F3:F5:FF:99:16:B4:DE:BF:3E
                DirName:/CN=team27-net
                serial:35:2F:6F:48:F4:CA:C8:40:0B:56:E0:4E:05:3D:47:3C:21:AD:15:51

            X509v3 Extended Key Usage: 
                TLS Web Server Authentication
            X509v3 Key Usage: 
                Digital Signature, Key Encipherment
            X509v3 Subject Alternative Name: 
                DNS:team27-server
    Signature Algorithm: sha256WithRSAEncryption
         49:66:c0:44:60:9f:54:da:8d:dd:90:cd:98:3b:8a:40:ac:c8:
         6e:61:33:b1:e3:a6:d7:d2:42:e1:ed:5d:ed:eb:3d:cc:f9:87:
         89:b3:ef:0c:32:b4:0d:1f:18:71:03:ad:0e:9e:03:90:be:97:
         04:6d:a4:85:59:90:fa:06:c1:95:84:ce:ad:36:f4:83:29:53:
         3c:0a:92:70:9c:55:ae:5e:b9:98:09:d9:f8:a1:f1:fb:8c:12:
         ab:88:d8:46:c0:6d:0c:38:bd:73:28:ff:e0:0b:73:20:10:39:
         a9:e1:37:ac:79:fc:ad:bd:c6:12:d9:dd:f1:64:43:ca:87:63:
         a0:86:30:d5:b9:72:67:86:4b:51:f9:84:4f:2b:87:80:f9:5b:
         cb:13:7f:73:b1:47:5b:c4:e5:ad:0e:7d:ad:b6:bb:81:43:b9:
         a3:d5:56:1f:01:a9:47:09:ff:35:30:8f:0d:a8:c8:7c:6c:b2:
         18:e0:31:ec:70:fc:b4:fb:f0:2a:4a:d6:61:bd:49:f8:20:8d:
         2e:9f:f3:c5:ef:c8:a6:33:ec:1a:fb:2b:4b:3f:56:fe:bc:52:
         ad:ab:eb:15:1d:3a:86:fa:02:1d:7a:22:b3:a8:0b:3a:60:b2:
         68:24:9c:66:de:3d:89:19:f1:ec:42:58:8f:65:e9:cb:40:99:
         98:2d:fb:cf
-----BEGIN CERTIFICATE-----
MIIDdDCCAlygAwIBAgIRAN7o3WBH3NanyCJTpZHFlnwwDQYJKoZIhvcNAQELBQAw
FTETMBEGA1UEAwwKdGVhbTI3LW5ldDAeFw0yMjA4MDkwMDExNDhaFw0yNTA3MjQw
MDExNDhaMBgxFjAUBgNVBAMMDXRlYW0yNy1zZXJ2ZXIwggEiMA0GCSqGSIb3DQEB
AQUAA4IBDwAwggEKAoIBAQCihsuk6cFDfSSMU0xSMQUzORK0Inc0U3XEzXoBnzaJ
FQW9NCnxBZU/FgIE0rDiIkDwbqCKNhXEDPKcVU5VG1jmu0bgX/Jaat4FW5Rmcg4R
Rr9K9qUX0shCHPMfB33UT/rGJU4qvi/sd7X/ddL+4Hy/cvon0P1/Ay0r1ZBcY75c
S8ebUWy6HIvdbvD7ANSVXXNRaWI31V+08ePlA55/NuatXVxHkoez/nlZ/2s/59Ae
T0DKJAW4qhDD4cZKt99RGEm0FmOCT1ceDHabfW14ZJ1oyGJjd8XP2TxokCufCqkG
TWd5LxB+G2OdHqjypS6rjuoe3AZxAuPQhU3aVmgfiYC9AgMBAAGjgbswgbgwCQYD
VR0TBAIwADAdBgNVHQ4EFgQUT333stIqCMh90UU8ONQS5QFJGAcwUAYDVR0jBEkw
R4AUEG1I+R3huTttPUDz9f+ZFrTevz6hGaQXMBUxEzARBgNVBAMMCnRlYW0yNy1u
ZXSCFDUvb0j0yshAC1bgTgU9RzwhrRVRMBMGA1UdJQQMMAoGCCsGAQUFBwMBMAsG
A1UdDwQEAwIFoDAYBgNVHREEETAPgg10ZWFtMjctc2VydmVyMA0GCSqGSIb3DQEB
CwUAA4IBAQBJZsBEYJ9U2o3dkM2YO4pArMhuYTOx46bX0kLh7V3t6z3M+YeJs+8M
MrQNHxhxA60OngOQvpcEbaSFWZD6BsGVhM6tNvSDKVM8CpJwnFWuXrmYCdn4ofH7
jBKriNhGwG0MOL1zKP/gC3MgEDmp4TesefytvcYS2d3xZEPKh2OghjDVuXJnhktR
+YRPK4eA+VvLE39zsUdbxOWtDn2ttruBQ7mj1VYfAalHCf81MI8NqMh8bLIY4DHs
cPy0+/AqStZhvUn4II0un/PF78imM+wa+ytLP1b+vFKtq+sVHTqG+gIdeiKzqAs6
YLJoJJxm3j2JGfHsQliPZenLQJmYLfvP
-----END CERTIFICATE-----
