Certificate:
    Data:
        Version: 3 (0x2)
        Serial Number:
            19:e8:fb:6d:63:5a:76:ff:7e:2b:0d:af:3c:db:8e:7d
        Signature Algorithm: sha256WithRSAEncryption
        Issuer: CN=team28-net
        Validity
            Not Before: Aug  9 00:11:48 2022 GMT
            Not After : Jul 24 00:11:48 2025 GMT
        Subject: CN=team28-client
        Subject Public Key Info:
            Public Key Algorithm: rsaEncryption
                RSA Public-Key: (2048 bit)
                Modulus:
                    00:d4:99:7b:bc:d1:49:16:a4:20:4e:93:9e:e7:c5:
                    2d:b7:23:a3:52:cc:b0:5b:b1:17:20:88:0c:28:68:
                    92:67:52:e5:d8:4c:ae:36:63:b8:26:af:96:e9:6b:
                    0a:c8:9a:98:c4:8a:33:5a:15:18:6b:16:61:55:7e:
                    3c:b6:71:04:34:eb:cd:d9:4d:c9:26:a9:bd:a5:a7:
                    c7:a1:d6:2e:6b:d8:e5:a5:c0:da:07:f2:2d:ba:bc:
                    7e:80:e5:4a:53:05:2e:ba:d8:ee:47:e1:0f:fd:d6:
                    a6:3f:ac:e6:f2:c6:9d:70:11:f0:d4:8b:82:6a:c5:
                    51:18:b0:da:54:22:f1:35:1a:3f:d6:b5:b2:96:a1:
                    f7:87:b0:21:df:cc:a3:dd:16:b2:45:94:6f:4f:d0:
                    2b:2f:bc:41:6a:41:3e:77:2c:d0:aa:47:93:56:69:
                    37:6e:da:ab:37:a6:1b:34:e4:c2:78:9b:88:78:24:
                    9c:31:5c:71:0f:3d:0c:a8:fa:a9:09:c5:e3:21:54:
                    32:79:c7:91:0a:1d:9f:fd:d9:ac:82:79:05:17:ab:
                    14:6c:66:6d:40:5e:55:ae:5e:08:db:6a:77:6d:16:
                    24:1a:40:78:39:c9:56:1f:e1:a0:95:fe:78:90:0f:
                    dc:30:69:2c:51:21:fd:56:5d:22:4e:2d:62:c1:77:
                    3a:cd
                Exponent: 65537 (0x10001)
        X509v3 extensions:
            X509v3 Basic Constraints: 
                CA:FALSE
            X509v3 Subject Key Identifier: 
                1F:D5:D7:75:B4:D3:34:ED:5D:4F:68:18:AE:0C:10:5E:B2:3C:A0:4A
            X509v3 Authority Key Identifier: 
                keyid:59:03:03:0F:E5:B3:DA:F3:78:B7:CA:CA:AB:A1:AA:AD:73:F4:21:8A
                DirName:/CN=team28-net
                serial:25:B0:9D:AC:B1:4E:44:83:CD:42:C9:D1:65:BF:CC:DF:4A:63:CC:AE

            X509v3 Extended Key Usage: 
                TLS Web Client Authentication
            X509v3 Key Usage: 
                Digital Signature
    Signature Algorithm: sha256WithRSAEncryption
         7e:cb:d8:e8:74:f0:4c:c4:32:f1:d9:b5:f1:b2:c2:32:f2:07:
         8f:5a:94:54:66:78:73:b6:19:76:62:f8:70:55:92:24:45:b4:
         e1:57:9a:5f:86:fc:c2:df:ba:00:f7:5e:d0:bc:66:4f:49:68:
         22:71:d0:a7:10:b2:29:d7:9d:0d:b6:75:aa:45:75:a3:72:57:
         21:64:4f:0d:d1:1a:3d:ba:df:30:f9:50:59:18:fb:24:a7:ef:
         91:bf:73:c0:71:47:35:b8:bb:ac:ad:37:e9:e8:38:d3:3f:09:
         9f:dd:41:c3:7f:52:8f:5d:d7:98:69:f0:64:cd:e8:5c:56:b9:
         f0:6e:91:d2:e0:47:54:37:0f:5a:84:8c:b6:58:ca:69:2d:b7:
         0b:84:fb:71:02:77:28:36:d9:c1:7a:24:6a:86:ad:4d:a7:32:
         a9:ab:41:53:02:1e:f6:5c:0e:c7:55:fe:e5:f8:59:e8:8e:fa:
         ed:c0:61:f9:60:67:2d:2b:0e:a3:5f:9a:eb:0a:04:70:9d:7e:
         6c:d4:d6:20:a5:66:10:d2:66:65:d7:04:87:e2:a4:a0:ab:e6:
         9e:9f:cc:b3:21:3b:ab:a0:de:55:8c:20:54:ef:6d:50:13:1d:
         68:7d:50:04:a7:5b:98:d7:5d:e3:d3:3d:ca:11:ae:89:cd:3f:
         de:88:77:ba
-----BEGIN CERTIFICATE-----
MIIDWTCCAkGgAwIBAgIQGej7bWNadv9+Kw2vPNuOfTANBgkqhkiG9w0BAQsFADAV
MRMwEQYDVQQDDAp0ZWFtMjgtbmV0MB4XDTIyMDgwOTAwMTE0OFoXDTI1MDcyNDAw
MTE0OFowGDEWMBQGA1UEAwwNdGVhbTI4LWNsaWVudDCCASIwDQYJKoZIhvcNAQEB
BQADggEPADCCAQoCggEBANSZe7zRSRakIE6TnufFLbcjo1LMsFuxFyCIDChokmdS
5dhMrjZjuCavlulrCsiamMSKM1oVGGsWYVV+PLZxBDTrzdlNySapvaWnx6HWLmvY
5aXA2gfyLbq8foDlSlMFLrrY7kfhD/3Wpj+s5vLGnXAR8NSLgmrFURiw2lQi8TUa
P9a1spah94ewId/Mo90WskWUb0/QKy+8QWpBPncs0KpHk1ZpN27aqzemGzTkwnib
iHgknDFccQ89DKj6qQnF4yFUMnnHkQodn/3ZrIJ5BRerFGxmbUBeVa5eCNtqd20W
JBpAeDnJVh/hoJX+eJAP3DBpLFEh/VZdIk4tYsF3Os0CAwEAAaOBoTCBnjAJBgNV
HRMEAjAAMB0GA1UdDgQWBBQf1dd1tNM07V1PaBiuDBBesjygSjBQBgNVHSMESTBH
gBRZAwMP5bPa83i3ysqroaqtc/QhiqEZpBcwFTETMBEGA1UEAwwKdGVhbTI4LW5l
dIIUJbCdrLFORIPNQsnRZb/M30pjzK4wEwYDVR0lBAwwCgYIKwYBBQUHAwIwCwYD
VR0PBAQDAgeAMA0GCSqGSIb3DQEBCwUAA4IBAQB+y9jodPBMxDLx2bXxssIy8geP
WpRUZnhzthl2YvhwVZIkRbThV5pfhvzC37oA917QvGZPSWgicdCnELIp150NtnWq
RXWjclchZE8N0Ro9ut8w+VBZGPskp++Rv3PAcUc1uLusrTfp6DjTPwmf3UHDf1KP
XdeYafBkzehcVrnwbpHS4EdUNw9ahIy2WMppLbcLhPtxAncoNtnBeiRqhq1NpzKp
q0FTAh72XA7HVf7l+FnojvrtwGH5YGctKw6jX5rrCgRwnX5s1NYgpWYQ0mZl1wSH
4qSgq+aen8yzITuroN5VjCBU721QEx1ofVAEp1uY113j0z3KEa6JzT/eiHe6
-----END CERTIFICATE-----
