Certificate:
    Data:
        Version: 3 (0x2)
        Serial Number:
            3e:0d:eb:bd:9e:d4:b5:65:ed:db:74:13:34:fe:1c
        Signature Algorithm: sha256WithRSAEncryption
        Issuer: CN=team28-net
        Validity
            Not Before: Aug  9 18:52:46 2022 GMT
            Not After : Jul 24 18:52:46 2025 GMT
        Subject: CN=team28-server
        Subject Public Key Info:
            Public Key Algorithm: rsaEncryption
                RSA Public-Key: (2048 bit)
                Modulus:
                    00:be:d1:41:8c:da:5e:57:0b:73:59:09:00:22:7b:
                    33:e0:fa:f6:79:aa:a6:f5:c2:13:b2:22:92:df:1b:
                    b4:78:64:41:fb:8f:bb:2e:4d:50:7f:b5:2d:a0:91:
                    d4:ed:d8:84:c2:b7:85:62:ca:d2:b8:33:47:89:33:
                    db:87:1b:7e:9d:d3:2f:94:e8:ba:e3:70:b6:c4:de:
                    66:33:1b:3d:31:a6:1e:5c:34:fa:04:b2:49:f3:7a:
                    ba:a0:9d:5a:d2:3f:2a:2d:0d:5c:90:dc:c6:09:e4:
                    bd:8e:d0:c6:bc:ec:86:7b:3a:68:e4:80:2f:52:5d:
                    6e:4a:ff:63:77:87:15:0c:f6:e0:e2:a8:6b:11:f1:
                    53:6c:71:99:26:66:54:39:56:53:59:f7:21:60:32:
                    31:13:f2:6f:ff:15:45:26:76:2b:88:8c:22:f0:de:
                    e4:89:1f:5a:5a:d9:2a:1a:50:ae:f4:bb:f2:83:34:
                    2b:cb:a4:7d:05:ee:50:4d:46:3a:4a:c8:c4:f3:3a:
                    e0:f6:61:72:43:01:db:7d:c7:5f:57:6c:3e:fb:f6:
                    48:b2:fb:80:33:86:21:34:a6:d0:69:d0:c1:cf:45:
                    03:7d:eb:78:8e:51:b6:6a:4f:00:7f:2f:bc:72:9a:
                    00:02:09:94:63:82:5f:0d:d6:cf:25:72:c9:97:1b:
                    e8:7b
                Exponent: 65537 (0x10001)
        X509v3 extensions:
            X509v3 Basic Constraints: 
                CA:FALSE
            X509v3 Subject Key Identifier: 
                37:89:B2:87:3F:4D:FF:3E:BD:B4:7C:6E:2E:A9:5E:E6:16:7B:C3:2A
            X509v3 Authority Key Identifier: 
                keyid:9D:E5:2A:BF:91:6A:89:FF:6D:D0:B7:2A:76:A0:BC:A1:17:99:65:89
                DirName:/CN=team28-net
                serial:6F:ED:C7:76:1D:0D:05:8A:BC:F2:BD:3D:81:D8:32:E3:E8:04:15:37

            X509v3 Extended Key Usage: 
                TLS Web Server Authentication
            X509v3 Key Usage: 
                Digital Signature, Key Encipherment
            X509v3 Subject Alternative Name: 
                DNS:team28-server
    Signature Algorithm: sha256WithRSAEncryption
         e3:26:3c:b5:f6:47:ea:39:2a:7a:8f:c0:c3:f3:c1:8c:b2:d5:
         ed:aa:2a:b1:7a:b1:14:09:df:ab:f4:9a:ee:79:f9:52:81:6d:
         9a:f9:8d:c1:36:8e:cd:46:0a:fa:81:23:47:fd:a8:ee:b8:30:
         fd:65:48:db:e9:fa:87:f1:48:ca:50:62:9c:5e:f8:4c:48:ec:
         69:32:83:19:f9:9a:20:57:87:83:4d:9a:d9:c7:72:5a:5d:88:
         f7:9c:72:ad:2d:68:eb:dc:f0:0f:ab:ce:3d:09:30:a2:0a:93:
         c0:e4:ef:65:53:e4:52:d4:15:71:67:e1:58:d8:cb:d6:fa:e6:
         1a:9d:72:dc:94:2f:94:57:1b:40:66:30:e1:bd:7b:0d:c6:f9:
         e2:53:4c:70:73:2f:7a:e9:3c:90:b3:15:42:07:b8:c0:b2:d5:
         56:2a:e6:05:d5:fa:25:f2:eb:8d:19:1b:3a:01:63:cb:85:cd:
         b9:dc:c3:e6:bd:a2:7b:f1:b1:6d:09:84:66:e6:37:32:94:3a:
         bd:3d:be:63:84:8c:2e:1d:41:b1:8f:1e:95:22:21:aa:9e:6b:
         c9:46:8a:03:4d:67:d0:d5:2e:5a:50:e1:1f:a8:1e:0b:5f:25:
         d7:68:a8:ec:4a:41:12:86:de:24:6e:38:c5:49:ce:cf:59:83:
         fb:c6:c2:09
-----BEGIN CERTIFICATE-----
MIIDcjCCAlqgAwIBAgIPPg3rvZ7UtWXt23QTNP4cMA0GCSqGSIb3DQEBCwUAMBUx
EzARBgNVBAMMCnRlYW0yOC1uZXQwHhcNMjIwODA5MTg1MjQ2WhcNMjUwNzI0MTg1
MjQ2WjAYMRYwFAYDVQQDDA10ZWFtMjgtc2VydmVyMIIBIjANBgkqhkiG9w0BAQEF
AAOCAQ8AMIIBCgKCAQEAvtFBjNpeVwtzWQkAInsz4Pr2eaqm9cITsiKS3xu0eGRB
+4+7Lk1Qf7UtoJHU7diEwreFYsrSuDNHiTPbhxt+ndMvlOi643C2xN5mMxs9MaYe
XDT6BLJJ83q6oJ1a0j8qLQ1ckNzGCeS9jtDGvOyGezpo5IAvUl1uSv9jd4cVDPbg
4qhrEfFTbHGZJmZUOVZTWfchYDIxE/Jv/xVFJnYriIwi8N7kiR9aWtkqGlCu9Lvy
gzQry6R9Be5QTUY6SsjE8zrg9mFyQwHbfcdfV2w++/ZIsvuAM4YhNKbQadDBz0UD
fet4jlG2ak8Afy+8cpoAAgmUY4JfDdbPJXLJlxvoewIDAQABo4G7MIG4MAkGA1Ud
EwQCMAAwHQYDVR0OBBYEFDeJsoc/Tf8+vbR8bi6pXuYWe8MqMFAGA1UdIwRJMEeA
FJ3lKr+Raon/bdC3KnagvKEXmWWJoRmkFzAVMRMwEQYDVQQDDAp0ZWFtMjgtbmV0
ghRv7cd2HQ0FirzyvT2B2DLj6AQVNzATBgNVHSUEDDAKBggrBgEFBQcDATALBgNV
HQ8EBAMCBaAwGAYDVR0RBBEwD4INdGVhbTI4LXNlcnZlcjANBgkqhkiG9w0BAQsF
AAOCAQEA4yY8tfZH6jkqeo/Aw/PBjLLV7aoqsXqxFAnfq/Sa7nn5UoFtmvmNwTaO
zUYK+oEjR/2o7rgw/WVI2+n6h/FIylBinF74TEjsaTKDGfmaIFeHg02a2cdyWl2I
95xyrS1o69zwD6vOPQkwogqTwOTvZVPkUtQVcWfhWNjL1vrmGp1y3JQvlFcbQGYw
4b17Dcb54lNMcHMveuk8kLMVQge4wLLVVirmBdX6JfLrjRkbOgFjy4XNudzD5r2i
e/GxbQmEZuY3MpQ6vT2+Y4SMLh1BsY8elSIhqp5ryUaKA01n0NUuWlDhH6geC18l
12io7EpBEobeJG44xUnOz1mD+8bCCQ==
-----END CERTIFICATE-----
