Certificate:
    Data:
        Version: 3 (0x2)
        Serial Number:
            de:e6:d7:08:42:6e:4f:3c:9b:69:56:0b:e8:4b:29:cd
        Signature Algorithm: sha256WithRSAEncryption
        Issuer: CN=team23-net
        Validity
            Not Before: Aug  9 18:52:43 2022 GMT
            Not After : Jul 24 18:52:43 2025 GMT
        Subject: CN=team23-client
        Subject Public Key Info:
            Public Key Algorithm: rsaEncryption
                RSA Public-Key: (2048 bit)
                Modulus:
                    00:c1:10:b2:78:22:85:44:85:4c:58:25:70:fb:b7:
                    19:ea:62:02:88:99:8b:9b:51:8a:be:c8:c4:7f:fe:
                    4a:18:24:9f:1b:d6:80:7a:7f:c8:6f:f1:66:d4:3b:
                    b7:f6:3a:15:78:82:df:bc:4f:2a:5f:bf:c9:b3:b2:
                    00:de:f8:2f:3b:35:13:de:13:9d:8f:fa:b3:06:ad:
                    66:fa:02:29:5d:21:b2:ec:ec:b1:af:eb:c2:c0:3a:
                    31:52:54:06:0a:8e:4e:25:ae:d1:83:25:a7:c3:3e:
                    a4:75:e3:3b:30:3d:82:3a:54:7b:a2:18:db:63:ca:
                    93:d2:6c:b2:96:6f:9a:27:9c:82:fd:13:c7:c9:a1:
                    66:98:b1:1d:35:3b:07:97:31:d2:e8:9e:6c:0f:7d:
                    3a:86:0a:58:77:b1:4f:5e:e6:d0:51:6c:27:02:46:
                    06:56:77:b5:00:0e:15:c8:e0:02:d6:2e:e6:8d:0d:
                    d6:11:6c:e4:86:16:aa:91:d6:66:e7:3e:67:ca:aa:
                    4e:e8:80:52:cf:29:c5:3f:fc:55:55:0a:af:91:75:
                    89:33:59:c6:f6:2e:7f:f5:39:4a:fd:0c:25:ee:53:
                    50:66:25:84:90:27:09:53:94:3e:0c:ed:f9:ef:e5:
                    0e:b7:91:01:5b:31:0e:1e:fa:e6:d5:f0:e2:82:c7:
                    05:d9
                Exponent: 65537 (0x10001)
        X509v3 extensions:
            X509v3 Basic Constraints: 
                CA:FALSE
            X509v3 Subject Key Identifier: 
                87:78:09:70:74:8F:51:34:74:51:69:BF:83:8C:40:68:F2:01:DC:E7
            X509v3 Authority Key Identifier: 
                keyid:43:63:86:83:04:AD:AC:B0:BA:25:76:27:AA:BA:AC:91:E3:2D:DB:07
                DirName:/CN=team23-net
                serial:3A:BA:23:C9:FC:07:DA:F7:3A:9E:5F:77:2A:B1:D5:29:E4:50:2A:1C

            X509v3 Extended Key Usage: 
                TLS Web Client Authentication
            X509v3 Key Usage: 
                Digital Signature
    Signature Algorithm: sha256WithRSAEncryption
         c0:c6:b8:15:ab:81:a4:5d:3a:8d:cf:36:75:33:66:32:b8:b7:
         29:28:14:59:54:23:5a:10:1f:56:15:a2:89:74:d2:fe:64:52:
         b0:3e:e3:a7:dc:db:bc:90:1d:3f:f2:92:73:df:25:0f:fe:e4:
         b5:10:69:79:89:9c:ef:6a:8f:a6:48:b8:95:7b:10:0a:cd:4f:
         74:17:27:99:dd:5b:40:0e:a1:96:b2:06:3c:44:47:ff:4d:62:
         08:1a:2c:58:b6:08:26:d3:f0:33:fd:8b:74:43:9d:2f:78:b9:
         0f:65:6c:33:83:e4:cb:bd:5e:5f:20:bc:50:ea:ba:3c:23:19:
         2c:77:eb:f3:97:9c:ee:1b:33:ee:7d:5f:d5:ee:ca:f8:7d:37:
         70:c3:48:46:cb:07:21:1d:d4:e7:eb:11:dd:e6:6c:bc:cc:ae:
         5b:35:f5:41:9f:10:b7:90:5c:08:76:eb:8d:0e:89:74:a1:66:
         2b:a0:e8:b9:ed:89:73:09:e7:ec:44:37:ce:4e:dd:ad:ac:e2:
         af:6b:ae:7d:ae:56:cd:80:1a:ea:d0:4a:af:c8:f2:08:3c:30:
         f6:8a:28:a7:65:dd:2a:fb:35:07:08:b3:e0:f6:9f:f8:3a:f2:
         4c:6b:fa:14:14:c4:d7:b0:9e:4c:08:7b:4b:09:70:30:99:c6:
         31:b8:67:91
-----BEGIN CERTIFICATE-----
MIIDWjCCAkKgAwIBAgIRAN7m1whCbk88m2lWC+hLKc0wDQYJKoZIhvcNAQELBQAw
FTETMBEGA1UEAwwKdGVhbTIzLW5ldDAeFw0yMjA4MDkxODUyNDNaFw0yNTA3MjQx
ODUyNDNaMBgxFjAUBgNVBAMMDXRlYW0yMy1jbGllbnQwggEiMA0GCSqGSIb3DQEB
AQUAA4IBDwAwggEKAoIBAQDBELJ4IoVEhUxYJXD7txnqYgKImYubUYq+yMR//koY
JJ8b1oB6f8hv8WbUO7f2OhV4gt+8Typfv8mzsgDe+C87NRPeE52P+rMGrWb6Aild
IbLs7LGv68LAOjFSVAYKjk4lrtGDJafDPqR14zswPYI6VHuiGNtjypPSbLKWb5on
nIL9E8fJoWaYsR01OweXMdLonmwPfTqGClh3sU9e5tBRbCcCRgZWd7UADhXI4ALW
LuaNDdYRbOSGFqqR1mbnPmfKqk7ogFLPKcU//FVVCq+RdYkzWcb2Ln/1OUr9DCXu
U1BmJYSQJwlTlD4M7fnv5Q63kQFbMQ4e+ubV8OKCxwXZAgMBAAGjgaEwgZ4wCQYD
VR0TBAIwADAdBgNVHQ4EFgQUh3gJcHSPUTR0UWm/g4xAaPIB3OcwUAYDVR0jBEkw
R4AUQ2OGgwStrLC6JXYnqrqskeMt2wehGaQXMBUxEzARBgNVBAMMCnRlYW0yMy1u
ZXSCFDq6I8n8B9r3Op5fdyqx1SnkUCocMBMGA1UdJQQMMAoGCCsGAQUFBwMCMAsG
A1UdDwQEAwIHgDANBgkqhkiG9w0BAQsFAAOCAQEAwMa4FauBpF06jc82dTNmMri3
KSgUWVQjWhAfVhWiiXTS/mRSsD7jp9zbvJAdP/KSc98lD/7ktRBpeYmc72qPpki4
lXsQCs1PdBcnmd1bQA6hlrIGPERH/01iCBosWLYIJtPwM/2LdEOdL3i5D2VsM4Pk
y71eXyC8UOq6PCMZLHfr85ec7hsz7n1f1e7K+H03cMNIRssHIR3U5+sR3eZsvMyu
WzX1QZ8Qt5BcCHbrjQ6JdKFmK6Doue2Jcwnn7EQ3zk7drazir2uufa5WzYAa6tBK
r8jyCDww9ooop2XdKvs1Bwiz4Paf+DryTGv6FBTE17CeTAh7SwlwMJnGMbhnkQ==
-----END CERTIFICATE-----
