Certificate:
    Data:
        Version: 3 (0x2)
        Serial Number:
            c0:cc:0e:4f:fe:04:8c:6c:a0:f4:ee:ac:c8:34:ab:3f
        Signature Algorithm: sha256WithRSAEncryption
        Issuer: CN=team25-net
        Validity
            Not Before: Aug  9 18:52:44 2022 GMT
            Not After : Jul 24 18:52:44 2025 GMT
        Subject: CN=team25-client
        Subject Public Key Info:
            Public Key Algorithm: rsaEncryption
                RSA Public-Key: (2048 bit)
                Modulus:
                    00:b9:2b:27:23:bc:09:04:25:aa:0c:5b:83:3c:55:
                    a3:0a:d0:da:9e:82:bb:96:24:30:6c:84:14:40:b8:
                    94:a0:cb:3b:b1:bc:5c:67:ee:8c:02:16:ba:a6:46:
                    b9:77:7f:5a:ef:5f:d4:5f:7b:ca:ee:70:57:08:e6:
                    c7:40:eb:62:1d:8e:60:e7:0b:57:a5:a4:9e:65:b8:
                    6b:46:07:27:cf:d9:c7:e7:b5:81:89:b6:43:58:63:
                    f1:b2:8b:40:bb:f5:8c:0a:c4:9f:00:a0:b5:ab:b2:
                    fb:b3:56:ff:b7:aa:02:0d:7c:9b:f8:2b:9e:51:86:
                    2c:7a:0b:52:c7:8e:95:39:3c:c5:f8:7a:34:5b:7e:
                    ba:65:70:9c:64:91:ab:94:8c:ff:3f:6a:dd:c8:eb:
                    80:1b:be:20:ef:b8:b0:f4:f3:eb:55:29:0e:21:8f:
                    02:0c:e2:c0:e4:c8:31:84:86:1e:1c:dc:e6:c4:11:
                    ea:be:6c:d8:02:ac:08:98:b0:9b:7a:f3:ce:e7:38:
                    22:f1:a7:c6:1d:4f:16:87:95:61:39:64:fd:79:06:
                    67:db:1b:8f:e9:a4:b5:a2:f1:84:d2:ad:ba:f3:1f:
                    54:78:8e:ee:88:d7:37:88:7f:ec:a9:65:fc:e0:f8:
                    40:65:6a:08:5b:f5:f0:0f:bf:50:fd:c4:20:a9:fa:
                    10:e1
                Exponent: 65537 (0x10001)
        X509v3 extensions:
            X509v3 Basic Constraints: 
                CA:FALSE
            X509v3 Subject Key Identifier: 
                38:E8:3C:AA:A1:90:B2:E6:A6:75:97:0D:29:B4:12:DA:EF:7A:A9:5C
            X509v3 Authority Key Identifier: 
                keyid:FB:6B:E7:7F:89:2B:AC:73:1E:67:F3:D0:8F:62:AF:C7:15:97:6E:7A
                DirName:/CN=team25-net
                serial:70:31:7F:B9:B3:7E:D1:64:A2:E3:21:57:3D:94:24:E2:23:2F:81:C9

            X509v3 Extended Key Usage: 
                TLS Web Client Authentication
            X509v3 Key Usage: 
                Digital Signature
    Signature Algorithm: sha256WithRSAEncryption
         bd:2f:3f:fa:62:73:ce:e8:9e:40:25:cf:6a:64:68:a6:30:39:
         55:15:0c:12:ce:98:33:c4:6a:f4:16:5f:e5:a7:25:3b:6a:9a:
         2c:3b:72:e8:c8:1b:e9:d8:06:a8:84:3f:c5:cd:da:41:a9:6b:
         0b:56:19:f7:13:e9:10:76:70:07:6b:bd:36:cc:dd:ab:10:50:
         f9:7b:16:35:47:e0:89:0a:51:09:d6:22:e1:78:6c:99:d9:11:
         25:fc:49:50:d5:c9:d7:aa:a6:67:51:97:b7:ad:67:86:74:d9:
         14:08:8e:a0:22:de:60:38:45:21:4b:91:ec:1d:6b:6e:9e:f4:
         08:c8:2e:3c:8a:21:94:c6:2e:fa:e6:96:a8:84:3e:0b:4f:49:
         7e:73:81:7e:1d:37:60:40:79:ba:ac:4a:58:cb:5a:bc:ac:75:
         f3:62:9d:1f:8e:4a:f5:2f:b9:24:44:27:be:b9:94:38:ff:11:
         4e:16:ef:39:20:6e:6c:0b:62:00:d2:d0:56:66:35:a8:10:e2:
         7a:77:f4:ef:92:e3:b5:0b:5d:67:56:a8:44:6a:1c:ef:56:9b:
         3a:64:4e:5d:ab:b8:85:95:f3:dd:07:25:ce:d4:b4:68:1c:da:
         34:04:33:cf:b8:3e:e8:76:c1:2e:9b:21:4c:0f:65:3c:aa:4f:
         df:48:69:27
-----BEGIN CERTIFICATE-----
MIIDWjCCAkKgAwIBAgIRAMDMDk/+BIxsoPTurMg0qz8wDQYJKoZIhvcNAQELBQAw
FTETMBEGA1UEAwwKdGVhbTI1LW5ldDAeFw0yMjA4MDkxODUyNDRaFw0yNTA3MjQx
ODUyNDRaMBgxFjAUBgNVBAMMDXRlYW0yNS1jbGllbnQwggEiMA0GCSqGSIb3DQEB
AQUAA4IBDwAwggEKAoIBAQC5KycjvAkEJaoMW4M8VaMK0NqegruWJDBshBRAuJSg
yzuxvFxn7owCFrqmRrl3f1rvX9Rfe8rucFcI5sdA62IdjmDnC1elpJ5luGtGByfP
2cfntYGJtkNYY/Gyi0C79YwKxJ8AoLWrsvuzVv+3qgINfJv4K55Rhix6C1LHjpU5
PMX4ejRbfrplcJxkkauUjP8/at3I64AbviDvuLD08+tVKQ4hjwIM4sDkyDGEhh4c
3ObEEeq+bNgCrAiYsJt6887nOCLxp8YdTxaHlWE5ZP15BmfbG4/ppLWi8YTSrbrz
H1R4ju6I1zeIf+ypZfzg+EBlaghb9fAPv1D9xCCp+hDhAgMBAAGjgaEwgZ4wCQYD
VR0TBAIwADAdBgNVHQ4EFgQUOOg8qqGQsuamdZcNKbQS2u96qVwwUAYDVR0jBEkw
R4AU+2vnf4krrHMeZ/PQj2KvxxWXbnqhGaQXMBUxEzARBgNVBAMMCnRlYW0yNS1u
ZXSCFHAxf7mzftFkouMhVz2UJOIjL4HJMBMGA1UdJQQMMAoGCCsGAQUFBwMCMAsG
A1UdDwQEAwIHgDANBgkqhkiG9w0BAQsFAAOCAQEAvS8/+mJzzuieQCXPamRopjA5
VRUMEs6YM8Rq9BZf5aclO2qaLDty6Mgb6dgGqIQ/xc3aQalrC1YZ9xPpEHZwB2u9
NszdqxBQ+XsWNUfgiQpRCdYi4XhsmdkRJfxJUNXJ16qmZ1GXt61nhnTZFAiOoCLe
YDhFIUuR7B1rbp70CMguPIohlMYu+uaWqIQ+C09JfnOBfh03YEB5uqxKWMtavKx1
82KdH45K9S+5JEQnvrmUOP8RThbvOSBubAtiANLQVmY1qBDienf075LjtQtdZ1ao
RGoc71abOmROXau4hZXz3QclztS0aBzaNAQzz7g+6HbBLpshTA9lPKpP30hpJw==
-----END CERTIFICATE-----
