Certificate:
    Data:
        Version: 3 (0x2)
        Serial Number:
            39:d8:39:06:d8:95:be:43:2a:b3:f4:10:29:64:07:81
        Signature Algorithm: sha256WithRSAEncryption
        Issuer: CN=team10-net
        Validity
            Not Before: Aug  9 00:11:32 2022 GMT
            Not After : Jul 24 00:11:32 2025 GMT
        Subject: CN=team10-client
        Subject Public Key Info:
            Public Key Algorithm: rsaEncryption
                RSA Public-Key: (2048 bit)
                Modulus:
                    00:be:04:8d:a2:b0:38:d4:7d:8d:5f:06:f2:9a:e6:
                    66:cc:d1:3d:01:f9:05:03:de:36:2f:50:ff:37:64:
                    58:89:90:fc:6d:98:a3:3c:85:fc:08:98:f4:b9:bc:
                    de:cd:85:dd:31:bb:d8:02:ec:3a:d3:5a:c0:ac:99:
                    47:53:d4:bf:4a:f0:0f:64:4f:14:c6:fb:e3:d4:21:
                    4a:6d:37:04:2f:4a:e9:2d:ac:8b:88:b1:8c:bd:a7:
                    be:04:85:91:a7:a9:8b:40:70:5c:4a:a9:63:9c:1e:
                    55:11:5d:84:ca:70:a9:f3:a2:5e:86:c5:26:04:8f:
                    a6:ba:7e:78:45:45:6a:f3:ba:92:78:8f:3f:67:3f:
                    e8:27:48:1f:1f:cb:14:70:c0:fa:3d:cd:c0:6f:cd:
                    01:f0:84:39:05:2a:7a:25:e2:eb:06:3a:06:0f:82:
                    a3:d7:c6:14:56:60:b8:77:26:5d:9b:c4:8d:75:48:
                    9b:97:47:19:6d:15:4b:97:d4:04:e3:c5:1b:48:04:
                    1b:39:83:0c:6f:93:ea:c9:8f:87:66:c6:21:54:c9:
                    c7:91:74:0f:54:78:d9:69:e0:3c:d4:50:3b:dc:78:
                    ae:71:62:7a:27:09:e8:a9:19:3c:21:76:82:71:0d:
                    53:e2:03:66:93:34:89:33:f7:fa:c7:4a:df:46:9b:
                    7a:97
                Exponent: 65537 (0x10001)
        X509v3 extensions:
            X509v3 Basic Constraints: 
                CA:FALSE
            X509v3 Subject Key Identifier: 
                0D:85:18:CD:F1:16:3D:84:99:FB:5A:89:80:EF:44:2C:89:BC:70:8E
            X509v3 Authority Key Identifier: 
                keyid:71:24:28:0C:8F:F2:22:02:CE:7A:45:59:57:4A:C4:D8:5B:FB:A4:E2
                DirName:/CN=team10-net
                serial:66:20:69:5E:DD:BC:0E:DF:C0:32:4A:4C:14:63:34:5A:58:78:CB:38

            X509v3 Extended Key Usage: 
                TLS Web Client Authentication
            X509v3 Key Usage: 
                Digital Signature
    Signature Algorithm: sha256WithRSAEncryption
         a0:b5:f1:97:6f:35:0a:d0:ae:c4:fd:3f:cb:28:24:9d:fc:dc:
         9f:db:66:99:c2:ee:db:42:16:39:8c:fd:d3:c1:aa:76:1d:4d:
         ba:b3:47:a9:97:9c:7a:6d:c9:3f:62:79:d5:a8:2d:c3:70:5a:
         99:10:d8:21:ea:09:13:71:2b:f1:80:fd:b5:df:12:87:28:db:
         81:cd:e2:ec:96:cd:43:fd:bc:c1:27:a3:76:db:88:7a:d5:5f:
         eb:70:a2:f0:11:ae:92:83:04:f3:84:3a:4b:0a:06:5d:78:c3:
         36:2d:b0:eb:0b:d7:40:61:ca:92:84:5f:be:bc:07:e3:ed:4d:
         87:8a:04:40:bb:8a:13:45:c4:6e:ee:30:e7:f5:3f:83:f4:65:
         72:d9:d6:4d:e4:4b:42:bc:cf:1f:fa:19:fb:f5:22:b3:41:f4:
         4b:3b:a4:59:c2:f1:6f:f0:20:6c:44:5c:c0:41:b7:62:92:4c:
         bc:8a:a8:69:9e:1b:b5:3c:e9:eb:20:22:39:7e:d9:cf:03:a2:
         6c:c6:07:00:3b:ce:e9:1e:12:ad:d7:1c:3b:eb:17:61:32:d2:
         46:18:74:85:b8:36:ba:54:7e:de:14:c6:30:22:4f:6c:94:01:
         5e:ca:57:d3:30:df:90:fa:56:f4:ed:f4:93:40:2f:ad:e3:ee:
         97:f4:f7:57
-----BEGIN CERTIFICATE-----
MIIDWTCCAkGgAwIBAgIQOdg5BtiVvkMqs/QQKWQHgTANBgkqhkiG9w0BAQsFADAV
MRMwEQYDVQQDDAp0ZWFtMTAtbmV0MB4XDTIyMDgwOTAwMTEzMloXDTI1MDcyNDAw
MTEzMlowGDEWMBQGA1UEAwwNdGVhbTEwLWNsaWVudDCCASIwDQYJKoZIhvcNAQEB
BQADggEPADCCAQoCggEBAL4EjaKwONR9jV8G8prmZszRPQH5BQPeNi9Q/zdkWImQ
/G2YozyF/AiY9Lm83s2F3TG72ALsOtNawKyZR1PUv0rwD2RPFMb749QhSm03BC9K
6S2si4ixjL2nvgSFkaepi0BwXEqpY5weVRFdhMpwqfOiXobFJgSPprp+eEVFavO6
kniPP2c/6CdIHx/LFHDA+j3NwG/NAfCEOQUqeiXi6wY6Bg+Co9fGFFZguHcmXZvE
jXVIm5dHGW0VS5fUBOPFG0gEGzmDDG+T6smPh2bGIVTJx5F0D1R42WngPNRQO9x4
rnFieicJ6KkZPCF2gnENU+IDZpM0iTP3+sdK30abepcCAwEAAaOBoTCBnjAJBgNV
HRMEAjAAMB0GA1UdDgQWBBQNhRjN8RY9hJn7WomA70QsibxwjjBQBgNVHSMESTBH
gBRxJCgMj/IiAs56RVlXSsTYW/uk4qEZpBcwFTETMBEGA1UEAwwKdGVhbTEwLW5l
dIIUZiBpXt28Dt/AMkpMFGM0Wlh4yzgwEwYDVR0lBAwwCgYIKwYBBQUHAwIwCwYD
VR0PBAQDAgeAMA0GCSqGSIb3DQEBCwUAA4IBAQCgtfGXbzUK0K7E/T/LKCSd/Nyf
22aZwu7bQhY5jP3Twap2HU26s0epl5x6bck/YnnVqC3DcFqZENgh6gkTcSvxgP21
3xKHKNuBzeLsls1D/bzBJ6N224h61V/rcKLwEa6SgwTzhDpLCgZdeMM2LbDrC9dA
YcqShF++vAfj7U2HigRAu4oTRcRu7jDn9T+D9GVy2dZN5EtCvM8f+hn79SKzQfRL
O6RZwvFv8CBsRFzAQbdikky8iqhpnhu1POnrICI5ftnPA6JsxgcAO87pHhKt1xw7
6xdhMtJGGHSFuDa6VH7eFMYwIk9slAFeylfTMN+Q+lb07fSTQC+t4+6X9PdX
-----END CERTIFICATE-----
