Certificate:
    Data:
        Version: 3 (0x2)
        Serial Number:
            72:22:39:5e:7f:93:d4:45:51:5e:65:7f:8d:1a:5a:fc
        Signature Algorithm: sha256WithRSAEncryption
        Issuer: CN=team10-net
        Validity
            Not Before: Aug  9 00:11:32 2022 GMT
            Not After : Jul 24 00:11:32 2025 GMT
        Subject: CN=team10-server
        Subject Public Key Info:
            Public Key Algorithm: rsaEncryption
                RSA Public-Key: (2048 bit)
                Modulus:
                    00:bb:61:2e:52:e2:a4:17:8c:92:4c:8e:d3:c1:1c:
                    ad:48:f7:2c:61:d0:ef:27:e7:5e:c6:a0:ae:1c:1e:
                    69:0f:f8:5e:19:b7:34:3a:c6:35:2e:98:a3:24:5d:
                    06:0e:6d:77:5e:90:97:e4:89:67:10:b5:e1:59:c6:
                    ae:87:fd:fa:8a:59:ce:fb:bd:c0:58:50:21:21:fc:
                    b4:37:b8:8d:64:48:d7:f4:f2:74:62:2e:c3:8f:ca:
                    a1:da:41:45:f5:9e:9a:54:ac:ff:e1:d9:99:6d:9a:
                    51:54:3f:b1:47:71:d6:81:22:1c:95:e7:e6:70:44:
                    f1:f4:9b:f1:b4:44:e7:b8:53:aa:bf:3e:7f:78:5c:
                    dc:0d:d1:31:22:4d:e8:10:11:f6:e3:2b:24:8f:be:
                    f6:a0:0c:f6:37:63:a1:12:fe:4e:26:6d:55:af:84:
                    13:82:2d:c7:d6:b8:95:48:75:89:37:51:f4:0b:d4:
                    4a:a0:a2:b1:a1:01:72:f5:af:47:bf:35:83:2f:4f:
                    ba:9e:f7:90:4e:8f:00:39:77:88:d8:65:ba:e8:b2:
                    72:d5:0e:69:28:a4:30:1a:b7:35:19:d7:df:55:61:
                    90:1a:dc:49:48:1c:42:95:cd:7d:26:40:a3:da:a8:
                    0c:70:92:fd:bc:cd:ae:11:1c:be:6f:7e:40:56:c5:
                    2d:41
                Exponent: 65537 (0x10001)
        X509v3 extensions:
            X509v3 Basic Constraints: 
                CA:FALSE
            X509v3 Subject Key Identifier: 
                26:32:AF:B6:48:A7:C8:F4:47:1A:E3:DF:74:8A:41:E9:64:67:AB:80
            X509v3 Authority Key Identifier: 
                keyid:71:24:28:0C:8F:F2:22:02:CE:7A:45:59:57:4A:C4:D8:5B:FB:A4:E2
                DirName:/CN=team10-net
                serial:66:20:69:5E:DD:BC:0E:DF:C0:32:4A:4C:14:63:34:5A:58:78:CB:38

            X509v3 Extended Key Usage: 
                TLS Web Server Authentication
            X509v3 Key Usage: 
                Digital Signature, Key Encipherment
            X509v3 Subject Alternative Name: 
                DNS:team10-server
    Signature Algorithm: sha256WithRSAEncryption
         6d:27:9e:db:81:61:74:e3:40:cc:e7:70:e5:5c:07:31:75:4e:
         8c:17:27:e1:14:09:e0:7b:47:47:84:5f:22:56:fe:57:97:ba:
         ce:60:cc:a3:2a:17:36:4b:63:ab:b3:61:b8:3c:28:79:0d:de:
         43:a3:0b:e4:df:fe:3b:85:b9:e1:2a:9b:47:a9:8e:05:44:1c:
         12:62:d5:1a:de:f7:a9:c7:29:42:87:e4:b2:79:26:3c:60:d8:
         39:19:50:7b:22:87:2b:4b:80:f0:a5:a8:d4:60:68:6f:bc:74:
         ff:af:c3:d4:97:fd:ea:09:34:27:98:de:11:93:9f:18:78:12:
         24:46:99:40:28:8f:5e:4f:1f:5e:ab:ea:0a:7e:2e:4d:2a:4e:
         e8:ae:23:b6:83:b8:e7:d1:f2:bf:c9:c0:c7:cb:c3:81:9f:d6:
         3c:fc:f8:d0:98:0b:16:ba:f3:27:58:b2:12:72:aa:b2:26:69:
         1a:a3:a8:b3:a4:62:44:d6:31:57:0e:9a:11:6b:97:8a:89:84:
         83:f8:01:2c:5e:49:d2:14:7c:cf:30:3a:cf:98:a8:ab:19:80:
         a8:ad:c5:71:34:12:4f:51:36:07:3d:21:40:06:43:ca:e6:6a:
         bb:bb:0f:e4:97:53:54:e9:46:3c:86:ed:70:18:36:3f:bd:fb:
         fe:5c:15:c7
-----BEGIN CERTIFICATE-----
MIIDczCCAlugAwIBAgIQciI5Xn+T1EVRXmV/jRpa/DANBgkqhkiG9w0BAQsFADAV
MRMwEQYDVQQDDAp0ZWFtMTAtbmV0MB4XDTIyMDgwOTAwMTEzMloXDTI1MDcyNDAw
MTEzMlowGDEWMBQGA1UEAwwNdGVhbTEwLXNlcnZlcjCCASIwDQYJKoZIhvcNAQEB
BQADggEPADCCAQoCggEBALthLlLipBeMkkyO08EcrUj3LGHQ7yfnXsagrhweaQ/4
Xhm3NDrGNS6YoyRdBg5td16Ql+SJZxC14VnGrof9+opZzvu9wFhQISH8tDe4jWRI
1/TydGIuw4/KodpBRfWemlSs/+HZmW2aUVQ/sUdx1oEiHJXn5nBE8fSb8bRE57hT
qr8+f3hc3A3RMSJN6BAR9uMrJI++9qAM9jdjoRL+TiZtVa+EE4Itx9a4lUh1iTdR
9AvUSqCisaEBcvWvR781gy9Pup73kE6PADl3iNhluuiyctUOaSikMBq3NRnX31Vh
kBrcSUgcQpXNfSZAo9qoDHCS/bzNrhEcvm9+QFbFLUECAwEAAaOBuzCBuDAJBgNV
HRMEAjAAMB0GA1UdDgQWBBQmMq+2SKfI9Eca4990ikHpZGergDBQBgNVHSMESTBH
gBRxJCgMj/IiAs56RVlXSsTYW/uk4qEZpBcwFTETMBEGA1UEAwwKdGVhbTEwLW5l
dIIUZiBpXt28Dt/AMkpMFGM0Wlh4yzgwEwYDVR0lBAwwCgYIKwYBBQUHAwEwCwYD
VR0PBAQDAgWgMBgGA1UdEQQRMA+CDXRlYW0xMC1zZXJ2ZXIwDQYJKoZIhvcNAQEL
BQADggEBAG0nntuBYXTjQMzncOVcBzF1TowXJ+EUCeB7R0eEXyJW/leXus5gzKMq
FzZLY6uzYbg8KHkN3kOjC+Tf/juFueEqm0epjgVEHBJi1Rre96nHKUKH5LJ5Jjxg
2DkZUHsihytLgPClqNRgaG+8dP+vw9SX/eoJNCeY3hGTnxh4EiRGmUAoj15PH16r
6gp+Lk0qTuiuI7aDuOfR8r/JwMfLw4Gf1jz8+NCYCxa68ydYshJyqrImaRqjqLOk
YkTWMVcOmhFrl4qJhIP4ASxeSdIUfM8wOs+YqKsZgKitxXE0Ek9RNgc9IUAGQ8rm
aru7D+SXU1TpRjyG7XAYNj+9+/5cFcc=
-----END CERTIFICATE-----
