Certificate:
    Data:
        Version: 3 (0x2)
        Serial Number:
            d7:92:2d:12:f6:d7:3e:82:f1:9d:85:6f:7f:75:4f:49
        Signature Algorithm: sha256WithRSAEncryption
        Issuer: CN=team10-net
        Validity
            Not Before: Aug  9 18:52:33 2022 GMT
            Not After : Jul 24 18:52:33 2025 GMT
        Subject: CN=team10-client
        Subject Public Key Info:
            Public Key Algorithm: rsaEncryption
                RSA Public-Key: (2048 bit)
                Modulus:
                    00:c9:5c:fa:04:33:46:72:06:08:a6:72:95:2f:fc:
                    99:d5:46:59:78:4c:f6:23:59:db:39:36:74:37:ee:
                    4c:61:03:fa:10:86:c4:da:f9:69:51:30:5a:dc:89:
                    85:5c:83:7d:64:9e:1a:fb:fc:4a:09:bc:9b:bf:32:
                    5e:28:05:00:d1:c6:8b:e5:cf:7f:b8:a2:d9:06:f1:
                    ec:1c:2d:96:d0:4b:93:f2:66:fe:74:94:1b:88:d3:
                    8c:34:f3:75:23:0f:2e:ac:df:a9:96:f3:43:93:64:
                    0c:4b:91:7a:53:55:b6:a3:aa:6b:cf:15:f9:82:0b:
                    66:45:3d:19:df:47:97:ae:15:64:2b:57:35:4b:0f:
                    66:92:e7:dd:bc:23:05:96:a7:e2:ad:dc:dd:63:39:
                    82:0b:8a:be:ef:7f:a2:53:2b:ef:8f:fa:dc:d8:29:
                    6c:59:7d:07:d9:fa:81:6f:63:37:89:94:ff:58:be:
                    e5:04:2e:71:6e:0c:6f:1f:94:b3:4b:ed:e1:16:74:
                    14:e1:1f:69:66:46:11:ff:a2:b0:1b:33:37:69:cf:
                    b7:fd:e2:d7:2a:c6:5e:30:60:f3:f5:8a:f1:59:07:
                    72:84:31:e4:f9:26:7f:6e:34:9e:17:c6:4e:43:cf:
                    9e:32:7b:fa:c7:31:6e:25:89:3d:5d:cc:df:44:59:
                    9f:ff
                Exponent: 65537 (0x10001)
        X509v3 extensions:
            X509v3 Basic Constraints: 
                CA:FALSE
            X509v3 Subject Key Identifier: 
                C0:D5:07:96:1D:7B:5C:4C:72:7F:D7:D8:B5:31:92:BE:FC:81:D5:8D
            X509v3 Authority Key Identifier: 
                keyid:A3:39:A6:3E:72:71:9D:59:A8:AE:05:FF:10:ED:34:10:F1:29:55:97
                DirName:/CN=team10-net
                serial:68:FD:B1:30:14:11:C4:41:12:AA:C1:45:1A:00:B1:CE:FD:7A:3F:39

            X509v3 Extended Key Usage: 
                TLS Web Client Authentication
            X509v3 Key Usage: 
                Digital Signature
    Signature Algorithm: sha256WithRSAEncryption
         23:b3:d5:72:68:67:c4:72:98:43:e5:f7:32:dc:51:82:ff:df:
         11:22:7d:09:76:b8:48:dd:15:18:04:58:89:13:9b:cd:96:65:
         be:6a:31:ef:a3:b8:95:05:b2:7c:e8:b3:c2:7f:b6:40:0a:ee:
         29:9b:11:9c:b6:96:cc:a5:9e:79:ab:3f:e0:3f:c0:0d:67:28:
         4d:62:d4:12:37:24:29:5c:25:3e:13:e2:6f:ee:4a:97:df:a3:
         96:92:99:c7:73:d2:cb:61:98:eb:ff:ab:28:36:d0:e3:cc:5b:
         c5:12:f5:25:73:ad:41:ef:ad:5d:70:cc:02:6a:b0:3a:c0:d7:
         6e:1f:5b:00:fd:d0:6b:be:e0:18:76:ad:f2:a4:20:e7:e1:2b:
         13:d4:ae:5e:cc:8b:d5:c4:3a:2e:23:c9:71:93:fa:27:3a:00:
         ec:05:3c:d1:33:bd:f7:87:89:08:83:b5:c4:f4:83:9e:c3:6c:
         18:f0:e5:d5:d3:ca:15:79:3e:f8:2e:e2:10:47:83:6e:06:96:
         f6:33:5c:68:5f:f2:76:50:fa:da:e7:c4:55:91:3a:5f:f5:1e:
         be:34:64:c8:9f:18:70:f1:36:09:4b:fb:ee:d4:ba:07:5f:d8:
         8f:76:bf:9d:b7:78:c4:0f:25:36:84:a0:3c:72:4e:3a:22:22:
         59:e4:25:f3
-----BEGIN CERTIFICATE-----
MIIDWjCCAkKgAwIBAgIRANeSLRL21z6C8Z2Fb391T0kwDQYJKoZIhvcNAQELBQAw
FTETMBEGA1UEAwwKdGVhbTEwLW5ldDAeFw0yMjA4MDkxODUyMzNaFw0yNTA3MjQx
ODUyMzNaMBgxFjAUBgNVBAMMDXRlYW0xMC1jbGllbnQwggEiMA0GCSqGSIb3DQEB
AQUAA4IBDwAwggEKAoIBAQDJXPoEM0ZyBgimcpUv/JnVRll4TPYjWds5NnQ37kxh
A/oQhsTa+WlRMFrciYVcg31knhr7/EoJvJu/Ml4oBQDRxovlz3+4otkG8ewcLZbQ
S5PyZv50lBuI04w083UjDy6s36mW80OTZAxLkXpTVbajqmvPFfmCC2ZFPRnfR5eu
FWQrVzVLD2aS5928IwWWp+Kt3N1jOYILir7vf6JTK++P+tzYKWxZfQfZ+oFvYzeJ
lP9YvuUELnFuDG8flLNL7eEWdBThH2lmRhH/orAbMzdpz7f94tcqxl4wYPP1ivFZ
B3KEMeT5Jn9uNJ4Xxk5Dz54ye/rHMW4liT1dzN9EWZ//AgMBAAGjgaEwgZ4wCQYD
VR0TBAIwADAdBgNVHQ4EFgQUwNUHlh17XExyf9fYtTGSvvyB1Y0wUAYDVR0jBEkw
R4AUozmmPnJxnVmorgX/EO00EPEpVZehGaQXMBUxEzARBgNVBAMMCnRlYW0xMC1u
ZXSCFGj9sTAUEcRBEqrBRRoAsc79ej85MBMGA1UdJQQMMAoGCCsGAQUFBwMCMAsG
A1UdDwQEAwIHgDANBgkqhkiG9w0BAQsFAAOCAQEAI7PVcmhnxHKYQ+X3MtxRgv/f
ESJ9CXa4SN0VGARYiRObzZZlvmox76O4lQWyfOizwn+2QAruKZsRnLaWzKWeeas/
4D/ADWcoTWLUEjckKVwlPhPib+5Kl9+jlpKZx3PSy2GY6/+rKDbQ48xbxRL1JXOt
Qe+tXXDMAmqwOsDXbh9bAP3Qa77gGHat8qQg5+ErE9SuXsyL1cQ6LiPJcZP6JzoA
7AU80TO994eJCIO1xPSDnsNsGPDl1dPKFXk++C7iEEeDbgaW9jNcaF/ydlD62ufE
VZE6X/UevjRkyJ8YcPE2CUv77tS6B1/Yj3a/nbd4xA8lNoSgPHJOOiIiWeQl8w==
-----END CERTIFICATE-----
