Certificate:
    Data:
        Version: 3 (0x2)
        Serial Number:
            db:82:6a:fc:b5:3d:4a:9f:3a:00:d1:e0:43:1b:0b:73
        Signature Algorithm: sha256WithRSAEncryption
        Issuer: CN=team10-net
        Validity
            Not Before: Aug  9 18:52:33 2022 GMT
            Not After : Jul 24 18:52:33 2025 GMT
        Subject: CN=team10-server
        Subject Public Key Info:
            Public Key Algorithm: rsaEncryption
                RSA Public-Key: (2048 bit)
                Modulus:
                    00:ea:f8:fc:f0:bf:d8:6e:91:4e:ea:b6:12:89:5f:
                    f6:f9:50:ff:3f:df:dd:4d:df:e0:8c:3d:6e:01:12:
                    be:2d:3e:70:41:44:6d:97:84:d9:fa:1e:fc:8d:da:
                    12:76:15:80:f0:50:14:a3:e3:cd:27:f3:8d:9c:fd:
                    b3:59:ca:a6:d0:72:01:09:f0:81:af:98:37:a2:a8:
                    eb:20:bc:74:50:20:24:ab:73:3d:72:1e:50:2f:91:
                    98:e2:a2:5c:95:f2:78:0e:20:1f:6e:2f:89:c2:d6:
                    ec:8c:91:54:a7:0f:50:4d:bf:f9:59:ab:b2:a6:9f:
                    fc:16:12:64:13:78:63:08:6a:94:d2:89:08:f8:e9:
                    a5:86:1c:21:34:57:f7:8b:57:81:91:c3:c2:80:d4:
                    6f:6e:77:65:87:b1:c9:c8:4f:7e:a8:12:f9:7a:e5:
                    0f:7a:6e:1e:18:97:53:e0:27:fc:a5:1f:cb:1b:28:
                    84:04:3c:8b:31:72:67:a4:56:f5:53:97:e4:f6:9e:
                    d4:67:20:cd:04:4b:68:2b:d0:5c:33:4f:d6:35:25:
                    6a:28:8f:bd:d3:47:bf:88:84:1a:6e:27:e3:08:c4:
                    82:e6:ac:24:79:95:3d:b5:b9:7e:7b:e1:33:8b:18:
                    56:20:c8:6b:bf:15:8a:b6:c1:4c:01:c0:a5:02:1f:
                    64:df
                Exponent: 65537 (0x10001)
        X509v3 extensions:
            X509v3 Basic Constraints: 
                CA:FALSE
            X509v3 Subject Key Identifier: 
                63:E1:B7:24:76:D5:DB:AA:34:D3:13:34:21:44:69:BD:AE:07:48:96
            X509v3 Authority Key Identifier: 
                keyid:A3:39:A6:3E:72:71:9D:59:A8:AE:05:FF:10:ED:34:10:F1:29:55:97
                DirName:/CN=team10-net
                serial:68:FD:B1:30:14:11:C4:41:12:AA:C1:45:1A:00:B1:CE:FD:7A:3F:39

            X509v3 Extended Key Usage: 
                TLS Web Server Authentication
            X509v3 Key Usage: 
                Digital Signature, Key Encipherment
            X509v3 Subject Alternative Name: 
                DNS:team10-server
    Signature Algorithm: sha256WithRSAEncryption
         98:83:0e:db:7c:35:13:95:21:0b:a7:96:78:cb:e2:85:5d:83:
         4a:76:36:a4:d3:f7:75:a6:23:9f:1a:97:73:a3:92:d9:57:02:
         16:7c:a7:48:84:b3:f3:3c:c0:b1:4e:86:52:4b:76:ad:4f:23:
         e2:8a:92:bb:77:7b:70:44:0b:4c:6c:6a:96:49:35:8d:7d:b5:
         6b:39:f6:67:2b:e0:96:dc:ad:fc:5a:65:47:88:ef:03:d5:82:
         53:7e:1f:fe:d2:fc:95:5b:b9:38:db:c7:b5:6e:a4:14:15:87:
         73:0f:85:39:77:dc:d7:06:6e:5b:c5:9b:ad:d6:3d:0a:b2:64:
         ec:03:63:ed:23:82:ed:7c:7f:5f:10:59:09:9e:5a:54:96:29:
         13:2d:a3:4b:9e:fa:e8:12:9c:30:a6:06:5a:b5:d0:5f:c2:af:
         ce:ad:f9:1c:28:cd:98:42:00:25:90:70:39:35:68:a7:8f:b0:
         65:fc:9a:4e:eb:9b:85:b1:df:18:1d:fa:ff:1f:50:ef:d1:77:
         46:5d:4c:5c:94:5d:ce:38:ca:55:3d:4f:c3:32:6a:5c:70:68:
         64:4c:f0:85:d1:e2:38:eb:98:76:b6:f7:02:7b:5e:0f:c4:27:
         69:7c:0a:16:f2:a4:f9:e5:cd:6f:7b:72:c3:f4:1d:63:e7:1d:
         7b:bf:f0:e7
-----BEGIN CERTIFICATE-----
MIIDdDCCAlygAwIBAgIRANuCavy1PUqfOgDR4EMbC3MwDQYJKoZIhvcNAQELBQAw
FTETMBEGA1UEAwwKdGVhbTEwLW5ldDAeFw0yMjA4MDkxODUyMzNaFw0yNTA3MjQx
ODUyMzNaMBgxFjAUBgNVBAMMDXRlYW0xMC1zZXJ2ZXIwggEiMA0GCSqGSIb3DQEB
AQUAA4IBDwAwggEKAoIBAQDq+Pzwv9hukU7qthKJX/b5UP8/391N3+CMPW4BEr4t
PnBBRG2XhNn6HvyN2hJ2FYDwUBSj480n842c/bNZyqbQcgEJ8IGvmDeiqOsgvHRQ
ICSrcz1yHlAvkZjiolyV8ngOIB9uL4nC1uyMkVSnD1BNv/lZq7Kmn/wWEmQTeGMI
apTSiQj46aWGHCE0V/eLV4GRw8KA1G9ud2WHscnIT36oEvl65Q96bh4Yl1PgJ/yl
H8sbKIQEPIsxcmekVvVTl+T2ntRnIM0ES2gr0FwzT9Y1JWooj73TR7+IhBpuJ+MI
xILmrCR5lT21uX574TOLGFYgyGu/FYq2wUwBwKUCH2TfAgMBAAGjgbswgbgwCQYD
VR0TBAIwADAdBgNVHQ4EFgQUY+G3JHbV26o00xM0IURpva4HSJYwUAYDVR0jBEkw
R4AUozmmPnJxnVmorgX/EO00EPEpVZehGaQXMBUxEzARBgNVBAMMCnRlYW0xMC1u
ZXSCFGj9sTAUEcRBEqrBRRoAsc79ej85MBMGA1UdJQQMMAoGCCsGAQUFBwMBMAsG
A1UdDwQEAwIFoDAYBgNVHREEETAPgg10ZWFtMTAtc2VydmVyMA0GCSqGSIb3DQEB
CwUAA4IBAQCYgw7bfDUTlSELp5Z4y+KFXYNKdjak0/d1piOfGpdzo5LZVwIWfKdI
hLPzPMCxToZSS3atTyPiipK7d3twRAtMbGqWSTWNfbVrOfZnK+CW3K38WmVHiO8D
1YJTfh/+0vyVW7k428e1bqQUFYdzD4U5d9zXBm5bxZut1j0KsmTsA2PtI4LtfH9f
EFkJnlpUlikTLaNLnvroEpwwpgZatdBfwq/OrfkcKM2YQgAlkHA5NWinj7Bl/JpO
65uFsd8YHfr/H1Dv0XdGXUxclF3OOMpVPU/DMmpccGhkTPCF0eI465h2tvcCe14P
xCdpfAoW8qT55c1ve3LD9B1j5x17v/Dn
-----END CERTIFICATE-----
