Certificate:
    Data:
        Version: 3 (0x2)
        Serial Number:
            68:2f:68:20:21:43:be:83:4a:50:60:d1:cd:71:67:b6
        Signature Algorithm: sha256WithRSAEncryption
        Issuer: CN=team13-net
        Validity
            Not Before: Aug  9 00:11:35 2022 GMT
            Not After : Jul 24 00:11:35 2025 GMT
        Subject: CN=team13-client
        Subject Public Key Info:
            Public Key Algorithm: rsaEncryption
                RSA Public-Key: (2048 bit)
                Modulus:
                    00:e6:75:6e:71:e3:40:90:33:ca:e5:f4:b0:6b:71:
                    75:f5:8e:c5:f0:06:d5:91:68:db:b5:c4:65:a9:32:
                    3b:03:cc:8e:16:41:af:c4:70:32:3d:b0:1f:19:35:
                    a1:a0:64:86:3e:42:f7:71:35:9d:27:15:0d:ab:76:
                    a8:db:fa:aa:dd:b1:45:df:c4:75:17:8d:79:15:9f:
                    72:9d:c7:15:a0:29:d7:4e:cc:36:a9:5f:59:88:ad:
                    cd:95:d0:ad:ae:b1:e1:1f:d7:61:4e:1a:28:e5:80:
                    dc:f6:1a:ae:b8:3b:72:c5:63:70:94:4f:90:c3:9c:
                    9d:7b:f5:b8:57:db:f9:22:b4:17:1b:c5:15:4f:5e:
                    75:0d:79:56:f3:81:8d:e9:86:10:a7:25:f0:ca:7a:
                    59:8f:11:7c:05:ee:40:03:58:68:d2:47:59:9b:f8:
                    0b:c7:55:cf:34:b6:d8:59:cb:a7:c1:7d:b5:d8:92:
                    11:88:41:63:44:b9:17:4f:12:10:84:a2:2f:92:71:
                    5b:bc:2a:7e:6f:97:84:a3:b2:7b:c9:f3:72:b3:bb:
                    ee:03:c8:c8:79:43:3d:2a:68:98:5a:58:40:9e:af:
                    d1:f6:ef:a1:bc:6c:01:4a:16:6b:42:f5:d2:39:59:
                    13:62:30:a7:ff:36:23:77:cd:6f:1f:e3:9b:e6:64:
                    d1:8d
                Exponent: 65537 (0x10001)
        X509v3 extensions:
            X509v3 Basic Constraints: 
                CA:FALSE
            X509v3 Subject Key Identifier: 
                E8:74:DB:E4:55:B9:DE:CA:9F:54:FC:EE:A6:71:43:1E:13:5A:81:B8
            X509v3 Authority Key Identifier: 
                keyid:61:32:8A:2A:05:D2:9D:34:1C:8B:85:D8:C4:F3:65:A4:0C:95:05:33
                DirName:/CN=team13-net
                serial:7E:76:17:AB:81:1A:8F:3B:30:E5:B5:89:2A:0A:B6:78:33:9D:91:F9

            X509v3 Extended Key Usage: 
                TLS Web Client Authentication
            X509v3 Key Usage: 
                Digital Signature
    Signature Algorithm: sha256WithRSAEncryption
         85:b7:cb:3a:2d:11:42:3a:9f:f5:93:5b:5e:fc:cc:7e:c2:de:
         68:c5:cc:3b:90:6b:87:f3:60:a2:e3:db:2e:2c:95:f3:91:6f:
         37:a5:ad:35:fb:be:9e:4d:d0:5f:f7:24:d7:d8:7e:3e:74:83:
         66:4d:00:8d:45:0f:d3:d3:26:2c:be:bd:9a:7a:ff:40:3d:17:
         10:a5:e6:b4:55:b8:2e:67:3d:92:b6:60:b0:ed:be:1e:d3:dd:
         d9:4f:b7:87:20:a8:46:fc:e7:d5:e9:5c:08:6f:db:5a:50:cd:
         16:15:57:b0:00:18:77:c6:49:0d:0f:63:fb:5f:c0:8b:21:81:
         1e:75:37:e0:51:54:4a:e3:2a:ef:2c:73:00:49:ab:3f:92:a6:
         fd:04:db:f3:c4:e4:eb:d7:59:d8:fc:2e:d0:3b:49:dd:3a:b3:
         6c:29:d3:3b:a0:b4:15:16:5d:8f:82:e6:34:6e:26:48:7c:7c:
         b8:72:ad:f7:8a:db:16:79:08:22:97:62:68:70:5a:e4:22:cf:
         c3:44:5a:6c:79:5f:4c:d0:cc:2f:8c:e2:cf:91:25:48:79:4e:
         cd:36:62:73:ca:60:d8:08:b6:ba:18:62:db:63:d8:2a:29:7a:
         8a:2b:5e:34:00:23:f2:b0:84:aa:a4:6f:30:0b:26:3f:f5:55:
         45:1f:f8:88
-----BEGIN CERTIFICATE-----
MIIDWTCCAkGgAwIBAgIQaC9oICFDvoNKUGDRzXFntjANBgkqhkiG9w0BAQsFADAV
MRMwEQYDVQQDDAp0ZWFtMTMtbmV0MB4XDTIyMDgwOTAwMTEzNVoXDTI1MDcyNDAw
MTEzNVowGDEWMBQGA1UEAwwNdGVhbTEzLWNsaWVudDCCASIwDQYJKoZIhvcNAQEB
BQADggEPADCCAQoCggEBAOZ1bnHjQJAzyuX0sGtxdfWOxfAG1ZFo27XEZakyOwPM
jhZBr8RwMj2wHxk1oaBkhj5C93E1nScVDat2qNv6qt2xRd/EdReNeRWfcp3HFaAp
107MNqlfWYitzZXQra6x4R/XYU4aKOWA3PYarrg7csVjcJRPkMOcnXv1uFfb+SK0
FxvFFU9edQ15VvOBjemGEKcl8Mp6WY8RfAXuQANYaNJHWZv4C8dVzzS22FnLp8F9
tdiSEYhBY0S5F08SEISiL5JxW7wqfm+XhKOye8nzcrO77gPIyHlDPSpomFpYQJ6v
0fbvobxsAUoWa0L10jlZE2Iwp/82I3fNbx/jm+Zk0Y0CAwEAAaOBoTCBnjAJBgNV
HRMEAjAAMB0GA1UdDgQWBBTodNvkVbneyp9U/O6mcUMeE1qBuDBQBgNVHSMESTBH
gBRhMooqBdKdNByLhdjE82WkDJUFM6EZpBcwFTETMBEGA1UEAwwKdGVhbTEzLW5l
dIIUfnYXq4Eajzsw5bWJKgq2eDOdkfkwEwYDVR0lBAwwCgYIKwYBBQUHAwIwCwYD
VR0PBAQDAgeAMA0GCSqGSIb3DQEBCwUAA4IBAQCFt8s6LRFCOp/1k1te/Mx+wt5o
xcw7kGuH82Ci49suLJXzkW83pa01+76eTdBf9yTX2H4+dINmTQCNRQ/T0yYsvr2a
ev9APRcQpea0VbguZz2StmCw7b4e093ZT7eHIKhG/OfV6VwIb9taUM0WFVewABh3
xkkND2P7X8CLIYEedTfgUVRK4yrvLHMASas/kqb9BNvzxOTr11nY/C7QO0ndOrNs
KdM7oLQVFl2PguY0biZIfHy4cq33itsWeQgil2JocFrkIs/DRFpseV9M0MwvjOLP
kSVIeU7NNmJzymDYCLa6GGLbY9gqKXqKK140ACPysISqpG8wCyY/9VVFH/iI
-----END CERTIFICATE-----
