Certificate:
    Data:
        Version: 3 (0x2)
        Serial Number:
            a1:61:80:f4:db:f3:ab:30:a7:e8:b3:b7:bc:85:c3:d0
        Signature Algorithm: sha256WithRSAEncryption
        Issuer: CN=team13-net
        Validity
            Not Before: Aug  9 18:52:36 2022 GMT
            Not After : Jul 24 18:52:36 2025 GMT
        Subject: CN=team13-client
        Subject Public Key Info:
            Public Key Algorithm: rsaEncryption
                RSA Public-Key: (2048 bit)
                Modulus:
                    00:ac:78:ff:fe:92:29:9b:ce:cf:3e:87:ce:d5:eb:
                    d0:af:a5:27:d7:d1:79:ce:d2:bc:ab:33:53:8c:4f:
                    39:89:bc:42:51:f7:e1:2e:5e:70:96:a0:33:36:22:
                    01:7e:b0:f1:f4:b1:69:c4:3b:b0:b9:c8:a6:ef:99:
                    cf:90:8b:45:60:21:1f:47:5b:73:4c:5a:e2:9c:35:
                    5f:60:b8:8e:55:63:4c:5a:48:f6:a6:34:b9:f1:45:
                    f5:47:b1:7f:57:32:bb:aa:6e:73:92:5c:ef:5c:b4:
                    c2:1e:14:91:d5:7e:c5:54:50:17:ce:0f:74:5c:94:
                    f7:54:5a:0c:f1:da:16:79:2e:8f:51:b9:fe:ed:12:
                    61:fd:d5:5a:03:ba:cf:b3:1d:42:2a:9c:9e:14:af:
                    d4:2b:b8:72:1e:c8:e8:0a:6c:6f:de:17:62:55:f3:
                    0a:fa:0f:c0:36:f9:cd:5f:b6:33:24:f6:99:da:cb:
                    8a:0d:0f:04:e6:cd:7d:04:52:e4:f6:cc:a2:5a:4d:
                    93:a0:22:35:e3:ad:9e:52:e5:6b:bd:46:dd:0a:22:
                    2d:53:3c:d4:07:70:85:01:45:7d:ee:40:d8:79:1f:
                    2b:27:a4:92:dc:57:a8:61:7e:19:90:58:0f:85:5e:
                    66:78:fa:6c:5e:74:f4:2d:d8:b0:83:7a:3c:0d:9f:
                    c2:6b
                Exponent: 65537 (0x10001)
        X509v3 extensions:
            X509v3 Basic Constraints: 
                CA:FALSE
            X509v3 Subject Key Identifier: 
                D8:EF:E2:10:F4:BD:F3:B8:D6:75:E4:A8:63:2D:E6:CC:0D:30:9B:C4
            X509v3 Authority Key Identifier: 
                keyid:95:3C:1B:4E:75:4E:4A:FF:5B:B7:B5:BF:CE:6C:00:55:B2:11:A7:3D
                DirName:/CN=team13-net
                serial:12:45:C7:2F:6A:71:26:F9:9A:95:03:04:DD:44:27:09:B9:FE:50:33

            X509v3 Extended Key Usage: 
                TLS Web Client Authentication
            X509v3 Key Usage: 
                Digital Signature
    Signature Algorithm: sha256WithRSAEncryption
         af:58:37:40:12:65:71:1f:49:4d:99:3a:12:41:c0:f5:f8:91:
         3e:cd:37:c9:a4:8d:a0:74:61:a2:97:70:c6:74:8f:bd:a5:f4:
         21:18:61:38:3b:54:32:e2:8a:6e:c3:3e:9b:91:31:80:66:ca:
         1c:08:93:99:e6:af:cc:a4:d3:7f:82:3c:c1:e0:e1:1a:dc:41:
         59:8f:25:ae:58:42:f5:7d:c5:75:47:9c:0f:a5:19:24:fd:6d:
         cf:8d:1a:a0:ba:5a:27:b5:a7:94:2c:c0:8a:a3:a2:65:f2:ad:
         6a:3a:84:37:41:02:b5:30:72:58:f0:92:13:90:d5:8f:e3:bd:
         61:56:3b:ed:5c:07:9b:84:1a:16:7f:a6:b0:61:92:bc:a1:b5:
         44:0a:cc:12:48:a7:43:25:0e:46:1f:f0:f5:a4:67:22:a1:4a:
         0b:78:2b:cf:65:a5:fd:56:5b:66:06:9c:17:92:1c:f5:7f:94:
         f3:20:e8:98:e9:f7:04:af:2a:ba:27:70:ea:0d:b4:39:77:0d:
         94:7c:a0:51:d2:f8:8e:7a:b5:66:59:f0:44:5f:fd:0c:1a:90:
         8b:8b:3c:31:7e:db:b2:eb:ea:32:6e:4e:da:93:cb:90:86:3a:
         8f:fe:fc:a0:1a:42:fb:cf:17:d0:9f:99:55:4e:10:10:fa:0c:
         1f:43:e0:b1
-----BEGIN CERTIFICATE-----
MIIDWjCCAkKgAwIBAgIRAKFhgPTb86swp+izt7yFw9AwDQYJKoZIhvcNAQELBQAw
FTETMBEGA1UEAwwKdGVhbTEzLW5ldDAeFw0yMjA4MDkxODUyMzZaFw0yNTA3MjQx
ODUyMzZaMBgxFjAUBgNVBAMMDXRlYW0xMy1jbGllbnQwggEiMA0GCSqGSIb3DQEB
AQUAA4IBDwAwggEKAoIBAQCseP/+kimbzs8+h87V69CvpSfX0XnO0ryrM1OMTzmJ
vEJR9+EuXnCWoDM2IgF+sPH0sWnEO7C5yKbvmc+Qi0VgIR9HW3NMWuKcNV9guI5V
Y0xaSPamNLnxRfVHsX9XMruqbnOSXO9ctMIeFJHVfsVUUBfOD3RclPdUWgzx2hZ5
Lo9Ruf7tEmH91VoDus+zHUIqnJ4Ur9QruHIeyOgKbG/eF2JV8wr6D8A2+c1ftjMk
9pnay4oNDwTmzX0EUuT2zKJaTZOgIjXjrZ5S5Wu9Rt0KIi1TPNQHcIUBRX3uQNh5
HysnpJLcV6hhfhmQWA+FXmZ4+mxedPQt2LCDejwNn8JrAgMBAAGjgaEwgZ4wCQYD
VR0TBAIwADAdBgNVHQ4EFgQU2O/iEPS987jWdeSoYy3mzA0wm8QwUAYDVR0jBEkw
R4AUlTwbTnVOSv9bt7W/zmwAVbIRpz2hGaQXMBUxEzARBgNVBAMMCnRlYW0xMy1u
ZXSCFBJFxy9qcSb5mpUDBN1EJwm5/lAzMBMGA1UdJQQMMAoGCCsGAQUFBwMCMAsG
A1UdDwQEAwIHgDANBgkqhkiG9w0BAQsFAAOCAQEAr1g3QBJlcR9JTZk6EkHA9fiR
Ps03yaSNoHRhopdwxnSPvaX0IRhhODtUMuKKbsM+m5ExgGbKHAiTmeavzKTTf4I8
weDhGtxBWY8lrlhC9X3FdUecD6UZJP1tz40aoLpaJ7WnlCzAiqOiZfKtajqEN0EC
tTByWPCSE5DVj+O9YVY77VwHm4QaFn+msGGSvKG1RArMEkinQyUORh/w9aRnIqFK
C3grz2Wl/VZbZgacF5Ic9X+U8yDomOn3BK8quidw6g20OXcNlHygUdL4jnq1Zlnw
RF/9DBqQi4s8MX7bsuvqMm5O2pPLkIY6j/78oBpC+88X0J+ZVU4QEPoMH0PgsQ==
-----END CERTIFICATE-----
