Certificate:
    Data:
        Version: 3 (0x2)
        Serial Number:
            a2:af:97:51:e8:f3:7d:29:74:4d:cb:2d:c9:27:a2:b2
        Signature Algorithm: sha256WithRSAEncryption
        Issuer: CN=team5-net
        Validity
            Not Before: Aug  9 18:52:29 2022 GMT
            Not After : Jul 24 18:52:29 2025 GMT
        Subject: CN=team5-client
        Subject Public Key Info:
            Public Key Algorithm: rsaEncryption
                RSA Public-Key: (2048 bit)
                Modulus:
                    00:d7:f6:c2:96:fa:eb:d9:fc:ba:fe:b5:f5:fa:3e:
                    a6:72:9d:7a:1e:4d:d9:fc:df:27:0f:e2:d9:68:64:
                    cb:71:36:36:d7:a3:42:6e:de:13:cc:fd:23:7d:24:
                    b5:bd:96:9a:42:15:65:58:94:0c:68:61:db:58:f0:
                    ab:7a:d5:38:93:5b:76:79:2a:2e:9a:1f:20:05:47:
                    f5:12:b6:1e:d3:8f:9f:92:87:6e:e1:b8:d0:d3:ef:
                    f4:99:e4:e9:62:48:08:e0:68:c8:9d:b3:79:95:98:
                    2f:7e:b4:82:bc:8f:39:8b:a1:c5:6d:b2:6e:10:a1:
                    f6:d3:b2:47:93:94:69:29:21:98:fa:82:66:f2:34:
                    48:d3:a9:5d:2e:3d:ee:80:e6:27:a7:04:4c:45:5c:
                    17:be:4e:a1:b3:12:3a:c4:1a:9f:7f:c6:50:aa:96:
                    8f:a3:97:7c:0b:3e:ff:ef:71:41:2c:04:52:93:c0:
                    13:c3:58:4a:08:45:c5:4e:19:63:d5:0e:5f:c0:7c:
                    99:0c:c0:e0:30:52:75:a2:6c:44:57:5b:b5:57:df:
                    d1:e1:04:c9:e3:75:b3:54:13:10:c5:d7:62:ed:0a:
                    97:a1:ea:ee:80:01:2f:60:9c:fb:e6:77:ed:84:87:
                    4e:cd:81:10:8b:46:5e:ae:8d:1a:72:95:5b:57:ac:
                    a4:cb
                Exponent: 65537 (0x10001)
        X509v3 extensions:
            X509v3 Basic Constraints: 
                CA:FALSE
            X509v3 Subject Key Identifier: 
                43:B9:7B:DC:67:2A:CA:C4:4D:B4:41:92:E5:53:F3:52:F4:0D:56:D9
            X509v3 Authority Key Identifier: 
                keyid:98:06:BD:CB:B3:2B:4C:F7:45:2F:CD:BE:AC:06:A2:3C:03:B9:C4:BF
                DirName:/CN=team5-net
                serial:4C:86:6F:2D:CE:F2:07:58:3B:B7:37:66:63:5D:FA:A1:0D:E2:35:B3

            X509v3 Extended Key Usage: 
                TLS Web Client Authentication
            X509v3 Key Usage: 
                Digital Signature
    Signature Algorithm: sha256WithRSAEncryption
         49:a5:e9:6b:3f:f0:20:c9:51:25:41:52:50:75:58:e8:0a:e8:
         9a:8a:84:21:f5:72:fd:e6:39:b7:d2:a7:bb:7d:e7:c2:ef:af:
         a3:66:09:92:f5:38:d9:a6:69:00:03:61:23:f6:5a:70:42:1e:
         4c:ff:28:44:c8:32:9a:fa:e9:35:99:ef:c3:2d:e5:d1:01:ba:
         50:f4:c5:19:46:e8:1e:14:da:c6:d8:27:f8:48:4f:ea:ab:bd:
         0a:41:3f:cb:5a:24:43:4d:80:6c:7a:8b:35:fe:dc:7b:ac:6f:
         42:14:54:2b:9b:55:1c:cf:eb:e0:f4:02:05:5d:cd:c0:9d:e8:
         25:60:a0:09:fc:5e:23:38:68:dd:97:06:b2:4a:60:b4:ed:dd:
         2e:cc:d7:d5:2b:2a:d8:54:9f:13:0e:cd:4a:f3:a4:7a:11:1a:
         04:ff:c4:6b:56:c5:44:85:39:de:63:10:16:c6:a5:d5:0a:7a:
         48:f3:8c:15:a5:82:47:fe:02:7d:74:fe:d7:5a:53:47:23:81:
         63:43:4f:08:11:37:b8:d8:db:e0:3c:72:b4:12:00:1e:80:89:
         66:db:5b:f0:fb:db:5e:4f:47:86:8c:71:78:39:0e:6a:82:9d:
         ce:da:75:b2:83:ce:34:f2:05:c4:a2:40:ea:c9:7c:a2:22:38:
         d6:d6:d5:f6
-----BEGIN CERTIFICATE-----
MIIDVzCCAj+gAwIBAgIRAKKvl1Ho830pdE3LLcknorIwDQYJKoZIhvcNAQELBQAw
FDESMBAGA1UEAwwJdGVhbTUtbmV0MB4XDTIyMDgwOTE4NTIyOVoXDTI1MDcyNDE4
NTIyOVowFzEVMBMGA1UEAwwMdGVhbTUtY2xpZW50MIIBIjANBgkqhkiG9w0BAQEF
AAOCAQ8AMIIBCgKCAQEA1/bClvrr2fy6/rX1+j6mcp16Hk3Z/N8nD+LZaGTLcTY2
16NCbt4TzP0jfSS1vZaaQhVlWJQMaGHbWPCretU4k1t2eSoumh8gBUf1ErYe04+f
kodu4bjQ0+/0meTpYkgI4GjInbN5lZgvfrSCvI85i6HFbbJuEKH207JHk5RpKSGY
+oJm8jRI06ldLj3ugOYnpwRMRVwXvk6hsxI6xBqff8ZQqpaPo5d8Cz7/73FBLARS
k8ATw1hKCEXFThlj1Q5fwHyZDMDgMFJ1omxEV1u1V9/R4QTJ43WzVBMQxddi7QqX
oerugAEvYJz75nfthIdOzYEQi0Zero0acpVbV6ykywIDAQABo4GgMIGdMAkGA1Ud
EwQCMAAwHQYDVR0OBBYEFEO5e9xnKsrETbRBkuVT81L0DVbZME8GA1UdIwRIMEaA
FJgGvcuzK0z3RS/NvqwGojwDucS/oRikFjAUMRIwEAYDVQQDDAl0ZWFtNS1uZXSC
FEyGby3O8gdYO7c3ZmNd+qEN4jWzMBMGA1UdJQQMMAoGCCsGAQUFBwMCMAsGA1Ud
DwQEAwIHgDANBgkqhkiG9w0BAQsFAAOCAQEASaXpaz/wIMlRJUFSUHVY6AromoqE
IfVy/eY5t9Knu33nwu+vo2YJkvU42aZpAANhI/ZacEIeTP8oRMgymvrpNZnvwy3l
0QG6UPTFGUboHhTaxtgn+EhP6qu9CkE/y1okQ02AbHqLNf7ce6xvQhRUK5tVHM/r
4PQCBV3NwJ3oJWCgCfxeIzho3ZcGskpgtO3dLszX1Ssq2FSfEw7NSvOkehEaBP/E
a1bFRIU53mMQFsal1Qp6SPOMFaWCR/4CfXT+11pTRyOBY0NPCBE3uNjb4DxytBIA
HoCJZttb8PvbXk9HhoxxeDkOaoKdztp1soPONPIFxKJA6sl8oiI41tbV9g==
-----END CERTIFICATE-----
