Certificate:
    Data:
        Version: 3 (0x2)
        Serial Number:
            3f:20:78:ca:0d:73:b9:36:18:49:e2:fb:62:f6:52:65
        Signature Algorithm: sha256WithRSAEncryption
        Issuer: CN=team5-net
        Validity
            Not Before: Aug  4 12:27:48 2022 GMT
            Not After : Jul 19 12:27:48 2025 GMT
        Subject: CN=team5-server
        Subject Public Key Info:
            Public Key Algorithm: rsaEncryption
                RSA Public-Key: (2048 bit)
                Modulus:
                    00:cb:88:09:e8:6f:1b:5d:b7:71:ee:ba:1c:1f:44:
                    52:99:3b:f0:61:0d:5d:e2:8c:e8:55:9c:78:6f:96:
                    73:1f:e6:bf:a6:d5:67:10:17:1c:54:b1:15:f2:bb:
                    6b:c0:d4:0d:84:c3:05:ee:dc:7c:1a:8b:63:b7:e8:
                    ec:e9:79:2a:a0:ba:e9:67:70:81:7a:06:8f:00:37:
                    71:fa:b1:11:d2:0d:22:74:3e:08:69:64:4e:34:d3:
                    cf:22:5a:78:be:3b:79:66:9b:74:7e:9e:80:90:c6:
                    d0:35:55:be:a2:ab:90:1b:e1:4a:d0:4b:ed:71:8f:
                    d3:2d:60:67:ac:70:49:ac:82:a6:2a:c2:2d:16:8d:
                    d2:df:a8:2d:ee:7a:83:d4:72:03:38:ff:fe:34:83:
                    78:14:fe:88:1a:28:a1:83:50:43:f2:e2:07:03:36:
                    44:a9:d5:3a:27:ef:b8:8f:f1:37:d6:9c:24:7f:7a:
                    c4:f3:f0:39:8b:71:3a:f9:db:07:41:99:d8:f9:90:
                    9e:5e:5c:07:0c:3f:5e:42:91:af:c2:a1:1c:50:3e:
                    33:68:8c:a3:7a:9d:84:16:f2:9b:4e:bf:42:f6:2e:
                    54:9c:25:f2:0f:ca:11:21:77:2b:0e:98:fd:fa:d7:
                    ba:85:f4:d4:57:ca:3d:74:af:53:ef:40:7c:f4:90:
                    8d:db
                Exponent: 65537 (0x10001)
        X509v3 extensions:
            X509v3 Basic Constraints: 
                CA:FALSE
            X509v3 Subject Key Identifier: 
                67:B1:2C:08:C7:3D:D7:13:AE:00:E8:AD:1F:84:B1:4F:03:4C:4F:88
            X509v3 Authority Key Identifier: 
                keyid:BE:AF:52:F9:DF:FC:AA:2B:56:78:01:3E:D5:E7:B2:BA:1D:E7:1A:BE
                DirName:/CN=team5-net
                serial:0C:66:16:96:4B:32:76:83:74:EF:0E:AB:8F:AB:36:D6:52:41:01:4E

            X509v3 Extended Key Usage: 
                TLS Web Server Authentication
            X509v3 Key Usage: 
                Digital Signature, Key Encipherment
            X509v3 Subject Alternative Name: 
                DNS:team5-server
    Signature Algorithm: sha256WithRSAEncryption
         4f:14:cb:ee:3c:f3:fc:cc:ab:03:fa:95:a3:f2:da:c0:7d:87:
         eb:01:1d:8e:e6:e0:df:74:26:12:63:f1:9b:9d:a9:fa:0a:6e:
         31:6c:72:4c:0e:bb:a6:ca:e8:cb:10:0e:b9:73:ea:26:b5:26:
         26:1d:89:01:16:dd:5b:6b:44:38:4c:9f:1c:d4:b2:63:b0:52:
         da:48:8d:95:1c:07:bc:58:ca:32:40:22:37:08:af:6c:b9:48:
         3d:e0:16:be:ea:f1:b0:ce:9e:f4:0c:22:ed:65:a8:7d:17:14:
         96:a4:e3:c8:c2:3e:3d:ea:8e:bc:e8:d1:7f:96:7e:a1:bc:ac:
         67:3d:d2:d8:bb:ff:27:0e:f6:17:32:0e:a2:7b:b4:5f:56:27:
         b9:45:a4:9e:8e:ed:90:c7:07:8a:2a:a6:f0:e1:26:7c:f5:69:
         ae:88:f4:fd:54:49:9e:ce:55:18:cb:df:68:54:92:96:73:89:
         7d:0d:48:10:0c:3c:d8:23:23:7b:d5:6d:45:6c:ff:0d:4b:83:
         2e:d3:cf:30:fe:d2:7d:1c:0b:57:0d:ef:c9:92:8d:65:82:76:
         26:ea:59:a6:bb:b7:d5:90:21:b7:ed:1a:dc:97:39:fc:7a:42:
         5c:37:71:d0:83:84:93:50:bd:b4:03:66:64:7d:33:39:db:a2:
         ed:93:fa:a2
-----BEGIN CERTIFICATE-----
MIIDbzCCAlegAwIBAgIQPyB4yg1zuTYYSeL7YvZSZTANBgkqhkiG9w0BAQsFADAU
MRIwEAYDVQQDDAl0ZWFtNS1uZXQwHhcNMjIwODA0MTIyNzQ4WhcNMjUwNzE5MTIy
NzQ4WjAXMRUwEwYDVQQDDAx0ZWFtNS1zZXJ2ZXIwggEiMA0GCSqGSIb3DQEBAQUA
A4IBDwAwggEKAoIBAQDLiAnobxtdt3HuuhwfRFKZO/BhDV3ijOhVnHhvlnMf5r+m
1WcQFxxUsRXyu2vA1A2EwwXu3Hwai2O36OzpeSqguulncIF6Bo8AN3H6sRHSDSJ0
PghpZE40088iWni+O3lmm3R+noCQxtA1Vb6iq5Ab4UrQS+1xj9MtYGescEmsgqYq
wi0WjdLfqC3ueoPUcgM4//40g3gU/ogaKKGDUEPy4gcDNkSp1Ton77iP8TfWnCR/
esTz8DmLcTr52wdBmdj5kJ5eXAcMP15Cka/CoRxQPjNojKN6nYQW8ptOv0L2LlSc
JfIPyhEhdysOmP3617qF9NRXyj10r1PvQHz0kI3bAgMBAAGjgbkwgbYwCQYDVR0T
BAIwADAdBgNVHQ4EFgQUZ7EsCMc91xOuAOitH4SxTwNMT4gwTwYDVR0jBEgwRoAU
vq9S+d/8qitWeAE+1eeyuh3nGr6hGKQWMBQxEjAQBgNVBAMMCXRlYW01LW5ldIIU
DGYWlksydoN07w6rj6s21lJBAU4wEwYDVR0lBAwwCgYIKwYBBQUHAwEwCwYDVR0P
BAQDAgWgMBcGA1UdEQQQMA6CDHRlYW01LXNlcnZlcjANBgkqhkiG9w0BAQsFAAOC
AQEATxTL7jzz/MyrA/qVo/LawH2H6wEdjubg33QmEmPxm52p+gpuMWxyTA67psro
yxAOuXPqJrUmJh2JARbdW2tEOEyfHNSyY7BS2kiNlRwHvFjKMkAiNwivbLlIPeAW
vurxsM6e9Awi7WWofRcUlqTjyMI+PeqOvOjRf5Z+obysZz3S2Lv/Jw72FzIOonu0
X1YnuUWkno7tkMcHiiqm8OEmfPVproj0/VRJns5VGMvfaFSSlnOJfQ1IEAw82CMj
e9VtRWz/DUuDLtPPMP7SfRwLVw3vyZKNZYJ2JupZpru31ZAht+0a3Jc5/HpCXDdx
0IOEk1C9tANmZH0zOdui7ZP6og==
-----END CERTIFICATE-----
