Certificate:
    Data:
        Version: 3 (0x2)
        Serial Number:
            42:13:53:89:f6:30:13:b8:d0:d5:63:66:b5:33:b9:70
        Signature Algorithm: sha256WithRSAEncryption
        Issuer: CN=team5-net
        Validity
            Not Before: Aug  9 00:11:29 2022 GMT
            Not After : Jul 24 00:11:29 2025 GMT
        Subject: CN=team5-client
        Subject Public Key Info:
            Public Key Algorithm: rsaEncryption
                RSA Public-Key: (2048 bit)
                Modulus:
                    00:df:36:d0:3c:06:c3:ef:77:16:9e:8d:09:ed:57:
                    ee:03:d6:90:cb:c8:3f:75:7d:ea:2f:5c:39:8f:b7:
                    05:2b:e3:da:ea:fd:99:c2:84:d8:f6:0b:02:e8:b9:
                    a3:28:74:a2:5a:7a:b9:93:b8:16:9f:49:de:c7:2f:
                    83:6a:cf:47:e0:64:1e:14:63:9b:e9:6e:5a:71:41:
                    fd:8b:3c:2e:af:86:49:d4:f1:37:50:2c:3a:7f:5f:
                    de:02:9a:c1:95:1f:6b:10:5d:ac:63:3a:46:c1:98:
                    3d:a8:d2:e9:03:b1:ad:b5:05:4e:f1:17:2f:7a:f1:
                    f9:cc:3f:97:d6:cd:2a:ef:40:fd:f1:b0:f3:65:da:
                    d7:8d:cc:7a:30:d2:ca:cc:3a:5e:0b:88:99:6a:f7:
                    db:7a:15:b8:21:c9:25:d9:e3:4d:c1:84:70:68:96:
                    e0:71:1d:9b:57:27:ad:91:58:29:40:b4:7f:94:22:
                    b4:c1:2d:6a:46:07:0c:dd:fc:e2:f5:6f:ef:3f:aa:
                    ee:37:33:54:cb:30:91:6c:d9:ba:1c:4b:3d:8a:03:
                    d0:5e:d3:5a:7b:4f:76:5f:4a:f1:df:26:17:4b:77:
                    60:21:41:b6:ff:db:46:bf:75:a8:37:16:d4:80:f4:
                    d4:b4:5d:1b:7a:f5:f2:08:b4:c3:c3:d8:96:4a:64:
                    22:77
                Exponent: 65537 (0x10001)
        X509v3 extensions:
            X509v3 Basic Constraints: 
                CA:FALSE
            X509v3 Subject Key Identifier: 
                84:0B:89:45:B8:E0:F6:13:74:95:E7:D9:D9:4E:95:DD:3F:29:32:B0
            X509v3 Authority Key Identifier: 
                keyid:42:09:22:48:AC:22:3B:1F:1B:CE:32:B6:8A:B2:79:21:B1:2F:17:60
                DirName:/CN=team5-net
                serial:7A:40:D9:C9:F0:87:59:53:6D:01:CC:5F:8B:6F:08:52:8D:1B:B7:AE

            X509v3 Extended Key Usage: 
                TLS Web Client Authentication
            X509v3 Key Usage: 
                Digital Signature
    Signature Algorithm: sha256WithRSAEncryption
         46:fd:c1:0b:e3:e7:0a:f2:36:89:eb:fa:ac:b9:d0:79:90:d9:
         df:f8:69:1a:f1:81:89:36:72:f8:72:d5:e6:c1:66:86:a4:f0:
         6f:8d:e8:6e:42:3c:02:88:0d:8c:2f:46:40:f4:bd:e6:f8:07:
         8d:a2:e8:67:d3:df:bc:33:63:46:71:da:f0:4d:85:7f:0f:7e:
         c4:4e:df:43:aa:60:2c:74:6b:f5:58:7a:e3:8d:e5:1d:11:ce:
         f9:d0:cf:16:65:c4:cd:12:2c:fc:3d:31:8c:8e:c9:c5:04:ee:
         33:87:bb:24:2b:82:19:15:03:c8:50:d9:bb:d2:40:a4:48:34:
         5c:19:99:e4:55:62:0a:dc:b4:ba:d3:73:6d:02:54:97:02:2a:
         f8:86:a2:d2:14:4f:aa:e5:9b:b1:2e:bf:db:9e:91:2d:2d:16:
         9c:e0:95:14:14:c0:85:5f:8b:38:06:7b:4f:b1:37:e6:8d:7e:
         10:c1:c8:34:5d:be:40:52:1b:8c:9a:bf:53:a2:01:c0:3a:95:
         63:d0:aa:2a:7c:7b:cd:34:a5:fc:94:1e:c4:ed:50:aa:d8:f4:
         e0:83:bd:e6:44:2d:e2:7b:0a:f0:6d:1f:b4:f1:d1:22:76:c4:
         71:f1:ca:a8:fe:1d:ad:af:03:c3:76:b7:d0:df:3b:20:2a:77:
         a0:58:5d:79
-----BEGIN CERTIFICATE-----
MIIDVjCCAj6gAwIBAgIQQhNTifYwE7jQ1WNmtTO5cDANBgkqhkiG9w0BAQsFADAU
MRIwEAYDVQQDDAl0ZWFtNS1uZXQwHhcNMjIwODA5MDAxMTI5WhcNMjUwNzI0MDAx
MTI5WjAXMRUwEwYDVQQDDAx0ZWFtNS1jbGllbnQwggEiMA0GCSqGSIb3DQEBAQUA
A4IBDwAwggEKAoIBAQDfNtA8BsPvdxaejQntV+4D1pDLyD91feovXDmPtwUr49rq
/ZnChNj2CwLouaModKJaermTuBafSd7HL4Nqz0fgZB4UY5vpblpxQf2LPC6vhknU
8TdQLDp/X94CmsGVH2sQXaxjOkbBmD2o0ukDsa21BU7xFy968fnMP5fWzSrvQP3x
sPNl2teNzHow0srMOl4LiJlq99t6FbghySXZ403BhHBoluBxHZtXJ62RWClAtH+U
IrTBLWpGBwzd/OL1b+8/qu43M1TLMJFs2bocSz2KA9Be01p7T3ZfSvHfJhdLd2Ah
Qbb/20a/dag3FtSA9NS0XRt69fIItMPD2JZKZCJ3AgMBAAGjgaAwgZ0wCQYDVR0T
BAIwADAdBgNVHQ4EFgQUhAuJRbjg9hN0lefZ2U6V3T8pMrAwTwYDVR0jBEgwRoAU
QgkiSKwiOx8bzjK2irJ5IbEvF2ChGKQWMBQxEjAQBgNVBAMMCXRlYW01LW5ldIIU
ekDZyfCHWVNtAcxfi28IUo0bt64wEwYDVR0lBAwwCgYIKwYBBQUHAwIwCwYDVR0P
BAQDAgeAMA0GCSqGSIb3DQEBCwUAA4IBAQBG/cEL4+cK8jaJ6/qsudB5kNnf+Gka
8YGJNnL4ctXmwWaGpPBvjehuQjwCiA2ML0ZA9L3m+AeNouhn09+8M2NGcdrwTYV/
D37ETt9DqmAsdGv1WHrjjeUdEc750M8WZcTNEiz8PTGMjsnFBO4zh7skK4IZFQPI
UNm70kCkSDRcGZnkVWIK3LS603NtAlSXAir4hqLSFE+q5ZuxLr/bnpEtLRac4JUU
FMCFX4s4BntPsTfmjX4Qwcg0Xb5AUhuMmr9TogHAOpVj0KoqfHvNNKX8lB7E7VCq
2PTgg73mRC3iewrwbR+08dEidsRx8cqo/h2trwPDdrfQ3zsgKnegWF15
-----END CERTIFICATE-----
