Certificate:
    Data:
        Version: 3 (0x2)
        Serial Number:
            31:35:81:fd:15:e8:d2:4a:36:17:b2:a8:d0:11:98:87
        Signature Algorithm: sha256WithRSAEncryption
        Issuer: CN=team5-net
        Validity
            Not Before: Aug  4 12:27:48 2022 GMT
            Not After : Jul 19 12:27:48 2025 GMT
        Subject: CN=team5-client
        Subject Public Key Info:
            Public Key Algorithm: rsaEncryption
                RSA Public-Key: (2048 bit)
                Modulus:
                    00:d9:ca:0d:91:3b:10:d8:01:d5:2c:0c:24:85:d7:
                    4a:15:a9:bb:16:42:34:9d:cf:69:87:6c:93:c8:41:
                    70:0b:b2:1f:46:7f:a8:b0:ba:5d:32:a7:ac:60:53:
                    6f:8a:65:16:08:fc:96:b7:f3:92:02:df:7d:73:2d:
                    03:b0:c1:60:08:7f:12:bd:66:d5:0a:27:93:86:35:
                    8d:d9:fe:61:2f:25:75:ff:a6:d5:46:af:5c:28:64:
                    72:61:0f:b6:57:16:0f:38:5e:cb:a4:a2:69:39:6c:
                    ca:49:af:1c:fb:c0:fd:31:25:f9:95:54:a2:31:52:
                    4c:6c:2b:bc:9e:a1:ad:99:41:12:b0:63:15:ae:cd:
                    75:36:f8:87:6a:1c:05:30:0c:26:e7:a5:4e:76:00:
                    27:57:5b:58:65:df:50:61:90:59:5e:bc:ad:df:ce:
                    98:a6:66:b5:c9:6f:58:a8:f9:82:c8:9a:b7:f0:d8:
                    b1:74:fa:57:9a:1f:15:f7:78:4f:33:f2:27:68:9e:
                    11:b1:75:20:65:73:f9:b8:22:d7:3b:3e:d0:5c:47:
                    7f:f7:db:73:b4:da:a6:4c:12:20:12:e8:a4:5f:7c:
                    46:5d:8e:18:e0:f1:ed:52:ba:2a:dc:fa:e9:fd:f4:
                    c7:a6:6b:e5:37:a4:9b:b7:c4:ef:8e:5a:93:cc:5f:
                    65:2b
                Exponent: 65537 (0x10001)
        X509v3 extensions:
            X509v3 Basic Constraints: 
                CA:FALSE
            X509v3 Subject Key Identifier: 
                77:6D:E8:D8:75:4A:41:43:F8:7E:5A:45:4A:9F:55:EA:60:AC:42:0C
            X509v3 Authority Key Identifier: 
                keyid:BE:AF:52:F9:DF:FC:AA:2B:56:78:01:3E:D5:E7:B2:BA:1D:E7:1A:BE
                DirName:/CN=team5-net
                serial:0C:66:16:96:4B:32:76:83:74:EF:0E:AB:8F:AB:36:D6:52:41:01:4E

            X509v3 Extended Key Usage: 
                TLS Web Client Authentication
            X509v3 Key Usage: 
                Digital Signature
    Signature Algorithm: sha256WithRSAEncryption
         b6:80:16:6a:b2:9c:d6:a1:b6:13:98:d3:68:d0:4e:22:da:2c:
         9c:85:4b:bf:d5:9b:8d:be:0f:bc:a3:bd:fa:e5:7b:d4:29:1b:
         9e:c0:60:19:01:6d:96:36:8e:17:a3:c1:b9:54:3b:24:f9:ff:
         58:16:2c:58:38:4e:ff:45:67:7c:5a:bb:f4:8a:d6:10:c6:8a:
         94:89:cc:14:c5:cb:83:69:5e:b7:3a:d2:16:43:d0:26:a8:0d:
         6c:61:f0:8d:d1:3a:49:66:c5:4e:57:04:95:ee:0f:84:87:ad:
         45:59:c2:38:17:1b:7a:b2:5d:7b:44:d7:62:31:2e:7a:05:4b:
         c2:e4:5a:e5:7e:0d:43:59:2d:73:b7:2c:81:13:07:89:94:23:
         7b:f0:2b:f1:67:00:f5:99:f2:57:e5:24:25:b8:c1:30:53:21:
         5d:54:16:d8:64:90:5e:2d:08:59:be:69:23:87:43:00:58:e9:
         8b:a2:44:9b:f5:75:a2:f1:85:41:33:be:07:c5:c9:9d:53:90:
         72:ad:3b:92:f6:d0:7d:1b:6c:87:a8:a7:57:98:07:62:57:6f:
         ba:aa:1b:33:0b:e6:38:3f:a0:4f:16:32:93:cf:20:7c:a0:d5:
         36:b4:69:6e:f6:ab:7a:fb:47:f7:dc:9b:9c:bc:99:04:21:96:
         83:93:04:d7
-----BEGIN CERTIFICATE-----
MIIDVjCCAj6gAwIBAgIQMTWB/RXo0ko2F7Ko0BGYhzANBgkqhkiG9w0BAQsFADAU
MRIwEAYDVQQDDAl0ZWFtNS1uZXQwHhcNMjIwODA0MTIyNzQ4WhcNMjUwNzE5MTIy
NzQ4WjAXMRUwEwYDVQQDDAx0ZWFtNS1jbGllbnQwggEiMA0GCSqGSIb3DQEBAQUA
A4IBDwAwggEKAoIBAQDZyg2ROxDYAdUsDCSF10oVqbsWQjSdz2mHbJPIQXALsh9G
f6iwul0yp6xgU2+KZRYI/Ja385IC331zLQOwwWAIfxK9ZtUKJ5OGNY3Z/mEvJXX/
ptVGr1woZHJhD7ZXFg84Xsukomk5bMpJrxz7wP0xJfmVVKIxUkxsK7yeoa2ZQRKw
YxWuzXU2+IdqHAUwDCbnpU52ACdXW1hl31BhkFlevK3fzpimZrXJb1io+YLImrfw
2LF0+leaHxX3eE8z8idonhGxdSBlc/m4Itc7PtBcR3/323O02qZMEiAS6KRffEZd
jhjg8e1Suirc+un99Mema+U3pJu3xO+OWpPMX2UrAgMBAAGjgaAwgZ0wCQYDVR0T
BAIwADAdBgNVHQ4EFgQUd23o2HVKQUP4flpFSp9V6mCsQgwwTwYDVR0jBEgwRoAU
vq9S+d/8qitWeAE+1eeyuh3nGr6hGKQWMBQxEjAQBgNVBAMMCXRlYW01LW5ldIIU
DGYWlksydoN07w6rj6s21lJBAU4wEwYDVR0lBAwwCgYIKwYBBQUHAwIwCwYDVR0P
BAQDAgeAMA0GCSqGSIb3DQEBCwUAA4IBAQC2gBZqspzWobYTmNNo0E4i2iychUu/
1ZuNvg+8o7365XvUKRuewGAZAW2WNo4Xo8G5VDsk+f9YFixYOE7/RWd8Wrv0itYQ
xoqUicwUxcuDaV63OtIWQ9AmqA1sYfCN0TpJZsVOVwSV7g+Eh61FWcI4Fxt6sl17
RNdiMS56BUvC5Frlfg1DWS1ztyyBEweJlCN78CvxZwD1mfJX5SQluMEwUyFdVBbY
ZJBeLQhZvmkjh0MAWOmLokSb9XWi8YVBM74HxcmdU5ByrTuS9tB9G2yHqKdXmAdi
V2+6qhszC+Y4P6BPFjKTzyB8oNU2tGlu9qt6+0f33JucvJkEIZaDkwTX
-----END CERTIFICATE-----
