Certificate:
    Data:
        Version: 3 (0x2)
        Serial Number:
            45:47:ba:ab:ac:bf:54:84:b9:9a:e0:13:ac:b1:83:a0
        Signature Algorithm: sha256WithRSAEncryption
        Issuer: CN=team22-net
        Validity
            Not Before: Aug  9 00:11:43 2022 GMT
            Not After : Jul 24 00:11:43 2025 GMT
        Subject: CN=team22-server
        Subject Public Key Info:
            Public Key Algorithm: rsaEncryption
                RSA Public-Key: (2048 bit)
                Modulus:
                    00:be:49:f3:1e:43:7c:db:75:c5:3a:ff:67:66:e0:
                    c2:e9:bf:2d:d9:cf:0b:75:2d:f1:75:8a:48:5a:5e:
                    c8:47:a0:69:f9:cb:4a:2e:45:73:2b:8e:ea:6f:86:
                    3b:6f:a7:a6:02:f8:8d:a2:e7:70:e3:e4:13:28:d0:
                    3e:8f:26:75:25:27:2f:9c:4d:38:0f:ba:5c:80:35:
                    65:44:18:d5:45:70:5e:a1:69:53:c8:71:8d:49:84:
                    88:5c:09:a0:bc:50:17:e6:4d:24:d7:ee:d8:50:b0:
                    a8:0a:87:35:5a:bd:bd:ce:1f:b2:e5:4f:01:1a:e8:
                    01:81:99:a9:11:dd:b3:60:73:ac:8f:fa:67:be:af:
                    bc:22:46:88:32:f9:1f:90:13:e2:8e:96:dc:81:42:
                    48:8e:98:d4:66:b9:d6:7e:7c:f3:45:22:fa:50:92:
                    82:86:56:32:64:3e:5d:50:22:08:71:4c:2b:e0:8d:
                    57:04:43:82:e6:ea:d5:61:89:07:16:9d:54:d9:b6:
                    3b:96:73:e8:21:50:e9:fa:3d:be:78:67:0d:27:45:
                    1b:71:fc:c7:66:53:37:88:f1:4e:84:5e:9a:5e:78:
                    a9:8f:72:e9:1d:44:d9:79:12:e5:70:37:96:db:9f:
                    f3:bd:27:75:49:7a:37:29:25:0a:19:fa:dc:1e:d9:
                    1a:95
                Exponent: 65537 (0x10001)
        X509v3 extensions:
            X509v3 Basic Constraints: 
                CA:FALSE
            X509v3 Subject Key Identifier: 
                2A:7B:2D:4B:C3:19:51:71:71:46:1A:2E:9B:F7:D3:81:CA:E1:17:4D
            X509v3 Authority Key Identifier: 
                keyid:57:F3:86:0D:11:4B:09:36:7A:73:DB:33:57:24:C9:52:1A:04:22:B9
                DirName:/CN=team22-net
                serial:1E:4D:A4:8C:46:3E:EA:5E:04:97:28:77:77:DE:78:03:1A:83:E4:08

            X509v3 Extended Key Usage: 
                TLS Web Server Authentication
            X509v3 Key Usage: 
                Digital Signature, Key Encipherment
            X509v3 Subject Alternative Name: 
                DNS:team22-server
    Signature Algorithm: sha256WithRSAEncryption
         0d:7b:7b:49:84:44:d4:32:12:cd:51:6c:e4:5f:a3:75:b1:44:
         fa:a6:83:8a:bc:6c:82:78:57:38:94:79:03:01:9e:86:a3:28:
         af:3e:6c:29:91:3d:b2:17:2a:5e:52:73:20:a8:54:5a:27:85:
         14:8c:51:f6:6c:51:21:cc:3a:ba:62:5e:14:e4:9d:74:19:4e:
         e3:8f:25:04:15:39:af:3f:43:a2:3f:ed:97:2b:c1:cd:ff:67:
         fc:59:38:a9:78:5c:ef:5b:1a:ca:7f:af:61:b8:20:03:27:f6:
         9a:76:fc:7e:a8:d3:49:e9:b4:17:08:12:1a:29:73:4d:58:9c:
         16:37:f0:ee:0b:95:3a:c0:c3:9f:b2:c6:b1:8c:36:04:26:ab:
         f3:ad:c6:4c:ee:7a:fa:d6:04:01:8f:cb:48:d6:d5:ab:cc:b1:
         96:46:17:04:67:62:77:93:f5:45:03:62:44:42:95:ff:77:4d:
         88:df:69:b5:bd:bd:b6:9a:ff:36:a9:2c:94:50:12:b1:35:07:
         55:0a:7a:1e:ed:67:ac:76:86:c3:4a:54:31:ab:61:76:9d:84:
         0c:09:da:7b:61:1c:9e:a5:27:2e:47:51:ae:58:49:00:82:78:
         91:85:5e:98:70:4b:ac:df:1f:8d:e3:02:ed:22:c9:cf:75:a2:
         c8:85:5e:31
-----BEGIN CERTIFICATE-----
MIIDczCCAlugAwIBAgIQRUe6q6y/VIS5muATrLGDoDANBgkqhkiG9w0BAQsFADAV
MRMwEQYDVQQDDAp0ZWFtMjItbmV0MB4XDTIyMDgwOTAwMTE0M1oXDTI1MDcyNDAw
MTE0M1owGDEWMBQGA1UEAwwNdGVhbTIyLXNlcnZlcjCCASIwDQYJKoZIhvcNAQEB
BQADggEPADCCAQoCggEBAL5J8x5DfNt1xTr/Z2bgwum/LdnPC3Ut8XWKSFpeyEeg
afnLSi5FcyuO6m+GO2+npgL4jaLncOPkEyjQPo8mdSUnL5xNOA+6XIA1ZUQY1UVw
XqFpU8hxjUmEiFwJoLxQF+ZNJNfu2FCwqAqHNVq9vc4fsuVPARroAYGZqRHds2Bz
rI/6Z76vvCJGiDL5H5AT4o6W3IFCSI6Y1Ga51n5880Ui+lCSgoZWMmQ+XVAiCHFM
K+CNVwRDgubq1WGJBxadVNm2O5Zz6CFQ6fo9vnhnDSdFG3H8x2ZTN4jxToReml54
qY9y6R1E2XkS5XA3ltuf870ndUl6NyklChn63B7ZGpUCAwEAAaOBuzCBuDAJBgNV
HRMEAjAAMB0GA1UdDgQWBBQqey1LwxlRcXFGGi6b99OByuEXTTBQBgNVHSMESTBH
gBRX84YNEUsJNnpz2zNXJMlSGgQiuaEZpBcwFTETMBEGA1UEAwwKdGVhbTIyLW5l
dIIUHk2kjEY+6l4Elyh3d954AxqD5AgwEwYDVR0lBAwwCgYIKwYBBQUHAwEwCwYD
VR0PBAQDAgWgMBgGA1UdEQQRMA+CDXRlYW0yMi1zZXJ2ZXIwDQYJKoZIhvcNAQEL
BQADggEBAA17e0mERNQyEs1RbORfo3WxRPqmg4q8bIJ4VziUeQMBnoajKK8+bCmR
PbIXKl5ScyCoVFonhRSMUfZsUSHMOrpiXhTknXQZTuOPJQQVOa8/Q6I/7Zcrwc3/
Z/xZOKl4XO9bGsp/r2G4IAMn9pp2/H6o00nptBcIEhopc01YnBY38O4LlTrAw5+y
xrGMNgQmq/OtxkzuevrWBAGPy0jW1avMsZZGFwRnYneT9UUDYkRClf93TYjfabW9
vbaa/zapLJRQErE1B1UKeh7tZ6x2hsNKVDGrYXadhAwJ2nthHJ6lJy5HUa5YSQCC
eJGFXphwS6zfH43jAu0iyc91osiFXjE=
-----END CERTIFICATE-----
