Certificate:
    Data:
        Version: 3 (0x2)
        Serial Number:
            3e:1c:90:20:bd:72:89:99:f5:a4:01:c1:7d:7e:57:fe
        Signature Algorithm: sha256WithRSAEncryption
        Issuer: CN=team30-net
        Validity
            Not Before: Aug  9 00:11:50 2022 GMT
            Not After : Jul 24 00:11:50 2025 GMT
        Subject: CN=team30-client
        Subject Public Key Info:
            Public Key Algorithm: rsaEncryption
                RSA Public-Key: (2048 bit)
                Modulus:
                    00:a6:fe:57:1e:82:77:af:1b:93:07:33:bf:16:50:
                    24:2b:1b:36:ac:1d:2c:99:d0:f9:48:b1:1d:23:9c:
                    ea:2c:c1:28:63:ae:a9:dd:67:b0:c6:4d:ca:de:bf:
                    82:2a:09:38:80:a4:3f:7d:40:4f:52:0d:fe:3b:ba:
                    2f:39:98:11:12:1f:2f:2b:8a:6c:4c:a7:27:ce:89:
                    29:16:cd:e7:39:10:ac:99:15:79:fd:f3:ec:4c:05:
                    83:67:fb:ec:0e:17:ce:2b:73:ca:d5:2f:7d:c0:be:
                    4f:e3:32:a9:3c:fa:b8:1e:53:c3:a0:b8:79:a8:51:
                    64:5b:49:25:03:fe:ce:b5:f9:7a:f6:fe:57:5a:ac:
                    f6:96:e0:75:e0:e3:28:95:3d:c8:b0:d4:4b:db:6c:
                    e9:d0:55:f5:09:ac:6b:47:44:c0:3a:53:8c:12:31:
                    61:45:a2:37:15:f1:83:9f:7a:e4:db:c4:19:ab:a4:
                    8f:b5:da:11:a7:65:75:1c:9f:75:7a:ab:41:a4:85:
                    6d:c8:df:ec:39:26:f8:28:68:ae:7f:90:5b:1e:fd:
                    c4:76:2c:ac:53:16:c6:08:f7:bd:72:f9:8d:98:25:
                    4d:e5:8e:3f:d0:95:b5:dd:03:e7:a8:27:f1:ea:a0:
                    8c:a3:14:d2:ca:86:00:87:06:f7:cc:69:a5:fa:67:
                    dd:29
                Exponent: 65537 (0x10001)
        X509v3 extensions:
            X509v3 Basic Constraints: 
                CA:FALSE
            X509v3 Subject Key Identifier: 
                D5:41:07:19:8A:18:27:03:E4:EF:78:FA:7B:44:F9:D5:2C:A3:AE:87
            X509v3 Authority Key Identifier: 
                keyid:4F:8A:21:3D:5D:15:2D:5A:93:51:F5:4D:8B:EA:5C:B4:DD:27:FE:64
                DirName:/CN=team30-net
                serial:77:5A:3E:AA:66:15:F1:A8:B0:2E:7C:6D:25:B8:E7:1D:59:51:97:74

            X509v3 Extended Key Usage: 
                TLS Web Client Authentication
            X509v3 Key Usage: 
                Digital Signature
    Signature Algorithm: sha256WithRSAEncryption
         8e:1f:01:18:d7:d6:71:55:67:86:82:99:db:c5:18:cd:72:c3:
         32:41:1d:30:ee:2e:d2:48:82:ea:4c:0c:50:d0:63:db:2d:d2:
         c9:79:86:18:34:5d:9c:c2:e6:1d:b1:67:e0:49:4d:95:23:ac:
         ca:a8:9a:b4:24:6e:34:80:8b:60:f0:42:31:aa:b1:68:c0:aa:
         85:4a:68:52:26:13:4b:dc:ba:66:4f:92:f6:09:ee:33:b8:40:
         21:99:7c:c6:b1:f3:26:51:31:7c:ba:4a:2c:53:10:88:d3:70:
         38:b9:ae:6b:a0:45:a4:a0:fb:6d:cd:d9:da:96:61:cc:b9:ad:
         e6:fd:5a:d7:8c:70:a2:a3:0d:e0:9b:8d:6b:8a:66:26:b7:bc:
         4a:fa:02:e6:c2:3b:64:31:d0:2b:b4:a4:6c:2a:d7:30:16:83:
         38:9c:60:86:a1:f4:a9:4b:1c:1c:0b:1b:0f:0a:6e:0e:95:c9:
         92:24:d4:96:5a:d6:aa:f4:91:27:28:8d:17:5c:14:d0:ae:21:
         06:a0:52:b1:09:0e:b3:85:8b:0c:a5:f3:6e:51:e6:39:41:fb:
         e2:e6:8a:da:78:6a:c0:ef:b4:4a:05:86:99:1c:58:90:a2:15:
         f0:eb:6b:15:f8:7c:6f:5e:f4:b8:9e:57:63:cf:75:84:f1:e8:
         a3:fc:0b:34
-----BEGIN CERTIFICATE-----
MIIDWTCCAkGgAwIBAgIQPhyQIL1yiZn1pAHBfX5X/jANBgkqhkiG9w0BAQsFADAV
MRMwEQYDVQQDDAp0ZWFtMzAtbmV0MB4XDTIyMDgwOTAwMTE1MFoXDTI1MDcyNDAw
MTE1MFowGDEWMBQGA1UEAwwNdGVhbTMwLWNsaWVudDCCASIwDQYJKoZIhvcNAQEB
BQADggEPADCCAQoCggEBAKb+Vx6Cd68bkwczvxZQJCsbNqwdLJnQ+UixHSOc6izB
KGOuqd1nsMZNyt6/gioJOICkP31AT1IN/ju6LzmYERIfLyuKbEynJ86JKRbN5zkQ
rJkVef3z7EwFg2f77A4XzitzytUvfcC+T+MyqTz6uB5Tw6C4eahRZFtJJQP+zrX5
evb+V1qs9pbgdeDjKJU9yLDUS9ts6dBV9Qmsa0dEwDpTjBIxYUWiNxXxg5965NvE
Gaukj7XaEadldRyfdXqrQaSFbcjf7Dkm+Chorn+QWx79xHYsrFMWxgj3vXL5jZgl
TeWOP9CVtd0D56gn8eqgjKMU0sqGAIcG98xppfpn3SkCAwEAAaOBoTCBnjAJBgNV
HRMEAjAAMB0GA1UdDgQWBBTVQQcZihgnA+TvePp7RPnVLKOuhzBQBgNVHSMESTBH
gBRPiiE9XRUtWpNR9U2L6ly03Sf+ZKEZpBcwFTETMBEGA1UEAwwKdGVhbTMwLW5l
dIIUd1o+qmYV8aiwLnxtJbjnHVlRl3QwEwYDVR0lBAwwCgYIKwYBBQUHAwIwCwYD
VR0PBAQDAgeAMA0GCSqGSIb3DQEBCwUAA4IBAQCOHwEY19ZxVWeGgpnbxRjNcsMy
QR0w7i7SSILqTAxQ0GPbLdLJeYYYNF2cwuYdsWfgSU2VI6zKqJq0JG40gItg8EIx
qrFowKqFSmhSJhNL3LpmT5L2Ce4zuEAhmXzGsfMmUTF8ukosUxCI03A4ua5roEWk
oPttzdnalmHMua3m/VrXjHCiow3gm41rimYmt7xK+gLmwjtkMdArtKRsKtcwFoM4
nGCGofSpSxwcCxsPCm4OlcmSJNSWWtaq9JEnKI0XXBTQriEGoFKxCQ6zhYsMpfNu
UeY5Qfvi5oraeGrA77RKBYaZHFiQohXw62sV+HxvXvS4nldjz3WE8eij/As0
-----END CERTIFICATE-----
