Certificate:
    Data:
        Version: 3 (0x2)
        Serial Number:
            66:77:c2:b9:c9:9d:9c:26:c1:af:87:ae:9e:1c:52:93
        Signature Algorithm: sha256WithRSAEncryption
        Issuer: CN=team30-net
        Validity
            Not Before: Aug  9 00:11:50 2022 GMT
            Not After : Jul 24 00:11:50 2025 GMT
        Subject: CN=team30-server
        Subject Public Key Info:
            Public Key Algorithm: rsaEncryption
                RSA Public-Key: (2048 bit)
                Modulus:
                    00:bb:6a:34:d9:ee:1f:1c:b6:19:3f:66:4b:6f:bf:
                    a6:c3:ec:af:74:80:4a:28:4d:47:6b:b5:8e:f6:07:
                    78:1b:a0:9a:83:84:a5:48:2a:f0:41:8b:fd:26:ff:
                    94:37:3e:10:d3:8a:69:a4:8d:2b:03:fa:cd:1c:14:
                    7d:68:42:63:85:cb:ed:b7:8a:2a:4e:06:53:5a:70:
                    46:2a:06:3e:2a:12:1e:54:5b:7a:cf:af:90:75:38:
                    59:6d:41:9e:1e:b7:cd:95:03:ef:d8:6c:f2:29:57:
                    9b:67:2b:d0:7b:ad:c2:df:e7:06:9a:f6:de:90:39:
                    2f:39:ba:7d:84:f4:1f:3d:8b:a5:f7:27:4a:c6:fe:
                    35:a7:24:ab:33:1b:fa:0e:ca:d3:86:16:e5:0f:08:
                    42:35:57:dc:a5:8e:d0:3e:cb:e8:49:2d:40:67:ca:
                    41:53:5d:35:bf:0d:5a:fd:3b:5d:96:9f:07:56:14:
                    95:c7:73:aa:ff:12:6a:ec:42:69:58:3c:4e:04:c7:
                    8a:f4:53:4d:f0:3e:4a:9a:4c:5b:b4:5b:27:75:7d:
                    a2:43:c5:55:7f:b2:1d:6a:4c:1e:1f:81:d6:cd:50:
                    a8:f9:03:d3:df:a9:72:ea:79:8d:5b:eb:f6:ed:22:
                    4d:d8:64:ec:f0:48:b8:a4:07:e7:e6:c0:4a:e2:4e:
                    36:8f
                Exponent: 65537 (0x10001)
        X509v3 extensions:
            X509v3 Basic Constraints: 
                CA:FALSE
            X509v3 Subject Key Identifier: 
                07:68:6E:9C:78:D5:89:31:5C:F6:18:1E:2C:45:AF:9D:98:02:05:39
            X509v3 Authority Key Identifier: 
                keyid:4F:8A:21:3D:5D:15:2D:5A:93:51:F5:4D:8B:EA:5C:B4:DD:27:FE:64
                DirName:/CN=team30-net
                serial:77:5A:3E:AA:66:15:F1:A8:B0:2E:7C:6D:25:B8:E7:1D:59:51:97:74

            X509v3 Extended Key Usage: 
                TLS Web Server Authentication
            X509v3 Key Usage: 
                Digital Signature, Key Encipherment
            X509v3 Subject Alternative Name: 
                DNS:team30-server
    Signature Algorithm: sha256WithRSAEncryption
         87:99:6b:81:cb:e7:ff:0d:95:7b:04:f1:bc:90:78:ea:14:f2:
         ca:83:f1:72:3d:9f:8f:95:7b:fb:13:c4:25:ef:22:2e:c7:bf:
         34:83:ca:52:20:a7:fa:ef:00:dd:f1:90:35:e7:69:82:ea:70:
         1c:4d:33:c6:fc:1c:7b:ee:44:88:98:55:e9:7c:9a:bf:b6:0a:
         b9:31:c8:c3:70:79:52:26:30:c7:31:90:0f:18:69:7a:6d:89:
         5d:04:a9:d5:a5:d5:de:b9:5b:03:47:fc:9a:86:f8:b5:00:22:
         ed:81:79:ad:f2:62:97:38:b1:4e:dc:53:f4:ee:bc:b9:38:3d:
         ca:44:05:6f:8c:9b:f0:b9:f1:7f:c0:51:ac:e2:7a:17:3b:ba:
         24:eb:a7:bf:ff:66:49:35:ce:aa:11:67:1c:87:46:50:bd:7c:
         40:58:97:59:b1:d1:76:e9:20:1e:19:43:aa:ff:c2:0b:94:81:
         3c:4d:d0:89:9d:87:14:38:a8:47:91:ec:8c:63:5f:ff:b4:28:
         4c:a2:d6:ac:89:cb:b8:29:3c:b1:c3:a6:bc:5b:8c:cc:80:fc:
         47:c0:08:41:f1:03:52:8d:b9:a8:15:a8:c4:ec:de:22:04:ca:
         35:5e:19:64:da:76:e3:f9:4f:5c:c5:19:07:2f:dc:7f:9c:93:
         56:88:ff:90
-----BEGIN CERTIFICATE-----
MIIDczCCAlugAwIBAgIQZnfCucmdnCbBr4eunhxSkzANBgkqhkiG9w0BAQsFADAV
MRMwEQYDVQQDDAp0ZWFtMzAtbmV0MB4XDTIyMDgwOTAwMTE1MFoXDTI1MDcyNDAw
MTE1MFowGDEWMBQGA1UEAwwNdGVhbTMwLXNlcnZlcjCCASIwDQYJKoZIhvcNAQEB
BQADggEPADCCAQoCggEBALtqNNnuHxy2GT9mS2+/psPsr3SASihNR2u1jvYHeBug
moOEpUgq8EGL/Sb/lDc+ENOKaaSNKwP6zRwUfWhCY4XL7beKKk4GU1pwRioGPioS
HlRbes+vkHU4WW1Bnh63zZUD79hs8ilXm2cr0Hutwt/nBpr23pA5Lzm6fYT0Hz2L
pfcnSsb+NackqzMb+g7K04YW5Q8IQjVX3KWO0D7L6EktQGfKQVNdNb8NWv07XZaf
B1YUlcdzqv8SauxCaVg8TgTHivRTTfA+SppMW7RbJ3V9okPFVX+yHWpMHh+B1s1Q
qPkD09+pcup5jVvr9u0iTdhk7PBIuKQH5+bASuJONo8CAwEAAaOBuzCBuDAJBgNV
HRMEAjAAMB0GA1UdDgQWBBQHaG6ceNWJMVz2GB4sRa+dmAIFOTBQBgNVHSMESTBH
gBRPiiE9XRUtWpNR9U2L6ly03Sf+ZKEZpBcwFTETMBEGA1UEAwwKdGVhbTMwLW5l
dIIUd1o+qmYV8aiwLnxtJbjnHVlRl3QwEwYDVR0lBAwwCgYIKwYBBQUHAwEwCwYD
VR0PBAQDAgWgMBgGA1UdEQQRMA+CDXRlYW0zMC1zZXJ2ZXIwDQYJKoZIhvcNAQEL
BQADggEBAIeZa4HL5/8NlXsE8byQeOoU8sqD8XI9n4+Ve/sTxCXvIi7HvzSDylIg
p/rvAN3xkDXnaYLqcBxNM8b8HHvuRIiYVel8mr+2CrkxyMNweVImMMcxkA8YaXpt
iV0EqdWl1d65WwNH/JqG+LUAIu2Bea3yYpc4sU7cU/TuvLk4PcpEBW+Mm/C58X/A
Uaziehc7uiTrp7//Zkk1zqoRZxyHRlC9fEBYl1mx0XbpIB4ZQ6r/wguUgTxN0Imd
hxQ4qEeR7IxjX/+0KEyi1qyJy7gpPLHDprxbjMyA/EfACEHxA1KNuagVqMTs3iIE
yjVeGWTaduP5T1zFGQcv3H+ck1aI/5A=
-----END CERTIFICATE-----
