Certificate:
    Data:
        Version: 3 (0x2)
        Serial Number:
            88:60:79:a4:e0:48:a5:c5:c9:68:a5:66:f8:49:59:98
        Signature Algorithm: sha256WithRSAEncryption
        Issuer: CN=team4-net
        Validity
            Not Before: Aug  9 00:11:27 2022 GMT
            Not After : Jul 24 00:11:27 2025 GMT
        Subject: CN=team4-client
        Subject Public Key Info:
            Public Key Algorithm: rsaEncryption
                RSA Public-Key: (2048 bit)
                Modulus:
                    00:9f:a0:a4:aa:18:85:5b:70:a5:b8:ee:09:24:70:
                    b4:de:36:aa:43:22:ad:4d:63:a8:a8:7d:9d:a5:14:
                    d4:aa:69:93:5a:85:d5:82:b9:a1:24:57:e5:53:55:
                    f9:9d:58:ea:f6:de:43:f3:7d:33:11:a6:6f:d9:c8:
                    65:f1:f7:07:21:ca:b4:d4:fb:21:75:5f:c7:ce:0a:
                    d5:c8:95:ef:fb:28:e5:57:00:16:ae:de:7a:7c:6e:
                    5a:10:55:3c:90:9f:29:88:8d:ac:29:9d:83:b9:37:
                    28:29:ee:7a:24:b1:d3:1f:75:93:cb:fa:e6:b4:35:
                    39:6a:f6:ae:c7:5c:ed:e2:bb:40:89:c0:53:51:6e:
                    0a:26:38:10:b5:ae:d6:6e:0a:90:45:9b:7d:1f:3d:
                    9c:ee:c1:08:f9:54:5a:19:a6:c4:b9:9e:73:50:52:
                    eb:f5:6f:a7:b3:dc:2a:1e:d5:25:63:d7:54:89:25:
                    8e:6e:6f:a7:cc:f0:c1:48:e8:1c:ce:be:64:c7:0d:
                    21:90:e7:bb:48:f4:b4:7d:e9:d2:52:d1:82:a9:ce:
                    6d:63:8c:f4:cd:5d:a4:58:d6:ff:4c:da:23:e5:9b:
                    63:78:f1:fd:8f:df:c8:e4:52:c3:54:25:30:78:91:
                    7e:f2:87:d2:68:c3:58:91:ee:3e:6b:f5:56:df:9a:
                    a3:a9
                Exponent: 65537 (0x10001)
        X509v3 extensions:
            X509v3 Basic Constraints: 
                CA:FALSE
            X509v3 Subject Key Identifier: 
                56:6D:74:4E:03:43:7E:9B:6B:65:61:19:64:5D:72:9C:A0:64:E8:E4
            X509v3 Authority Key Identifier: 
                keyid:16:58:BF:67:16:67:58:77:55:63:10:35:A9:F4:E9:B6:90:6D:AB:75
                DirName:/CN=team4-net
                serial:21:33:22:FA:02:82:EA:A3:A0:7E:BB:FC:8D:1D:4B:F8:0B:75:F2:6A

            X509v3 Extended Key Usage: 
                TLS Web Client Authentication
            X509v3 Key Usage: 
                Digital Signature
    Signature Algorithm: sha256WithRSAEncryption
         8e:29:37:be:1e:b5:52:90:97:fe:12:ee:0c:3e:6f:bb:2f:bd:
         04:ee:7f:e8:ce:2e:7c:5d:4b:34:59:93:2a:08:c4:8e:7c:e3:
         37:a3:cd:d6:30:d4:94:c5:a5:13:b2:f2:77:e9:e1:f6:a3:4f:
         39:55:9f:43:2a:00:a3:8d:4e:e9:49:ea:ab:e4:b4:84:e6:95:
         30:56:f6:8d:b0:e3:6a:6b:24:a1:b0:36:be:d0:fe:99:51:b5:
         1f:08:b1:d7:aa:e4:68:7c:20:65:4f:66:95:9d:d4:7d:40:be:
         f4:20:a5:33:ac:41:be:4d:cf:13:9a:1c:4b:23:e8:37:61:cd:
         90:2d:5f:33:dc:70:ed:11:45:0d:cb:ac:1f:b8:32:f6:b6:c1:
         1a:06:72:ef:4f:f1:fb:21:a8:ea:08:51:67:68:5c:49:47:02:
         6a:ff:ad:26:b4:fc:a9:f4:2a:96:d5:6c:47:7d:2e:a8:51:94:
         0e:88:9e:22:fc:c5:07:95:6a:f2:ce:3d:5b:88:2b:99:5a:5c:
         30:98:b7:73:6d:de:b8:fa:17:84:56:f0:31:04:f6:17:7b:b9:
         31:c3:69:d9:b8:a6:86:41:3f:cb:5a:84:c1:9f:10:79:08:b6:
         40:3d:92:9d:5c:a5:71:a4:66:7b:95:08:80:ad:96:cd:4b:56:
         58:ca:58:e5
-----BEGIN CERTIFICATE-----
MIIDVzCCAj+gAwIBAgIRAIhgeaTgSKXFyWilZvhJWZgwDQYJKoZIhvcNAQELBQAw
FDESMBAGA1UEAwwJdGVhbTQtbmV0MB4XDTIyMDgwOTAwMTEyN1oXDTI1MDcyNDAw
MTEyN1owFzEVMBMGA1UEAwwMdGVhbTQtY2xpZW50MIIBIjANBgkqhkiG9w0BAQEF
AAOCAQ8AMIIBCgKCAQEAn6CkqhiFW3CluO4JJHC03jaqQyKtTWOoqH2dpRTUqmmT
WoXVgrmhJFflU1X5nVjq9t5D830zEaZv2chl8fcHIcq01PshdV/HzgrVyJXv+yjl
VwAWrt56fG5aEFU8kJ8piI2sKZ2DuTcoKe56JLHTH3WTy/rmtDU5avaux1zt4rtA
icBTUW4KJjgQta7WbgqQRZt9Hz2c7sEI+VRaGabEuZ5zUFLr9W+ns9wqHtUlY9dU
iSWObm+nzPDBSOgczr5kxw0hkOe7SPS0fenSUtGCqc5tY4z0zV2kWNb/TNoj5Ztj
ePH9j9/I5FLDVCUweJF+8ofSaMNYke4+a/VW35qjqQIDAQABo4GgMIGdMAkGA1Ud
EwQCMAAwHQYDVR0OBBYEFFZtdE4DQ36ba2VhGWRdcpygZOjkME8GA1UdIwRIMEaA
FBZYv2cWZ1h3VWMQNan06baQbat1oRikFjAUMRIwEAYDVQQDDAl0ZWFtNC1uZXSC
FCEzIvoCguqjoH67/I0dS/gLdfJqMBMGA1UdJQQMMAoGCCsGAQUFBwMCMAsGA1Ud
DwQEAwIHgDANBgkqhkiG9w0BAQsFAAOCAQEAjik3vh61UpCX/hLuDD5vuy+9BO5/
6M4ufF1LNFmTKgjEjnzjN6PN1jDUlMWlE7Lyd+nh9qNPOVWfQyoAo41O6Unqq+S0
hOaVMFb2jbDjamskobA2vtD+mVG1Hwix16rkaHwgZU9mlZ3UfUC+9CClM6xBvk3P
E5ocSyPoN2HNkC1fM9xw7RFFDcusH7gy9rbBGgZy70/x+yGo6ghRZ2hcSUcCav+t
JrT8qfQqltVsR30uqFGUDoieIvzFB5Vq8s49W4grmVpcMJi3c23euPoXhFbwMQT2
F3u5McNp2bimhkE/y1qEwZ8QeQi2QD2SnVylcaRme5UIgK2WzUtWWMpY5Q==
-----END CERTIFICATE-----
