Certificate:
    Data:
        Version: 3 (0x2)
        Serial Number:
            47:39:0d:2a:29:c1:38:ec:25:6f:9f:f2:ff:d6:07:38
        Signature Algorithm: sha256WithRSAEncryption
        Issuer: CN=team16-net
        Validity
            Not Before: Aug  9 00:11:38 2022 GMT
            Not After : Jul 24 00:11:38 2025 GMT
        Subject: CN=team16-server
        Subject Public Key Info:
            Public Key Algorithm: rsaEncryption
                RSA Public-Key: (2048 bit)
                Modulus:
                    00:c8:de:ba:67:20:ea:03:8d:08:dc:e6:58:38:f5:
                    1d:70:c4:30:ba:5a:e5:0d:c1:af:c3:16:3b:a5:d2:
                    bf:e6:10:2a:50:2c:31:7f:25:0c:64:68:c7:0e:c5:
                    ba:f8:60:31:9e:4f:b7:1e:66:d2:72:52:5c:4d:af:
                    a5:44:28:23:d7:73:02:33:e9:35:c2:e9:e6:0e:b0:
                    bd:52:2f:ef:9f:1d:f7:73:0c:6f:26:c3:df:4f:a2:
                    d8:61:06:d2:84:6c:27:2d:9e:d9:84:08:23:a3:0e:
                    29:a6:cd:c9:68:b7:d2:ea:6d:d8:f8:83:65:38:83:
                    03:fd:21:18:82:80:70:16:32:f5:41:7b:2b:99:41:
                    f7:54:be:5a:ee:fa:cc:77:b8:98:9a:31:45:a4:bb:
                    61:11:85:a1:89:e0:21:e4:2d:52:63:3d:5c:48:a0:
                    ec:2e:19:d9:ce:04:4b:29:58:57:9b:79:6f:51:1b:
                    51:c3:49:37:a2:18:69:66:f0:5a:f1:75:15:01:a0:
                    af:c0:d7:1c:70:27:d5:b2:90:50:75:65:e5:a0:71:
                    f1:31:4e:5d:84:c6:d3:b7:9d:c5:e5:42:89:36:f3:
                    4b:7f:66:5a:77:6c:da:2c:36:a0:a8:1e:6a:31:c1:
                    2b:e8:1e:a5:01:fd:47:bc:f1:6e:5e:e0:a7:bb:15:
                    75:fd
                Exponent: 65537 (0x10001)
        X509v3 extensions:
            X509v3 Basic Constraints: 
                CA:FALSE
            X509v3 Subject Key Identifier: 
                9C:CB:58:6D:D9:7D:74:12:3D:7F:4B:85:8F:CD:6B:02:5E:3E:DA:C5
            X509v3 Authority Key Identifier: 
                keyid:C8:CE:2B:BA:45:13:03:6E:F5:43:B8:28:14:AC:91:BE:D6:F8:57:A3
                DirName:/CN=team16-net
                serial:13:63:55:59:7A:D2:71:10:50:5C:1D:5D:E3:CB:7F:E8:BA:28:7C:E8

            X509v3 Extended Key Usage: 
                TLS Web Server Authentication
            X509v3 Key Usage: 
                Digital Signature, Key Encipherment
            X509v3 Subject Alternative Name: 
                DNS:team16-server
    Signature Algorithm: sha256WithRSAEncryption
         2d:65:dd:aa:04:95:74:62:84:ae:30:19:37:69:5d:08:3d:95:
         6a:9f:30:48:cc:87:42:29:9c:b5:78:b0:6f:2b:3e:42:0d:b8:
         f4:85:54:eb:1c:5f:60:f8:2a:6a:8a:03:ac:04:58:69:5a:ee:
         83:1e:05:4e:15:e6:0e:3a:c7:fd:a2:c0:97:0d:bd:4c:82:92:
         ba:7a:3c:63:d9:bf:00:01:45:1a:74:9e:0b:e2:e1:0e:66:b5:
         4b:af:d0:d5:2a:54:6b:79:0f:3d:eb:ac:dc:78:10:7a:ab:f0:
         4b:48:8b:dc:f8:7b:d1:b3:16:06:67:f6:de:1a:58:1e:c2:3a:
         98:5d:fa:1b:51:2d:76:6c:55:12:62:5d:35:6d:c9:4b:b8:9e:
         45:bd:24:93:06:92:11:5a:e7:6a:c3:76:fb:07:ae:23:6c:57:
         39:e6:4c:da:ce:cc:9f:37:6f:21:60:e8:83:98:39:4c:7f:d5:
         9d:60:51:6a:bc:83:bb:3e:4d:ee:67:1a:71:bb:b5:25:37:ed:
         fe:7d:ea:4d:78:95:74:e3:cd:d5:bf:11:54:38:92:2e:cc:37:
         92:09:50:01:4d:18:5a:e7:e5:cb:71:6a:24:44:bd:db:f6:10:
         85:59:a0:a6:28:e5:d7:e1:d1:86:45:5a:35:ce:85:2c:5a:2f:
         8f:fd:71:76
-----BEGIN CERTIFICATE-----
MIIDczCCAlugAwIBAgIQRzkNKinBOOwlb5/y/9YHODANBgkqhkiG9w0BAQsFADAV
MRMwEQYDVQQDDAp0ZWFtMTYtbmV0MB4XDTIyMDgwOTAwMTEzOFoXDTI1MDcyNDAw
MTEzOFowGDEWMBQGA1UEAwwNdGVhbTE2LXNlcnZlcjCCASIwDQYJKoZIhvcNAQEB
BQADggEPADCCAQoCggEBAMjeumcg6gONCNzmWDj1HXDEMLpa5Q3Br8MWO6XSv+YQ
KlAsMX8lDGRoxw7FuvhgMZ5Ptx5m0nJSXE2vpUQoI9dzAjPpNcLp5g6wvVIv758d
93MMbybD30+i2GEG0oRsJy2e2YQII6MOKabNyWi30upt2PiDZTiDA/0hGIKAcBYy
9UF7K5lB91S+Wu76zHe4mJoxRaS7YRGFoYngIeQtUmM9XEig7C4Z2c4ESylYV5t5
b1EbUcNJN6IYaWbwWvF1FQGgr8DXHHAn1bKQUHVl5aBx8TFOXYTG07edxeVCiTbz
S39mWnds2iw2oKgeajHBK+gepQH9R7zxbl7gp7sVdf0CAwEAAaOBuzCBuDAJBgNV
HRMEAjAAMB0GA1UdDgQWBBScy1ht2X10Ej1/S4WPzWsCXj7axTBQBgNVHSMESTBH
gBTIziu6RRMDbvVDuCgUrJG+1vhXo6EZpBcwFTETMBEGA1UEAwwKdGVhbTE2LW5l
dIIUE2NVWXrScRBQXB1d48t/6LoofOgwEwYDVR0lBAwwCgYIKwYBBQUHAwEwCwYD
VR0PBAQDAgWgMBgGA1UdEQQRMA+CDXRlYW0xNi1zZXJ2ZXIwDQYJKoZIhvcNAQEL
BQADggEBAC1l3aoElXRihK4wGTdpXQg9lWqfMEjMh0IpnLV4sG8rPkINuPSFVOsc
X2D4KmqKA6wEWGla7oMeBU4V5g46x/2iwJcNvUyCkrp6PGPZvwABRRp0ngvi4Q5m
tUuv0NUqVGt5Dz3rrNx4EHqr8EtIi9z4e9GzFgZn9t4aWB7COphd+htRLXZsVRJi
XTVtyUu4nkW9JJMGkhFa52rDdvsHriNsVznmTNrOzJ83byFg6IOYOUx/1Z1gUWq8
g7s+Te5nGnG7tSU37f596k14lXTjzdW/EVQ4ki7MN5IJUAFNGFrn5ctxaiREvdv2
EIVZoKYo5dfh0YZFWjXOhSxaL4/9cXY=
-----END CERTIFICATE-----
