Certificate:
    Data:
        Version: 3 (0x2)
        Serial Number:
            99:ca:90:29:d9:65:5d:db:34:e6:5a:a6:01:98:47:60
        Signature Algorithm: sha256WithRSAEncryption
        Issuer: CN=team16-net
        Validity
            Not Before: Aug  9 18:52:38 2022 GMT
            Not After : Jul 24 18:52:38 2025 GMT
        Subject: CN=team16-client
        Subject Public Key Info:
            Public Key Algorithm: rsaEncryption
                RSA Public-Key: (2048 bit)
                Modulus:
                    00:d4:91:e0:dc:01:46:d1:85:51:a9:ce:e3:e3:f4:
                    a4:44:1c:79:c8:da:f7:02:62:cc:6c:ba:d2:5d:3e:
                    2a:58:02:4c:7c:a4:2c:a8:9d:89:65:9c:75:7a:bd:
                    4b:a9:f3:48:02:81:79:41:58:cb:99:21:d9:7c:58:
                    20:28:dc:bf:56:ac:5a:cc:6f:21:40:bd:d0:6b:83:
                    1b:46:c7:f0:bb:33:84:2a:54:ef:80:a9:9b:28:a7:
                    df:21:5e:a7:7c:7a:31:2e:47:0f:88:cf:c1:0d:28:
                    7d:b5:9c:e1:d3:f9:a6:b1:99:5d:bd:81:00:41:e3:
                    e2:f3:3a:35:aa:99:e9:8f:21:76:95:f0:2b:c7:a0:
                    4e:a0:2d:74:c8:4c:2b:66:be:65:6c:cd:5c:f3:81:
                    0f:38:7e:de:94:91:6b:4f:a1:eb:1a:35:fa:b7:3d:
                    f2:fa:09:c8:bb:42:81:c8:bc:38:ed:03:3f:f6:04:
                    76:ac:71:99:27:a6:32:27:55:7f:e2:c4:73:7d:27:
                    42:c1:6b:ab:d6:ba:36:bc:b6:4b:28:58:7a:31:13:
                    9a:9c:d3:44:f5:52:70:c6:b8:49:55:16:5b:43:53:
                    87:b1:fa:12:f3:b4:85:d7:4b:a1:79:63:61:78:17:
                    9f:dc:3d:f9:15:96:43:64:1e:fa:88:24:b2:42:69:
                    c5:cd
                Exponent: 65537 (0x10001)
        X509v3 extensions:
            X509v3 Basic Constraints: 
                CA:FALSE
            X509v3 Subject Key Identifier: 
                46:0C:47:44:59:9C:A8:63:15:60:8B:F8:94:F3:71:87:D2:80:71:1C
            X509v3 Authority Key Identifier: 
                keyid:99:E0:6A:E5:74:53:E4:5D:6C:B9:EB:E3:F1:78:5D:7E:C3:18:3E:54
                DirName:/CN=team16-net
                serial:03:5B:01:89:12:A4:57:44:90:F3:C8:57:F0:4C:7A:E9:38:C9:C0:27

            X509v3 Extended Key Usage: 
                TLS Web Client Authentication
            X509v3 Key Usage: 
                Digital Signature
    Signature Algorithm: sha256WithRSAEncryption
         a3:fd:12:00:21:13:25:2e:d8:03:04:25:4f:16:22:21:f0:ec:
         0d:d6:a8:2f:ff:8a:3d:44:56:85:e9:8f:72:d5:e2:63:20:47:
         77:04:4c:44:04:05:0f:91:72:79:46:e0:66:90:dd:5b:d1:6e:
         59:af:c8:7f:72:6d:08:d2:10:1e:71:d2:2a:a8:99:7a:c8:dd:
         89:8e:61:e1:98:8b:96:49:33:de:66:4b:ad:a1:fa:3f:74:62:
         cd:a1:73:42:f8:70:e1:60:90:3f:24:e3:a6:d3:a5:e6:8b:be:
         2d:e3:77:49:1b:be:d3:6e:d8:cc:d0:2f:32:0a:bb:3f:c2:2c:
         1d:bf:4e:f1:53:4f:fc:97:2f:e9:a5:74:43:07:7b:a4:96:c8:
         ea:a4:1f:46:6d:c4:23:66:7a:3b:b3:10:9d:bb:58:ef:9e:ed:
         b3:f1:5c:28:b0:22:d9:24:e8:5d:0b:b6:6d:44:03:80:7c:3a:
         1a:09:c8:f5:d0:fd:43:9e:e0:ad:41:4d:f3:00:65:2e:7e:9e:
         cc:5b:9e:46:45:3b:78:74:27:dc:0d:15:5e:84:dd:db:65:8a:
         f2:4a:f0:ce:60:af:a0:00:cf:60:9b:1d:78:c6:a2:78:c7:ea:
         19:7c:a6:5a:85:fa:1e:1f:f3:ea:17:7e:b5:d6:5d:75:a3:ce:
         d4:95:a2:82
-----BEGIN CERTIFICATE-----
MIIDWjCCAkKgAwIBAgIRAJnKkCnZZV3bNOZapgGYR2AwDQYJKoZIhvcNAQELBQAw
FTETMBEGA1UEAwwKdGVhbTE2LW5ldDAeFw0yMjA4MDkxODUyMzhaFw0yNTA3MjQx
ODUyMzhaMBgxFjAUBgNVBAMMDXRlYW0xNi1jbGllbnQwggEiMA0GCSqGSIb3DQEB
AQUAA4IBDwAwggEKAoIBAQDUkeDcAUbRhVGpzuPj9KREHHnI2vcCYsxsutJdPipY
Akx8pCyonYllnHV6vUup80gCgXlBWMuZIdl8WCAo3L9WrFrMbyFAvdBrgxtGx/C7
M4QqVO+AqZsop98hXqd8ejEuRw+Iz8ENKH21nOHT+aaxmV29gQBB4+LzOjWqmemP
IXaV8CvHoE6gLXTITCtmvmVszVzzgQ84ft6UkWtPoesaNfq3PfL6Cci7QoHIvDjt
Az/2BHascZknpjInVX/ixHN9J0LBa6vWuja8tksoWHoxE5qc00T1UnDGuElVFltD
U4ex+hLztIXXS6F5Y2F4F5/cPfkVlkNkHvqIJLJCacXNAgMBAAGjgaEwgZ4wCQYD
VR0TBAIwADAdBgNVHQ4EFgQURgxHRFmcqGMVYIv4lPNxh9KAcRwwUAYDVR0jBEkw
R4AUmeBq5XRT5F1suevj8XhdfsMYPlShGaQXMBUxEzARBgNVBAMMCnRlYW0xNi1u
ZXSCFANbAYkSpFdEkPPIV/BMeuk4ycAnMBMGA1UdJQQMMAoGCCsGAQUFBwMCMAsG
A1UdDwQEAwIHgDANBgkqhkiG9w0BAQsFAAOCAQEAo/0SACETJS7YAwQlTxYiIfDs
DdaoL/+KPURWhemPctXiYyBHdwRMRAQFD5FyeUbgZpDdW9FuWa/If3JtCNIQHnHS
KqiZesjdiY5h4ZiLlkkz3mZLraH6P3RizaFzQvhw4WCQPyTjptOl5ou+LeN3SRu+
027YzNAvMgq7P8IsHb9O8VNP/Jcv6aV0Qwd7pJbI6qQfRm3EI2Z6O7MQnbtY757t
s/FcKLAi2SToXQu2bUQDgHw6GgnI9dD9Q57grUFN8wBlLn6ezFueRkU7eHQn3A0V
XoTd22WK8krwzmCvoADPYJsdeMaieMfqGXymWoX6Hh/z6hd+tdZddaPO1JWigg==
-----END CERTIFICATE-----
