Certificate:
    Data:
        Version: 3 (0x2)
        Serial Number:
            9e:3c:69:82:33:4f:8b:42:73:37:fc:ee:cd:dc:fa:05
        Signature Algorithm: sha256WithRSAEncryption
        Issuer: CN=team14-net
        Validity
            Not Before: Aug  9 00:11:36 2022 GMT
            Not After : Jul 24 00:11:36 2025 GMT
        Subject: CN=team14-client
        Subject Public Key Info:
            Public Key Algorithm: rsaEncryption
                RSA Public-Key: (2048 bit)
                Modulus:
                    00:91:15:b4:65:fa:96:21:11:72:e6:5c:26:83:8e:
                    ae:2b:4e:0c:4c:67:60:cd:29:78:52:13:1f:4a:67:
                    c3:68:6a:93:ff:fb:96:4f:71:1a:d9:33:75:0f:81:
                    8b:21:63:88:3c:2f:a3:5c:54:e0:04:67:bf:a1:a1:
                    45:ed:6a:d3:3d:4f:90:ce:7b:6b:52:23:c9:27:de:
                    21:4f:59:c9:38:46:80:61:af:b9:2e:d5:ef:bc:b2:
                    57:03:03:a6:6a:24:8a:5a:5d:5a:4f:b4:8c:47:76:
                    63:66:f6:fa:3b:b6:f2:df:d0:f9:1e:24:cc:24:bf:
                    6e:a1:00:30:3e:5d:dd:c2:5b:32:30:4b:3e:1b:00:
                    06:e0:f4:9b:29:66:21:d0:66:7b:7d:33:11:80:00:
                    84:49:91:c0:65:fa:1a:db:4d:70:64:88:00:a0:42:
                    fa:36:3c:b6:47:d3:39:2b:62:0a:23:db:46:7e:0a:
                    08:a8:88:25:dd:8b:24:da:10:bc:55:aa:d4:bb:c9:
                    d1:7d:6a:ae:c5:56:e3:8c:65:68:ff:19:8a:c7:b5:
                    bd:fb:94:57:a3:bb:e9:bc:17:23:95:c1:d2:52:dd:
                    10:a1:b8:f5:0e:46:25:15:be:46:10:c8:48:f2:32:
                    47:55:ae:90:09:d0:2a:40:6a:24:a1:7e:be:4a:af:
                    95:a3
                Exponent: 65537 (0x10001)
        X509v3 extensions:
            X509v3 Basic Constraints: 
                CA:FALSE
            X509v3 Subject Key Identifier: 
                11:A1:53:A9:1A:AD:A6:C4:1D:DC:FA:8E:04:3D:8F:6A:38:D9:48:CC
            X509v3 Authority Key Identifier: 
                keyid:79:8F:27:3C:D8:FE:A4:F8:42:1F:2C:1E:80:C0:5D:11:E1:2A:60:EB
                DirName:/CN=team14-net
                serial:3A:37:AB:3D:A5:3F:CC:87:81:6C:38:A1:5B:91:CC:A2:91:27:76:DD

            X509v3 Extended Key Usage: 
                TLS Web Client Authentication
            X509v3 Key Usage: 
                Digital Signature
    Signature Algorithm: sha256WithRSAEncryption
         b2:eb:42:e0:33:e8:07:b3:72:27:ab:a7:23:bc:67:1d:cd:b7:
         c1:58:d6:9f:d9:ca:89:84:4d:99:be:f2:d7:f8:ad:c3:40:49:
         1c:94:ab:aa:c6:65:27:27:5d:aa:18:34:80:28:0a:2a:07:d6:
         84:74:6e:a4:71:9e:97:69:c0:3f:ee:9b:0d:98:c0:70:20:8f:
         1c:b6:cb:20:bb:28:4e:05:6a:3a:5f:05:17:9a:b7:dd:4d:69:
         c6:39:3a:b6:5c:e2:8d:51:47:b7:66:60:8c:ce:16:c2:ff:fd:
         ea:21:99:03:7e:bb:3c:a2:29:9e:c0:e2:63:c5:2b:3c:67:b0:
         24:39:d3:03:b6:ae:ae:4f:ca:e6:dc:7c:40:fb:1f:f7:03:1d:
         24:f8:4a:99:84:1f:84:7e:a5:a4:15:0f:85:e8:12:bc:9a:f0:
         a1:9a:6a:43:82:f2:b3:48:b0:8d:21:42:41:90:ce:21:7e:96:
         cb:c6:21:8b:f3:ba:14:1d:a2:b1:3a:c8:2e:73:35:d7:0a:5f:
         fa:66:46:03:4e:85:54:8e:8d:72:8a:79:6c:93:1e:c4:d6:a1:
         fb:78:a9:05:6c:0d:f5:27:ba:05:3d:5e:c6:67:31:88:80:fe:
         c1:b6:03:5d:bc:79:9d:2b:f0:4a:5f:34:d3:d0:ab:b5:59:97:
         a6:80:c7:f6
-----BEGIN CERTIFICATE-----
MIIDWjCCAkKgAwIBAgIRAJ48aYIzT4tCczf87s3c+gUwDQYJKoZIhvcNAQELBQAw
FTETMBEGA1UEAwwKdGVhbTE0LW5ldDAeFw0yMjA4MDkwMDExMzZaFw0yNTA3MjQw
MDExMzZaMBgxFjAUBgNVBAMMDXRlYW0xNC1jbGllbnQwggEiMA0GCSqGSIb3DQEB
AQUAA4IBDwAwggEKAoIBAQCRFbRl+pYhEXLmXCaDjq4rTgxMZ2DNKXhSEx9KZ8No
apP/+5ZPcRrZM3UPgYshY4g8L6NcVOAEZ7+hoUXtatM9T5DOe2tSI8kn3iFPWck4
RoBhr7ku1e+8slcDA6ZqJIpaXVpPtIxHdmNm9vo7tvLf0PkeJMwkv26hADA+Xd3C
WzIwSz4bAAbg9JspZiHQZnt9MxGAAIRJkcBl+hrbTXBkiACgQvo2PLZH0zkrYgoj
20Z+CgioiCXdiyTaELxVqtS7ydF9aq7FVuOMZWj/GYrHtb37lFeju+m8FyOVwdJS
3RChuPUORiUVvkYQyEjyMkdVrpAJ0CpAaiShfr5Kr5WjAgMBAAGjgaEwgZ4wCQYD
VR0TBAIwADAdBgNVHQ4EFgQUEaFTqRqtpsQd3PqOBD2PajjZSMwwUAYDVR0jBEkw
R4AUeY8nPNj+pPhCHywegMBdEeEqYOuhGaQXMBUxEzARBgNVBAMMCnRlYW0xNC1u
ZXSCFDo3qz2lP8yHgWw4oVuRzKKRJ3bdMBMGA1UdJQQMMAoGCCsGAQUFBwMCMAsG
A1UdDwQEAwIHgDANBgkqhkiG9w0BAQsFAAOCAQEAsutC4DPoB7NyJ6unI7xnHc23
wVjWn9nKiYRNmb7y1/itw0BJHJSrqsZlJyddqhg0gCgKKgfWhHRupHGel2nAP+6b
DZjAcCCPHLbLILsoTgVqOl8FF5q33U1pxjk6tlzijVFHt2ZgjM4Wwv/96iGZA367
PKIpnsDiY8UrPGewJDnTA7aurk/K5tx8QPsf9wMdJPhKmYQfhH6lpBUPhegSvJrw
oZpqQ4Lys0iwjSFCQZDOIX6Wy8Yhi/O6FB2isTrILnM11wpf+mZGA06FVI6Ncop5
bJMexNah+3ipBWwN9Se6BT1exmcxiID+wbYDXbx5nSvwSl8009CrtVmXpoDH9g==
-----END CERTIFICATE-----
