Certificate:
    Data:
        Version: 3 (0x2)
        Serial Number:
            39:c7:fe:0e:4e:14:4f:58:91:1b:37:4a:c1:7a:68:ec
        Signature Algorithm: sha256WithRSAEncryption
        Issuer: CN=team14-net
        Validity
            Not Before: Aug  9 00:11:36 2022 GMT
            Not After : Jul 24 00:11:36 2025 GMT
        Subject: CN=team14-server
        Subject Public Key Info:
            Public Key Algorithm: rsaEncryption
                RSA Public-Key: (2048 bit)
                Modulus:
                    00:f6:2d:c0:13:3e:52:df:51:f1:08:29:24:f3:49:
                    bb:38:fd:51:ba:dd:87:27:c8:88:4f:64:d2:ee:77:
                    a7:67:f6:43:0c:11:4a:4e:9d:20:42:b9:66:61:5b:
                    5e:8c:60:f3:69:8a:26:3b:da:22:cc:33:75:9a:34:
                    1c:3a:0d:3c:05:fd:1a:13:d3:cf:d9:dc:a6:c4:1f:
                    7e:bf:6a:b4:a3:ea:06:05:64:b4:e8:d7:7a:14:e1:
                    66:d3:fc:30:9a:f8:6f:2c:9d:77:23:b2:3c:33:80:
                    1e:ef:f6:b7:61:1e:3c:4f:6a:35:7d:dc:67:8f:bf:
                    5a:41:c8:4a:44:21:78:04:3f:f1:11:66:e4:06:fb:
                    6e:82:be:ec:c6:0c:17:45:80:f0:a1:f4:20:7a:91:
                    fc:d0:b4:33:cc:11:66:c1:bc:11:50:d4:6c:1c:a4:
                    85:70:c2:50:c7:25:ae:cb:66:55:0f:d8:df:38:c2:
                    3f:45:1b:62:58:fe:0f:0a:0d:7b:b0:c8:c7:3c:bd:
                    97:2c:9f:0f:60:cc:ab:22:22:3d:f9:ea:6f:4a:6a:
                    5a:f1:86:76:b9:41:5a:9c:8f:6e:7e:ad:3c:d2:90:
                    fa:a3:ab:96:de:e9:46:28:22:bf:57:a2:28:46:43:
                    f0:37:fa:6e:7b:99:f5:f2:df:4f:30:44:65:89:19:
                    18:df
                Exponent: 65537 (0x10001)
        X509v3 extensions:
            X509v3 Basic Constraints: 
                CA:FALSE
            X509v3 Subject Key Identifier: 
                3E:5B:42:F7:F4:FF:26:5D:41:76:EB:56:72:D7:E9:45:41:19:E3:80
            X509v3 Authority Key Identifier: 
                keyid:79:8F:27:3C:D8:FE:A4:F8:42:1F:2C:1E:80:C0:5D:11:E1:2A:60:EB
                DirName:/CN=team14-net
                serial:3A:37:AB:3D:A5:3F:CC:87:81:6C:38:A1:5B:91:CC:A2:91:27:76:DD

            X509v3 Extended Key Usage: 
                TLS Web Server Authentication
            X509v3 Key Usage: 
                Digital Signature, Key Encipherment
            X509v3 Subject Alternative Name: 
                DNS:team14-server
    Signature Algorithm: sha256WithRSAEncryption
         06:95:ee:4a:8e:fa:c1:30:93:2e:c7:68:2b:d5:ba:b3:cd:3a:
         5f:e9:61:28:29:8f:be:ab:d9:59:14:93:1a:44:11:46:5e:26:
         db:6e:81:79:73:f4:ce:d6:ae:c0:c1:14:d2:05:25:f7:49:f4:
         77:16:f0:20:80:7c:1d:e7:3c:f6:4f:89:89:87:b2:cf:75:3d:
         1c:1f:04:09:e0:66:df:4c:37:a0:09:1f:8b:7a:d4:3a:d7:42:
         e5:38:01:d2:51:15:4f:78:25:11:95:65:df:a2:92:31:f9:61:
         9b:3b:36:ab:64:d4:b5:cb:ed:d4:4d:d1:04:19:22:90:45:13:
         41:a5:01:0c:8b:74:1c:c3:98:10:92:9f:3a:3f:9d:16:94:6b:
         16:0c:a2:47:e0:67:85:66:c8:17:08:1e:b6:86:15:7c:70:e3:
         dd:61:ec:9b:d2:a2:8c:ab:ef:cc:87:d5:f2:35:df:1c:5f:31:
         1b:7c:45:72:ab:cd:66:9a:76:93:0d:f6:11:af:e7:d5:3a:84:
         6a:79:a5:43:05:a2:d4:58:60:35:f6:17:cc:3b:db:a2:c4:d5:
         07:34:c1:cd:a1:04:1d:ce:fa:f6:24:3e:26:4d:61:ad:95:b7:
         5e:8d:eb:ef:95:06:1f:9a:ca:1e:13:66:70:5f:a7:32:ec:2d:
         20:8e:2d:94
-----BEGIN CERTIFICATE-----
MIIDczCCAlugAwIBAgIQOcf+Dk4UT1iRGzdKwXpo7DANBgkqhkiG9w0BAQsFADAV
MRMwEQYDVQQDDAp0ZWFtMTQtbmV0MB4XDTIyMDgwOTAwMTEzNloXDTI1MDcyNDAw
MTEzNlowGDEWMBQGA1UEAwwNdGVhbTE0LXNlcnZlcjCCASIwDQYJKoZIhvcNAQEB
BQADggEPADCCAQoCggEBAPYtwBM+Ut9R8QgpJPNJuzj9UbrdhyfIiE9k0u53p2f2
QwwRSk6dIEK5ZmFbXoxg82mKJjvaIswzdZo0HDoNPAX9GhPTz9ncpsQffr9qtKPq
BgVktOjXehThZtP8MJr4byyddyOyPDOAHu/2t2EePE9qNX3cZ4+/WkHISkQheAQ/
8RFm5Ab7boK+7MYMF0WA8KH0IHqR/NC0M8wRZsG8EVDUbBykhXDCUMclrstmVQ/Y
3zjCP0UbYlj+DwoNe7DIxzy9lyyfD2DMqyIiPfnqb0pqWvGGdrlBWpyPbn6tPNKQ
+qOrlt7pRigiv1eiKEZD8Df6bnuZ9fLfTzBEZYkZGN8CAwEAAaOBuzCBuDAJBgNV
HRMEAjAAMB0GA1UdDgQWBBQ+W0L39P8mXUF261Zy1+lFQRnjgDBQBgNVHSMESTBH
gBR5jyc82P6k+EIfLB6AwF0R4Spg66EZpBcwFTETMBEGA1UEAwwKdGVhbTE0LW5l
dIIUOjerPaU/zIeBbDihW5HMopEndt0wEwYDVR0lBAwwCgYIKwYBBQUHAwEwCwYD
VR0PBAQDAgWgMBgGA1UdEQQRMA+CDXRlYW0xNC1zZXJ2ZXIwDQYJKoZIhvcNAQEL
BQADggEBAAaV7kqO+sEwky7HaCvVurPNOl/pYSgpj76r2VkUkxpEEUZeJttugXlz
9M7WrsDBFNIFJfdJ9HcW8CCAfB3nPPZPiYmHss91PRwfBAngZt9MN6AJH4t61DrX
QuU4AdJRFU94JRGVZd+ikjH5YZs7Nqtk1LXL7dRN0QQZIpBFE0GlAQyLdBzDmBCS
nzo/nRaUaxYMokfgZ4VmyBcIHraGFXxw491h7JvSooyr78yH1fI13xxfMRt8RXKr
zWaadpMN9hGv59U6hGp5pUMFotRYYDX2F8w726LE1Qc0wc2hBB3O+vYkPiZNYa2V
t16N6++VBh+ayh4TZnBfpzLsLSCOLZQ=
-----END CERTIFICATE-----
