Certificate:
    Data:
        Version: 3 (0x2)
        Serial Number:
            2e:12:1c:a4:0f:e3:e2:ad:db:40:67:1b:30:c8:75:76
        Signature Algorithm: sha256WithRSAEncryption
        Issuer: CN=team12-net
        Validity
            Not Before: Aug  9 18:52:35 2022 GMT
            Not After : Jul 24 18:52:35 2025 GMT
        Subject: CN=team12-server
        Subject Public Key Info:
            Public Key Algorithm: rsaEncryption
                RSA Public-Key: (2048 bit)
                Modulus:
                    00:c6:a5:89:08:48:e6:2a:ed:3d:ec:52:af:76:1d:
                    36:73:51:60:aa:db:3f:01:cd:d7:a8:c3:07:a4:89:
                    3e:a9:7f:d1:0b:79:01:d3:6e:d1:1c:c6:b8:7f:db:
                    26:8c:f9:1a:35:c7:73:da:a1:57:3f:c1:bf:73:c2:
                    62:e6:c5:e6:0f:af:de:55:ed:0e:7a:46:1b:65:39:
                    ed:40:be:0a:e7:ed:03:36:7d:2f:a7:68:4f:d3:f2:
                    1a:8b:a0:5d:ac:03:02:61:54:a6:37:ff:cc:bb:d8:
                    8a:f0:52:26:08:34:4f:39:85:d0:b6:c5:be:50:74:
                    ca:f6:f8:79:3d:d8:20:68:45:32:57:d6:1f:47:ce:
                    e7:3b:8f:38:4c:3a:0b:2b:70:03:1f:b3:e0:0d:cb:
                    c7:75:1d:d9:ee:77:7e:41:3b:ef:a0:d9:cd:15:b0:
                    de:a7:fa:0c:ad:7b:61:d7:7e:00:fb:79:71:9f:ea:
                    87:fc:28:33:ee:6b:23:c3:30:e9:00:53:1c:c9:d9:
                    74:e6:c5:dd:2a:8e:d3:ed:b4:54:db:a5:52:73:8b:
                    55:d2:08:cc:b7:db:56:bc:a5:ad:7b:5a:13:ff:2b:
                    e7:b1:43:f5:7f:8c:16:36:24:41:56:f5:1a:49:5c:
                    07:8e:50:21:9a:28:de:10:05:c6:38:c4:d9:a3:ef:
                    c9:9b
                Exponent: 65537 (0x10001)
        X509v3 extensions:
            X509v3 Basic Constraints: 
                CA:FALSE
            X509v3 Subject Key Identifier: 
                44:EB:EA:46:8D:5E:3D:BF:C4:9E:D7:4D:0B:65:FC:BC:E9:1C:65:90
            X509v3 Authority Key Identifier: 
                keyid:98:60:A4:68:58:3C:CB:2F:E3:68:32:F9:F3:35:7E:04:BF:33:23:D2
                DirName:/CN=team12-net
                serial:77:45:A9:0B:49:A3:CF:3E:C4:F3:49:82:96:15:CC:44:09:DD:C1:A5

            X509v3 Extended Key Usage: 
                TLS Web Server Authentication
            X509v3 Key Usage: 
                Digital Signature, Key Encipherment
            X509v3 Subject Alternative Name: 
                DNS:team12-server
    Signature Algorithm: sha256WithRSAEncryption
         29:fe:d3:a7:17:3c:8a:eb:58:b2:94:82:40:91:1f:a0:c3:72:
         23:59:27:5e:b9:cb:bd:49:36:d8:7d:62:0c:58:0d:60:ac:d1:
         03:cb:e7:f7:0a:83:75:58:49:78:45:71:77:54:80:55:65:6c:
         1a:96:7e:ef:c6:8d:4f:c3:40:26:d3:9d:62:b6:51:61:02:2d:
         fb:d4:4b:f2:8b:55:a9:04:c1:04:c4:89:cf:69:42:98:ac:a8:
         07:af:68:a9:7b:bf:f5:04:cf:ea:71:d4:6e:cd:85:8b:1a:96:
         b5:8d:d1:30:78:56:b0:9c:2a:57:a2:18:80:6a:b0:fb:f1:37:
         a2:78:29:6d:3d:f3:50:7f:71:11:30:36:fe:9b:62:dd:4d:b7:
         e5:54:8b:93:38:e3:88:b8:a4:17:43:34:21:9c:86:c1:e8:fc:
         01:4d:46:3f:75:b5:07:13:d3:a1:50:6c:44:4b:a5:8f:15:da:
         03:82:81:38:e8:37:d2:0c:2c:2e:06:d0:ed:38:c8:73:d3:25:
         0f:c7:48:41:bd:84:07:eb:2e:e7:c2:62:88:bd:b1:41:0d:b4:
         41:d4:b2:d0:d9:66:89:2b:39:96:d7:8e:6a:51:4a:d1:17:22:
         80:fc:aa:90:83:18:dd:1a:57:f6:86:1a:73:08:c1:78:2d:a5:
         28:d6:ba:2d
-----BEGIN CERTIFICATE-----
MIIDczCCAlugAwIBAgIQLhIcpA/j4q3bQGcbMMh1djANBgkqhkiG9w0BAQsFADAV
MRMwEQYDVQQDDAp0ZWFtMTItbmV0MB4XDTIyMDgwOTE4NTIzNVoXDTI1MDcyNDE4
NTIzNVowGDEWMBQGA1UEAwwNdGVhbTEyLXNlcnZlcjCCASIwDQYJKoZIhvcNAQEB
BQADggEPADCCAQoCggEBAMaliQhI5irtPexSr3YdNnNRYKrbPwHN16jDB6SJPql/
0Qt5AdNu0RzGuH/bJoz5GjXHc9qhVz/Bv3PCYubF5g+v3lXtDnpGG2U57UC+Cuft
AzZ9L6doT9PyGougXawDAmFUpjf/zLvYivBSJgg0TzmF0LbFvlB0yvb4eT3YIGhF
MlfWH0fO5zuPOEw6CytwAx+z4A3Lx3Ud2e53fkE776DZzRWw3qf6DK17Ydd+APt5
cZ/qh/woM+5rI8Mw6QBTHMnZdObF3SqO0+20VNulUnOLVdIIzLfbVrylrXtaE/8r
57FD9X+MFjYkQVb1GklcB45QIZoo3hAFxjjE2aPvyZsCAwEAAaOBuzCBuDAJBgNV
HRMEAjAAMB0GA1UdDgQWBBRE6+pGjV49v8Se100LZfy86RxlkDBQBgNVHSMESTBH
gBSYYKRoWDzLL+NoMvnzNX4EvzMj0qEZpBcwFTETMBEGA1UEAwwKdGVhbTEyLW5l
dIIUd0WpC0mjzz7E80mClhXMRAndwaUwEwYDVR0lBAwwCgYIKwYBBQUHAwEwCwYD
VR0PBAQDAgWgMBgGA1UdEQQRMA+CDXRlYW0xMi1zZXJ2ZXIwDQYJKoZIhvcNAQEL
BQADggEBACn+06cXPIrrWLKUgkCRH6DDciNZJ165y71JNth9YgxYDWCs0QPL5/cK
g3VYSXhFcXdUgFVlbBqWfu/GjU/DQCbTnWK2UWECLfvUS/KLVakEwQTEic9pQpis
qAevaKl7v/UEz+px1G7NhYsalrWN0TB4VrCcKleiGIBqsPvxN6J4KW0981B/cREw
Nv6bYt1Nt+VUi5M444i4pBdDNCGchsHo/AFNRj91tQcT06FQbERLpY8V2gOCgTjo
N9IMLC4G0O04yHPTJQ/HSEG9hAfrLufCYoi9sUENtEHUstDZZokrOZbXjmpRStEX
IoD8qpCDGN0aV/aGGnMIwXgtpSjWui0=
-----END CERTIFICATE-----
