Certificate:
    Data:
        Version: 3 (0x2)
        Serial Number:
            5e:f8:35:44:b2:d5:52:8f:2a:fc:11:67:d3:6d:37:e1
        Signature Algorithm: sha256WithRSAEncryption
        Issuer: CN=team12-net
        Validity
            Not Before: Aug  9 18:52:35 2022 GMT
            Not After : Jul 24 18:52:35 2025 GMT
        Subject: CN=team12-client
        Subject Public Key Info:
            Public Key Algorithm: rsaEncryption
                RSA Public-Key: (2048 bit)
                Modulus:
                    00:c8:12:b4:8d:a2:e2:d8:19:57:2f:fa:74:46:ff:
                    4e:8f:d2:29:eb:be:b8:6f:72:4c:2a:78:fd:7b:69:
                    f1:45:ec:a0:97:3e:ad:b7:66:45:fc:85:13:7d:a2:
                    42:92:39:fd:86:3c:84:b4:2c:85:96:a4:f4:45:15:
                    1c:d4:83:da:40:8c:ee:f4:5e:68:a7:45:7a:4f:79:
                    18:26:d1:f6:d4:4c:de:a0:36:26:d1:40:6e:c2:e7:
                    cf:7d:03:75:24:db:9f:e4:04:55:1b:54:4f:d2:90:
                    d9:02:99:83:77:bc:62:ea:e1:45:39:3a:69:31:84:
                    f2:f9:2e:fe:eb:e7:07:58:7b:48:1d:d8:8c:c4:c4:
                    28:97:2c:81:22:bc:33:8a:3d:df:a9:d5:3a:6b:5f:
                    6d:f0:c7:36:55:7c:bf:cc:18:25:bc:ed:e3:e3:1d:
                    55:74:02:f5:cc:aa:10:4e:d0:98:20:be:a3:5f:c1:
                    62:31:a7:9c:c2:6c:ba:a0:74:6f:7d:b2:75:76:61:
                    8a:40:ac:b5:b8:3a:dc:2d:2c:f5:39:81:22:a3:10:
                    60:61:7c:d9:8c:15:6e:14:5c:28:47:9a:57:20:8c:
                    83:2e:50:01:b8:cf:fe:ef:ce:9a:83:63:69:81:dd:
                    de:c1:a5:d5:a7:80:5f:f6:cc:77:cf:87:98:2a:75:
                    ab:81
                Exponent: 65537 (0x10001)
        X509v3 extensions:
            X509v3 Basic Constraints: 
                CA:FALSE
            X509v3 Subject Key Identifier: 
                3A:CD:83:F2:DC:3E:3B:D8:C9:25:6E:3F:B1:0E:74:C0:AD:EA:01:98
            X509v3 Authority Key Identifier: 
                keyid:98:60:A4:68:58:3C:CB:2F:E3:68:32:F9:F3:35:7E:04:BF:33:23:D2
                DirName:/CN=team12-net
                serial:77:45:A9:0B:49:A3:CF:3E:C4:F3:49:82:96:15:CC:44:09:DD:C1:A5

            X509v3 Extended Key Usage: 
                TLS Web Client Authentication
            X509v3 Key Usage: 
                Digital Signature
    Signature Algorithm: sha256WithRSAEncryption
         06:ac:e0:7e:f2:f9:95:95:17:6c:1a:2f:92:ef:44:79:22:04:
         e5:17:c2:22:3e:51:8a:b3:87:2b:c4:ce:21:79:67:b7:e4:4c:
         98:c2:10:06:a3:89:25:bc:8d:5c:d4:ff:80:96:99:f5:ea:0b:
         53:eb:93:50:9c:24:a7:7f:43:6d:86:ba:61:87:ee:1b:21:68:
         1d:7a:8f:37:2f:ff:59:0b:fa:18:c2:37:31:22:02:41:b3:eb:
         35:19:e9:86:09:17:18:38:22:b3:76:fb:b2:87:a0:6f:d8:4d:
         9b:c1:3d:b9:fe:02:71:e8:89:fe:19:23:2d:10:9a:34:d3:3c:
         00:3a:1a:f6:af:57:ea:e6:c5:46:72:b0:06:82:f4:cc:d7:b1:
         bf:5c:24:3c:54:8c:e9:d0:a4:79:ea:ff:79:0f:5f:81:1a:ba:
         b4:a6:7b:93:83:1f:fb:04:06:09:a6:81:c6:03:a0:7b:c7:a3:
         cf:d0:21:00:a5:b3:fe:0e:d6:37:c1:84:4c:32:dc:7f:c8:73:
         ff:35:05:74:51:0f:b1:20:2e:ef:2d:f9:30:a8:95:f7:89:24:
         8c:ca:93:6c:43:4e:e1:9e:3d:aa:7a:ab:48:11:dd:a3:c0:3f:
         f3:39:9d:1f:20:9a:9f:ac:24:cc:00:dd:83:6b:8a:fa:79:59:
         af:1f:15:10
-----BEGIN CERTIFICATE-----
MIIDWTCCAkGgAwIBAgIQXvg1RLLVUo8q/BFn02034TANBgkqhkiG9w0BAQsFADAV
MRMwEQYDVQQDDAp0ZWFtMTItbmV0MB4XDTIyMDgwOTE4NTIzNVoXDTI1MDcyNDE4
NTIzNVowGDEWMBQGA1UEAwwNdGVhbTEyLWNsaWVudDCCASIwDQYJKoZIhvcNAQEB
BQADggEPADCCAQoCggEBAMgStI2i4tgZVy/6dEb/To/SKeu+uG9yTCp4/Xtp8UXs
oJc+rbdmRfyFE32iQpI5/YY8hLQshZak9EUVHNSD2kCM7vReaKdFek95GCbR9tRM
3qA2JtFAbsLnz30DdSTbn+QEVRtUT9KQ2QKZg3e8YurhRTk6aTGE8vku/uvnB1h7
SB3YjMTEKJcsgSK8M4o936nVOmtfbfDHNlV8v8wYJbzt4+MdVXQC9cyqEE7QmCC+
o1/BYjGnnMJsuqB0b32ydXZhikCstbg63C0s9TmBIqMQYGF82YwVbhRcKEeaVyCM
gy5QAbjP/u/OmoNjaYHd3sGl1aeAX/bMd8+HmCp1q4ECAwEAAaOBoTCBnjAJBgNV
HRMEAjAAMB0GA1UdDgQWBBQ6zYPy3D472Mklbj+xDnTAreoBmDBQBgNVHSMESTBH
gBSYYKRoWDzLL+NoMvnzNX4EvzMj0qEZpBcwFTETMBEGA1UEAwwKdGVhbTEyLW5l
dIIUd0WpC0mjzz7E80mClhXMRAndwaUwEwYDVR0lBAwwCgYIKwYBBQUHAwIwCwYD
VR0PBAQDAgeAMA0GCSqGSIb3DQEBCwUAA4IBAQAGrOB+8vmVlRdsGi+S70R5IgTl
F8IiPlGKs4crxM4heWe35EyYwhAGo4klvI1c1P+Alpn16gtT65NQnCSnf0Nthrph
h+4bIWgdeo83L/9ZC/oYwjcxIgJBs+s1GemGCRcYOCKzdvuyh6Bv2E2bwT25/gJx
6In+GSMtEJo00zwAOhr2r1fq5sVGcrAGgvTM17G/XCQ8VIzp0KR56v95D1+BGrq0
pnuTgx/7BAYJpoHGA6B7x6PP0CEApbP+DtY3wYRMMtx/yHP/NQV0UQ+xIC7vLfkw
qJX3iSSMypNsQ07hnj2qeqtIEd2jwD/zOZ0fIJqfrCTMAN2Da4r6eVmvHxUQ
-----END CERTIFICATE-----
