Certificate:
    Data:
        Version: 3 (0x2)
        Serial Number:
            af:5e:3c:87:fa:c5:27:67:26:98:ab:4d:35:32:cf:c3
        Signature Algorithm: sha256WithRSAEncryption
        Issuer: CN=team11-net
        Validity
            Not Before: Aug  9 00:11:33 2022 GMT
            Not After : Jul 24 00:11:33 2025 GMT
        Subject: CN=team11-client
        Subject Public Key Info:
            Public Key Algorithm: rsaEncryption
                RSA Public-Key: (2048 bit)
                Modulus:
                    00:93:94:aa:ad:00:c8:65:21:5c:0d:f4:a4:68:73:
                    40:5b:c1:64:a8:51:8b:af:f7:b3:92:97:d4:88:b0:
                    63:64:35:57:7c:09:75:b7:3b:f6:2b:a7:2c:59:4d:
                    bf:ad:8c:fa:40:c2:1b:46:77:d1:f7:d3:82:0d:17:
                    1d:04:c0:64:fc:48:f1:e9:46:3a:e7:ec:a5:6b:be:
                    ba:23:d4:9b:55:06:f5:a0:be:8c:7c:df:6f:ef:c9:
                    13:04:4e:a2:f0:87:d4:77:01:8e:dd:31:bb:85:06:
                    0d:00:f0:ca:6b:3a:c5:8a:d9:01:7e:f7:84:cd:1a:
                    2d:1e:11:ec:9c:7d:b2:56:dd:4e:b2:29:97:ed:29:
                    8e:b6:4c:7d:cd:1a:02:e7:38:a7:72:e6:e7:7e:32:
                    bb:19:de:bf:74:bd:49:3f:4d:33:f2:df:ef:9b:c2:
                    32:e0:8c:c4:ac:20:f5:09:d6:f6:8f:60:5d:80:e7:
                    3e:43:25:10:99:7f:3f:6a:c9:3a:fa:5e:49:f8:26:
                    eb:14:47:95:eb:07:8c:83:6e:db:c8:f7:48:89:91:
                    7f:36:0f:3d:92:b4:07:a4:a8:04:62:e4:d1:0a:8f:
                    c0:87:31:53:84:1c:26:47:68:98:60:c5:c7:bd:3e:
                    76:a6:61:ac:5b:52:ff:67:7f:fc:89:07:c0:80:0d:
                    04:e3
                Exponent: 65537 (0x10001)
        X509v3 extensions:
            X509v3 Basic Constraints: 
                CA:FALSE
            X509v3 Subject Key Identifier: 
                51:69:FD:EC:E9:57:CE:DA:99:84:86:87:06:60:C1:93:3F:0A:54:EE
            X509v3 Authority Key Identifier: 
                keyid:D6:19:B2:05:BC:9E:9A:01:2B:B3:9F:57:6C:DB:71:5A:50:24:8F:57
                DirName:/CN=team11-net
                serial:1B:AB:84:16:98:B9:D7:94:1D:4C:CC:F5:D2:50:DE:AD:F2:B2:46:77

            X509v3 Extended Key Usage: 
                TLS Web Client Authentication
            X509v3 Key Usage: 
                Digital Signature
    Signature Algorithm: sha256WithRSAEncryption
         7b:af:45:8b:4b:eb:02:9a:38:82:2f:aa:58:13:3b:a2:89:45:
         06:4e:21:a1:21:28:6d:a7:7d:99:60:e8:78:37:c6:90:e6:37:
         ad:a9:34:27:c6:c2:cc:77:ce:de:2e:40:fb:52:25:d3:b9:df:
         ed:0b:8e:38:5e:44:e7:25:f4:e1:08:72:59:db:b2:db:e8:03:
         e7:73:71:b7:68:db:27:fa:d7:11:f8:1a:db:ea:50:c7:39:2e:
         b4:51:65:12:1c:81:f5:d9:25:9b:3d:61:a5:33:fc:b7:1b:59:
         ad:68:e1:6d:6f:f4:a9:58:6b:b9:e6:a2:2f:90:21:ed:5c:ef:
         8a:1d:4d:89:db:20:6c:d7:65:84:f3:a9:7e:56:62:de:56:97:
         da:61:67:1a:d9:b2:3b:16:0a:02:19:65:6f:82:ff:0a:7c:b2:
         24:7b:79:c1:30:02:e5:a5:5a:f8:1d:0b:11:aa:58:29:8a:4d:
         7f:32:d8:64:af:e7:57:b3:9c:25:4a:4b:b7:08:f9:34:0e:ef:
         2c:16:be:ed:00:89:37:da:78:b7:da:2a:40:4f:4b:e8:22:12:
         09:e9:ee:1c:dd:e8:3b:ee:4a:1a:26:8f:6b:33:d8:00:a2:ff:
         86:c4:a2:b9:50:27:d5:8a:7b:c9:be:6c:85:bc:1a:6f:ba:e5:
         1e:22:ac:1f
-----BEGIN CERTIFICATE-----
MIIDWjCCAkKgAwIBAgIRAK9ePIf6xSdnJpirTTUyz8MwDQYJKoZIhvcNAQELBQAw
FTETMBEGA1UEAwwKdGVhbTExLW5ldDAeFw0yMjA4MDkwMDExMzNaFw0yNTA3MjQw
MDExMzNaMBgxFjAUBgNVBAMMDXRlYW0xMS1jbGllbnQwggEiMA0GCSqGSIb3DQEB
AQUAA4IBDwAwggEKAoIBAQCTlKqtAMhlIVwN9KRoc0BbwWSoUYuv97OSl9SIsGNk
NVd8CXW3O/YrpyxZTb+tjPpAwhtGd9H304INFx0EwGT8SPHpRjrn7KVrvroj1JtV
BvWgvox832/vyRMETqLwh9R3AY7dMbuFBg0A8MprOsWK2QF+94TNGi0eEeycfbJW
3U6yKZftKY62TH3NGgLnOKdy5ud+MrsZ3r90vUk/TTPy3++bwjLgjMSsIPUJ1vaP
YF2A5z5DJRCZfz9qyTr6Xkn4JusUR5XrB4yDbtvI90iJkX82Dz2StAekqARi5NEK
j8CHMVOEHCZHaJhgxce9PnamYaxbUv9nf/yJB8CADQTjAgMBAAGjgaEwgZ4wCQYD
VR0TBAIwADAdBgNVHQ4EFgQUUWn97OlXztqZhIaHBmDBkz8KVO4wUAYDVR0jBEkw
R4AU1hmyBbyemgErs59XbNtxWlAkj1ehGaQXMBUxEzARBgNVBAMMCnRlYW0xMS1u
ZXSCFBurhBaYudeUHUzM9dJQ3q3yskZ3MBMGA1UdJQQMMAoGCCsGAQUFBwMCMAsG
A1UdDwQEAwIHgDANBgkqhkiG9w0BAQsFAAOCAQEAe69Fi0vrApo4gi+qWBM7oolF
Bk4hoSEobad9mWDoeDfGkOY3rak0J8bCzHfO3i5A+1Il07nf7QuOOF5E5yX04Qhy
Wduy2+gD53Nxt2jbJ/rXEfga2+pQxzkutFFlEhyB9dklmz1hpTP8txtZrWjhbW/0
qVhrueaiL5Ah7Vzvih1NidsgbNdlhPOpflZi3laX2mFnGtmyOxYKAhllb4L/Cnyy
JHt5wTAC5aVa+B0LEapYKYpNfzLYZK/nV7OcJUpLtwj5NA7vLBa+7QCJN9p4t9oq
QE9L6CISCenuHN3oO+5KGiaPazPYAKL/hsSiuVAn1Yp7yb5shbwab7rlHiKsHw==
-----END CERTIFICATE-----
