Certificate:
    Data:
        Version: 3 (0x2)
        Serial Number:
            b3:1c:e1:da:d8:06:c2:54:d6:e8:9b:a1:d0:80:b7:7f
        Signature Algorithm: sha256WithRSAEncryption
        Issuer: CN=team11-net
        Validity
            Not Before: Aug  9 18:52:34 2022 GMT
            Not After : Jul 24 18:52:34 2025 GMT
        Subject: CN=team11-client
        Subject Public Key Info:
            Public Key Algorithm: rsaEncryption
                RSA Public-Key: (2048 bit)
                Modulus:
                    00:c4:7c:cd:f7:4a:c4:ff:ef:e3:eb:c1:62:34:9c:
                    78:5f:fe:ed:97:db:33:11:e2:5e:6c:3b:59:44:cc:
                    f2:48:75:34:05:6d:c2:87:7d:21:31:a0:0c:6d:d1:
                    1f:0d:77:ca:34:c7:d3:1d:09:5f:eb:c0:d2:17:ae:
                    6d:cf:24:a0:72:29:30:3b:41:93:51:78:e3:da:62:
                    5e:b0:eb:fd:a1:9e:63:04:05:c8:86:3f:1e:6a:56:
                    7c:38:36:8f:67:e6:33:00:de:45:f8:91:44:10:7c:
                    e6:4b:79:52:5f:53:ef:02:43:fa:2f:73:b7:a3:91:
                    0d:84:a1:16:26:85:93:e5:67:b2:c7:fc:bd:8b:86:
                    ce:62:fe:e0:83:31:5d:6b:cf:b3:f0:d6:6a:cc:8f:
                    00:8a:f8:1a:c6:17:88:cd:e0:1d:e5:d3:6c:88:45:
                    eb:8a:a5:36:33:ba:ec:d0:48:bd:fe:58:ef:aa:e7:
                    7c:1d:bc:25:9c:3f:da:c0:d5:73:04:30:99:f5:67:
                    2b:35:23:56:79:62:ba:28:3d:4e:73:ae:ec:86:8b:
                    e1:66:3b:68:49:16:17:18:37:50:c3:57:ea:85:9d:
                    14:01:6f:67:b4:9a:22:7a:bf:e7:eb:e2:70:6c:20:
                    21:06:a6:1f:0e:62:eb:5a:fa:db:6b:ad:ab:0d:cb:
                    1f:61
                Exponent: 65537 (0x10001)
        X509v3 extensions:
            X509v3 Basic Constraints: 
                CA:FALSE
            X509v3 Subject Key Identifier: 
                21:71:5B:08:9E:23:D7:C9:1F:E4:84:9E:64:34:27:F7:AF:25:44:D9
            X509v3 Authority Key Identifier: 
                keyid:0F:73:FD:29:05:41:DB:15:B5:2E:7B:D1:B7:4F:12:D0:E1:52:52:E2
                DirName:/CN=team11-net
                serial:04:FC:6E:02:C2:B8:4A:F4:1E:E6:C0:4C:48:42:AE:B4:07:7B:3E:3C

            X509v3 Extended Key Usage: 
                TLS Web Client Authentication
            X509v3 Key Usage: 
                Digital Signature
    Signature Algorithm: sha256WithRSAEncryption
         2c:cd:62:0e:41:e8:6c:38:6f:51:05:ee:09:b5:bb:83:78:2f:
         6f:54:47:49:18:66:6f:43:16:e9:a7:61:9b:ad:31:22:4e:76:
         13:e8:70:b2:1c:bc:ad:bd:aa:c6:c1:b5:db:e3:b4:38:61:9b:
         fc:ec:a9:be:92:d7:a1:6b:3a:3d:3c:a4:e1:47:be:b4:aa:ac:
         d7:53:87:89:c7:5f:54:f9:af:ef:21:e0:93:c6:56:d4:30:76:
         df:38:04:29:ff:95:8b:88:9b:22:40:91:0e:85:1b:e6:b4:29:
         4e:25:57:f1:66:67:99:38:77:b8:12:fc:8a:dc:44:2f:09:11:
         6d:3f:23:a2:ba:8d:e3:f8:bf:73:15:05:18:bd:f6:c1:d3:97:
         b0:19:7f:c7:83:83:57:92:83:61:5b:60:8f:30:71:75:4a:7a:
         bf:f7:49:ab:48:d4:95:21:bc:25:1c:bd:54:b0:39:bc:eb:ad:
         90:bc:95:36:c8:df:f1:e5:11:d9:b6:65:c1:36:ca:37:38:9f:
         af:11:52:0c:77:1c:15:f0:ab:4c:6e:5c:fe:20:66:8d:51:88:
         f0:ed:90:54:2e:31:8d:c9:16:66:07:9f:d6:4b:7e:07:2b:b1:
         67:44:58:e6:b4:78:97:cf:76:08:d4:c4:cd:44:b1:34:2c:6e:
         fb:f0:2e:06
-----BEGIN CERTIFICATE-----
MIIDWjCCAkKgAwIBAgIRALMc4drYBsJU1uibodCAt38wDQYJKoZIhvcNAQELBQAw
FTETMBEGA1UEAwwKdGVhbTExLW5ldDAeFw0yMjA4MDkxODUyMzRaFw0yNTA3MjQx
ODUyMzRaMBgxFjAUBgNVBAMMDXRlYW0xMS1jbGllbnQwggEiMA0GCSqGSIb3DQEB
AQUAA4IBDwAwggEKAoIBAQDEfM33SsT/7+PrwWI0nHhf/u2X2zMR4l5sO1lEzPJI
dTQFbcKHfSExoAxt0R8Nd8o0x9MdCV/rwNIXrm3PJKByKTA7QZNReOPaYl6w6/2h
nmMEBciGPx5qVnw4No9n5jMA3kX4kUQQfOZLeVJfU+8CQ/ovc7ejkQ2EoRYmhZPl
Z7LH/L2Lhs5i/uCDMV1rz7Pw1mrMjwCK+BrGF4jN4B3l02yIReuKpTYzuuzQSL3+
WO+q53wdvCWcP9rA1XMEMJn1Zys1I1Z5YrooPU5zruyGi+FmO2hJFhcYN1DDV+qF
nRQBb2e0miJ6v+fr4nBsICEGph8OYuta+ttrrasNyx9hAgMBAAGjgaEwgZ4wCQYD
VR0TBAIwADAdBgNVHQ4EFgQUIXFbCJ4j18kf5ISeZDQn968lRNkwUAYDVR0jBEkw
R4AUD3P9KQVB2xW1LnvRt08S0OFSUuKhGaQXMBUxEzARBgNVBAMMCnRlYW0xMS1u
ZXSCFAT8bgLCuEr0HubATEhCrrQHez48MBMGA1UdJQQMMAoGCCsGAQUFBwMCMAsG
A1UdDwQEAwIHgDANBgkqhkiG9w0BAQsFAAOCAQEALM1iDkHobDhvUQXuCbW7g3gv
b1RHSRhmb0MW6adhm60xIk52E+hwshy8rb2qxsG12+O0OGGb/OypvpLXoWs6PTyk
4Ue+tKqs11OHicdfVPmv7yHgk8ZW1DB23zgEKf+Vi4ibIkCRDoUb5rQpTiVX8WZn
mTh3uBL8itxELwkRbT8jorqN4/i/cxUFGL32wdOXsBl/x4ODV5KDYVtgjzBxdUp6
v/dJq0jUlSG8JRy9VLA5vOutkLyVNsjf8eUR2bZlwTbKNzifrxFSDHccFfCrTG5c
/iBmjVGI8O2QVC4xjckWZgef1kt+ByuxZ0RY5rR4l892CNTEzUSxNCxu+/AuBg==
-----END CERTIFICATE-----
