Certificate:
    Data:
        Version: 3 (0x2)
        Serial Number:
            c0:f1:4f:9c:bc:b3:30:34:8b:06:41:da:b0:05:e6:72
        Signature Algorithm: sha256WithRSAEncryption
        Issuer: CN=team11-net
        Validity
            Not Before: Aug  9 00:11:33 2022 GMT
            Not After : Jul 24 00:11:33 2025 GMT
        Subject: CN=team11-server
        Subject Public Key Info:
            Public Key Algorithm: rsaEncryption
                RSA Public-Key: (2048 bit)
                Modulus:
                    00:c4:be:9b:c2:2b:fe:47:49:9e:12:17:1b:72:3f:
                    5e:26:7e:d2:ac:f3:f7:78:31:0d:07:79:2d:03:00:
                    29:b7:cb:a0:82:de:23:49:27:ea:ee:0d:8b:e9:d5:
                    e1:1d:b3:f5:c1:f9:ba:9a:52:0a:9a:7f:4f:c6:04:
                    b6:73:59:bc:1e:00:5c:64:18:52:0c:41:65:84:0e:
                    f0:7c:89:01:56:43:8b:76:b7:c1:18:6f:e4:9b:b9:
                    b1:0d:ff:67:3c:f1:6c:d7:e6:3c:0d:c7:78:a1:14:
                    c8:b6:be:71:d3:32:54:39:26:b9:37:0c:56:b0:a3:
                    19:3b:4a:6e:80:cf:28:73:9c:dc:a9:85:fa:6a:4a:
                    9e:77:db:88:4d:46:22:15:bd:44:97:1a:f5:6d:39:
                    fd:e7:67:14:16:3f:20:95:25:f6:3c:88:42:9c:24:
                    76:b0:83:f7:48:0e:77:4d:ed:a6:3d:b2:80:dd:02:
                    86:b1:0a:88:6b:22:eb:57:b3:b0:52:69:90:5a:86:
                    1b:1e:c8:e6:f5:96:de:33:58:71:96:8c:06:ae:1c:
                    05:14:17:51:7d:9c:f9:77:2b:ee:8f:ca:91:95:a0:
                    dd:1f:19:66:07:16:22:5b:bb:50:be:14:47:20:61:
                    36:f5:83:54:63:b1:0f:c0:7c:c1:8f:19:e6:e2:ab:
                    16:bb
                Exponent: 65537 (0x10001)
        X509v3 extensions:
            X509v3 Basic Constraints: 
                CA:FALSE
            X509v3 Subject Key Identifier: 
                F7:43:B0:BA:28:74:5F:6D:F3:5C:3A:B9:5F:41:17:76:04:F7:FE:DD
            X509v3 Authority Key Identifier: 
                keyid:D6:19:B2:05:BC:9E:9A:01:2B:B3:9F:57:6C:DB:71:5A:50:24:8F:57
                DirName:/CN=team11-net
                serial:1B:AB:84:16:98:B9:D7:94:1D:4C:CC:F5:D2:50:DE:AD:F2:B2:46:77

            X509v3 Extended Key Usage: 
                TLS Web Server Authentication
            X509v3 Key Usage: 
                Digital Signature, Key Encipherment
            X509v3 Subject Alternative Name: 
                DNS:team11-server
    Signature Algorithm: sha256WithRSAEncryption
         06:69:f1:c8:08:53:2f:61:cb:a1:ee:a1:55:d7:cd:04:47:fe:
         a0:e4:11:94:98:32:1d:ad:cd:dc:85:43:2b:9e:cc:6b:f6:69:
         20:99:25:a5:2c:98:d1:91:1e:79:04:d7:91:bc:56:7a:9f:06:
         f2:f7:ac:fa:57:db:d4:75:ce:30:f2:b7:0d:80:8b:c3:49:3e:
         d1:2a:c5:88:aa:7a:aa:90:bf:ec:bc:d6:02:73:61:b5:5b:34:
         a8:f1:8d:0f:ed:f6:74:91:46:34:31:ad:b0:51:5f:9f:f5:fa:
         fa:fd:0f:79:eb:10:cf:8e:54:36:e4:27:9d:63:c5:98:17:0c:
         fe:17:86:f2:a6:c9:97:95:b5:8f:57:2c:20:c0:48:4e:72:ed:
         c9:b6:57:76:0d:dc:25:d9:dc:3f:0c:35:ff:6e:0c:a7:77:da:
         ae:61:38:3b:22:b9:d7:25:7e:43:9b:71:a6:a4:93:68:5a:fd:
         25:4a:cd:09:ac:14:61:3b:1d:eb:9e:e1:cc:41:bf:c6:fa:45:
         7f:e9:3a:48:48:3f:10:e3:2b:71:e1:56:08:81:14:34:b8:5d:
         7f:89:9d:dc:82:06:0e:13:9c:13:b4:59:ee:37:5c:6b:fa:eb:
         33:9f:7f:f9:0c:85:04:0f:db:d6:fd:a4:7e:df:48:13:67:ae:
         40:47:15:e0
-----BEGIN CERTIFICATE-----
MIIDdDCCAlygAwIBAgIRAMDxT5y8szA0iwZB2rAF5nIwDQYJKoZIhvcNAQELBQAw
FTETMBEGA1UEAwwKdGVhbTExLW5ldDAeFw0yMjA4MDkwMDExMzNaFw0yNTA3MjQw
MDExMzNaMBgxFjAUBgNVBAMMDXRlYW0xMS1zZXJ2ZXIwggEiMA0GCSqGSIb3DQEB
AQUAA4IBDwAwggEKAoIBAQDEvpvCK/5HSZ4SFxtyP14mftKs8/d4MQ0HeS0DACm3
y6CC3iNJJ+ruDYvp1eEds/XB+bqaUgqaf0/GBLZzWbweAFxkGFIMQWWEDvB8iQFW
Q4t2t8EYb+SbubEN/2c88WzX5jwNx3ihFMi2vnHTMlQ5Jrk3DFawoxk7Sm6Azyhz
nNyphfpqSp5324hNRiIVvUSXGvVtOf3nZxQWPyCVJfY8iEKcJHawg/dIDndN7aY9
soDdAoaxCohrIutXs7BSaZBahhseyOb1lt4zWHGWjAauHAUUF1F9nPl3K+6PypGV
oN0fGWYHFiJbu1C+FEcgYTb1g1RjsQ/AfMGPGebiqxa7AgMBAAGjgbswgbgwCQYD
VR0TBAIwADAdBgNVHQ4EFgQU90Owuih0X23zXDq5X0EXdgT3/t0wUAYDVR0jBEkw
R4AU1hmyBbyemgErs59XbNtxWlAkj1ehGaQXMBUxEzARBgNVBAMMCnRlYW0xMS1u
ZXSCFBurhBaYudeUHUzM9dJQ3q3yskZ3MBMGA1UdJQQMMAoGCCsGAQUFBwMBMAsG
A1UdDwQEAwIFoDAYBgNVHREEETAPgg10ZWFtMTEtc2VydmVyMA0GCSqGSIb3DQEB
CwUAA4IBAQAGafHICFMvYcuh7qFV180ER/6g5BGUmDIdrc3chUMrnsxr9mkgmSWl
LJjRkR55BNeRvFZ6nwby96z6V9vUdc4w8rcNgIvDST7RKsWIqnqqkL/svNYCc2G1
WzSo8Y0P7fZ0kUY0Ma2wUV+f9fr6/Q956xDPjlQ25CedY8WYFwz+F4bypsmXlbWP
VywgwEhOcu3Jtld2Ddwl2dw/DDX/bgynd9quYTg7IrnXJX5Dm3GmpJNoWv0lSs0J
rBRhOx3rnuHMQb/G+kV/6TpISD8Q4ytx4VYIgRQ0uF1/iZ3cggYOE5wTtFnuN1xr
+uszn3/5DIUED9vW/aR+30gTZ65ARxXg
-----END CERTIFICATE-----
