Certificate:
    Data:
        Version: 3 (0x2)
        Serial Number:
            da:0b:bf:69:4e:20:73:26:cb:1c:f5:00:8e:26:04:8a
        Signature Algorithm: sha256WithRSAEncryption
        Issuer: CN=team7-net
        Validity
            Not Before: Aug  4 12:27:50 2022 GMT
            Not After : Jul 19 12:27:50 2025 GMT
        Subject: CN=team7-client
        Subject Public Key Info:
            Public Key Algorithm: rsaEncryption
                RSA Public-Key: (2048 bit)
                Modulus:
                    00:bb:a6:81:f6:70:2f:7d:4f:2a:fe:be:23:13:91:
                    30:cc:4d:d3:6c:c2:19:f0:9b:77:98:1b:07:b2:57:
                    e2:2c:26:f3:4a:e8:f2:19:3b:92:d7:80:c7:dc:d0:
                    23:20:c2:59:75:47:e4:1a:0d:cd:fb:ba:4f:6f:16:
                    97:29:92:4a:42:41:54:70:e5:27:94:86:d8:4f:f0:
                    cd:c7:d9:3b:e9:55:8e:47:28:62:8a:75:87:e2:99:
                    b7:5f:f9:15:45:33:4c:ea:2c:52:de:5f:60:40:46:
                    a3:9b:83:e9:07:1f:b9:b4:3d:dc:e9:a7:a8:e6:1b:
                    bb:b0:73:2f:20:f1:15:57:ef:38:87:61:6d:65:89:
                    c1:56:22:48:00:29:d4:4e:ce:76:37:b8:57:7e:45:
                    56:2c:7a:36:8c:be:95:59:86:ef:41:17:46:59:04:
                    6e:0b:4f:11:5b:cf:c6:fb:c2:6d:7a:75:6f:91:c0:
                    89:f8:ab:2f:2e:a6:0d:e1:d0:69:b8:eb:cf:9b:e8:
                    0e:e8:0e:ea:d0:a9:64:65:71:8e:ee:7f:33:91:2b:
                    54:a5:30:df:f4:57:74:4c:c0:9d:28:78:18:2d:2d:
                    af:1f:f4:5c:a9:74:cd:ba:c3:0c:2e:9b:7a:24:20:
                    36:d9:a0:5d:7d:a1:23:ff:60:a8:14:03:85:5d:8a:
                    72:e9
                Exponent: 65537 (0x10001)
        X509v3 extensions:
            X509v3 Basic Constraints: 
                CA:FALSE
            X509v3 Subject Key Identifier: 
                AC:D1:57:8C:18:84:3E:AC:30:EB:74:82:1F:BE:47:00:E0:13:6C:1C
            X509v3 Authority Key Identifier: 
                keyid:E4:B9:3E:7B:55:EA:54:06:2F:21:EA:73:5A:4D:00:E7:89:06:84:C8
                DirName:/CN=team7-net
                serial:63:80:60:5D:51:33:7F:9D:9D:20:CF:52:E9:49:3F:5C:0C:E2:FC:2C

            X509v3 Extended Key Usage: 
                TLS Web Client Authentication
            X509v3 Key Usage: 
                Digital Signature
    Signature Algorithm: sha256WithRSAEncryption
         ad:d0:f6:76:8f:19:b3:6a:3b:06:3f:6e:51:1a:fb:cc:f2:02:
         d4:38:e8:a8:25:e9:f7:dc:a2:46:19:17:2f:c1:e6:d1:30:87:
         39:83:d6:8f:98:a0:e1:17:42:ba:35:ee:fb:e0:44:47:d7:03:
         a3:fe:d0:8e:26:d4:3e:d9:31:d6:a4:fc:17:f5:3f:67:e7:6c:
         f2:11:91:e2:69:a6:e5:2a:71:64:f7:3b:e0:9d:51:42:59:e4:
         be:7b:b8:db:44:50:f1:8f:94:40:bc:af:99:f8:79:a5:79:29:
         49:49:39:32:bc:76:81:e9:44:a7:ec:fd:36:62:ff:27:ba:eb:
         18:b7:ba:00:29:9c:87:cd:58:3f:1b:23:58:e6:b6:b9:82:95:
         09:47:ed:15:61:99:0d:5f:eb:25:7c:98:2f:7f:56:fd:e1:34:
         aa:15:ca:30:4a:4e:69:04:3a:4f:28:b7:a1:55:22:9b:7f:fb:
         17:05:41:c3:35:2b:a8:60:36:45:ba:bb:54:a1:76:7e:01:b1:
         da:03:97:b7:d6:7d:61:5a:ac:a2:42:6a:9b:f3:ac:1c:7f:32:
         57:05:61:bb:9e:0f:df:94:e7:26:2e:84:0f:c8:2e:09:ac:e0:
         03:d2:ca:e2:77:6b:38:67:3b:55:6f:12:01:6f:b2:09:b6:e6:
         66:04:ae:af
-----BEGIN CERTIFICATE-----
MIIDVzCCAj+gAwIBAgIRANoLv2lOIHMmyxz1AI4mBIowDQYJKoZIhvcNAQELBQAw
FDESMBAGA1UEAwwJdGVhbTctbmV0MB4XDTIyMDgwNDEyMjc1MFoXDTI1MDcxOTEy
Mjc1MFowFzEVMBMGA1UEAwwMdGVhbTctY2xpZW50MIIBIjANBgkqhkiG9w0BAQEF
AAOCAQ8AMIIBCgKCAQEAu6aB9nAvfU8q/r4jE5EwzE3TbMIZ8Jt3mBsHslfiLCbz
SujyGTuS14DH3NAjIMJZdUfkGg3N+7pPbxaXKZJKQkFUcOUnlIbYT/DNx9k76VWO
RyhiinWH4pm3X/kVRTNM6ixS3l9gQEajm4PpBx+5tD3c6aeo5hu7sHMvIPEVV+84
h2FtZYnBViJIACnUTs52N7hXfkVWLHo2jL6VWYbvQRdGWQRuC08RW8/G+8JtenVv
kcCJ+KsvLqYN4dBpuOvPm+gO6A7q0KlkZXGO7n8zkStUpTDf9Fd0TMCdKHgYLS2v
H/RcqXTNusMMLpt6JCA22aBdfaEj/2CoFAOFXYpy6QIDAQABo4GgMIGdMAkGA1Ud
EwQCMAAwHQYDVR0OBBYEFKzRV4wYhD6sMOt0gh++RwDgE2wcME8GA1UdIwRIMEaA
FOS5PntV6lQGLyHqc1pNAOeJBoTIoRikFjAUMRIwEAYDVQQDDAl0ZWFtNy1uZXSC
FGOAYF1RM3+dnSDPUulJP1wM4vwsMBMGA1UdJQQMMAoGCCsGAQUFBwMCMAsGA1Ud
DwQEAwIHgDANBgkqhkiG9w0BAQsFAAOCAQEArdD2do8Zs2o7Bj9uURr7zPIC1Djo
qCXp99yiRhkXL8Hm0TCHOYPWj5ig4RdCujXu++BER9cDo/7QjibUPtkx1qT8F/U/
Z+ds8hGR4mmm5SpxZPc74J1RQlnkvnu420RQ8Y+UQLyvmfh5pXkpSUk5Mrx2gelE
p+z9NmL/J7rrGLe6ACmch81YPxsjWOa2uYKVCUftFWGZDV/rJXyYL39W/eE0qhXK
MEpOaQQ6Tyi3oVUim3/7FwVBwzUrqGA2Rbq7VKF2fgGx2gOXt9Z9YVqsokJqm/Os
HH8yVwVhu54P35TnJi6ED8guCazgA9LK4ndrOGc7VW8SAW+yCbbmZgSurw==
-----END CERTIFICATE-----
