Certificate:
    Data:
        Version: 3 (0x2)
        Serial Number:
            c9:55:e9:62:6c:75:7f:ec:bb:95:fc:f7:e8:e5:86:b7
        Signature Algorithm: sha256WithRSAEncryption
        Issuer: CN=team7-net
        Validity
            Not Before: Aug  9 00:11:30 2022 GMT
            Not After : Jul 24 00:11:30 2025 GMT
        Subject: CN=team7-server
        Subject Public Key Info:
            Public Key Algorithm: rsaEncryption
                RSA Public-Key: (2048 bit)
                Modulus:
                    00:d8:9f:0d:7c:27:0f:83:e8:42:6d:26:f0:91:50:
                    89:fb:07:ae:94:cb:c6:4c:5b:c5:90:35:ff:df:30:
                    67:fb:e9:cd:09:b6:3e:89:56:cb:b3:76:c8:e4:9d:
                    d1:03:1a:2e:16:ec:b0:6b:7f:c9:7e:97:cd:13:85:
                    bb:f5:fd:ea:15:24:88:2f:40:1c:b2:01:4d:f1:6f:
                    14:d9:90:d5:a2:49:fb:a6:47:5f:02:b8:a3:9b:15:
                    de:10:e9:b1:ea:02:aa:d3:48:28:01:77:71:37:fa:
                    cc:e8:db:5b:52:03:d1:f3:68:05:f2:4c:6f:69:cb:
                    48:0b:6b:dd:35:25:dc:20:33:ec:93:07:dc:8c:ad:
                    7d:ce:0b:29:bd:56:02:e2:80:8a:5a:ee:e7:ce:da:
                    54:24:91:25:c2:81:b9:3f:1d:ef:e8:c1:a5:08:51:
                    b3:c8:21:f2:8f:6d:4b:3c:a4:1c:fd:67:f7:89:53:
                    9d:a9:7f:ca:49:f0:01:5b:fc:fb:7a:06:43:f4:57:
                    06:7a:97:f1:18:46:ef:85:8e:b8:6a:b2:3c:b9:d2:
                    4d:83:12:d8:54:30:c9:50:f2:d9:5a:9f:f2:ec:26:
                    f8:a5:84:1a:35:6b:b1:e6:c7:84:0b:34:46:03:92:
                    52:88:49:36:31:f8:c5:3c:06:a8:af:0a:68:6e:2c:
                    f7:95
                Exponent: 65537 (0x10001)
        X509v3 extensions:
            X509v3 Basic Constraints: 
                CA:FALSE
            X509v3 Subject Key Identifier: 
                0F:AF:46:F9:A7:29:87:A4:35:07:ED:36:CA:D5:E8:30:DD:78:2B:1F
            X509v3 Authority Key Identifier: 
                keyid:03:FF:50:30:1C:E5:20:23:56:EC:91:BF:5F:FE:8F:5B:A0:83:F2:97
                DirName:/CN=team7-net
                serial:5A:BC:24:57:34:98:E1:9A:99:47:1D:9F:8A:D9:AA:DA:54:A9:1B:DC

            X509v3 Extended Key Usage: 
                TLS Web Server Authentication
            X509v3 Key Usage: 
                Digital Signature, Key Encipherment
            X509v3 Subject Alternative Name: 
                DNS:team7-server
    Signature Algorithm: sha256WithRSAEncryption
         bb:9d:0a:5c:15:71:46:34:5e:9e:e1:2a:5d:8f:f2:19:54:a8:
         15:5b:bc:9f:b0:68:0f:d4:b1:2e:53:30:62:5c:69:ac:2b:ee:
         2c:1d:b4:68:ed:cb:bb:fd:95:67:5f:60:8e:b7:90:0d:d1:a2:
         62:1b:20:2a:1f:62:f6:9e:e2:1d:60:fc:82:7f:87:67:21:0b:
         57:72:32:28:d6:24:09:7b:9f:7a:3a:93:31:a0:7c:11:9d:5c:
         ca:04:3c:59:9f:e3:06:a5:1e:29:ad:f8:d1:51:91:50:c3:b0:
         c4:19:59:04:03:5f:45:6b:cf:1f:15:39:59:79:8b:06:2f:9c:
         b3:8e:7f:27:c0:3e:ca:1a:0b:df:ef:73:66:f7:ec:74:fc:9d:
         06:3a:14:0d:94:ed:69:7f:ef:cb:e4:3e:f7:3c:2f:e1:07:8a:
         d6:8e:25:cc:ee:87:f8:04:9d:f5:79:d8:34:c0:4e:d7:4d:d9:
         15:c0:cf:bf:5f:d2:46:ec:7b:a7:fd:f3:fe:fa:61:9f:91:34:
         a8:9e:b5:e4:7a:7f:e1:8d:fe:27:d9:35:55:a5:54:f8:5a:50:
         d2:a7:50:e1:66:b8:f6:5d:69:2d:ff:3c:fd:14:cd:3e:af:ce:
         c3:f4:40:ee:87:20:ac:dc:ca:84:1b:89:4c:b1:57:c1:5b:de:
         c7:25:57:0a
-----BEGIN CERTIFICATE-----
MIIDcDCCAligAwIBAgIRAMlV6WJsdX/su5X89+jlhrcwDQYJKoZIhvcNAQELBQAw
FDESMBAGA1UEAwwJdGVhbTctbmV0MB4XDTIyMDgwOTAwMTEzMFoXDTI1MDcyNDAw
MTEzMFowFzEVMBMGA1UEAwwMdGVhbTctc2VydmVyMIIBIjANBgkqhkiG9w0BAQEF
AAOCAQ8AMIIBCgKCAQEA2J8NfCcPg+hCbSbwkVCJ+weulMvGTFvFkDX/3zBn++nN
CbY+iVbLs3bI5J3RAxouFuywa3/JfpfNE4W79f3qFSSIL0AcsgFN8W8U2ZDVokn7
pkdfArijmxXeEOmx6gKq00goAXdxN/rM6NtbUgPR82gF8kxvactIC2vdNSXcIDPs
kwfcjK19zgspvVYC4oCKWu7nztpUJJElwoG5Px3v6MGlCFGzyCHyj21LPKQc/Wf3
iVOdqX/KSfABW/z7egZD9FcGepfxGEbvhY64arI8udJNgxLYVDDJUPLZWp/y7Cb4
pYQaNWux5seECzRGA5JSiEk2MfjFPAaorwpobiz3lQIDAQABo4G5MIG2MAkGA1Ud
EwQCMAAwHQYDVR0OBBYEFA+vRvmnKYekNQftNsrV6DDdeCsfME8GA1UdIwRIMEaA
FAP/UDAc5SAjVuyRv1/+j1ugg/KXoRikFjAUMRIwEAYDVQQDDAl0ZWFtNy1uZXSC
FFq8JFc0mOGamUcdn4rZqtpUqRvcMBMGA1UdJQQMMAoGCCsGAQUFBwMBMAsGA1Ud
DwQEAwIFoDAXBgNVHREEEDAOggx0ZWFtNy1zZXJ2ZXIwDQYJKoZIhvcNAQELBQAD
ggEBALudClwVcUY0Xp7hKl2P8hlUqBVbvJ+waA/UsS5TMGJcaawr7iwdtGjty7v9
lWdfYI63kA3RomIbICofYvae4h1g/IJ/h2chC1dyMijWJAl7n3o6kzGgfBGdXMoE
PFmf4walHimt+NFRkVDDsMQZWQQDX0Vrzx8VOVl5iwYvnLOOfyfAPsoaC9/vc2b3
7HT8nQY6FA2U7Wl/78vkPvc8L+EHitaOJczuh/gEnfV52DTATtdN2RXAz79f0kbs
e6f98/76YZ+RNKieteR6f+GN/ifZNVWlVPhaUNKnUOFmuPZdaS3/PP0UzT6vzsP0
QO6HIKzcyoQbiUyxV8Fb3sclVwo=
-----END CERTIFICATE-----
