Certificate:
    Data:
        Version: 3 (0x2)
        Serial Number:
            13:df:ca:0c:dd:4d:a3:a0:c0:d0:02:ac:d7:b9:fe:74
        Signature Algorithm: sha256WithRSAEncryption
        Issuer: CN=team7-net
        Validity
            Not Before: Aug  9 00:11:30 2022 GMT
            Not After : Jul 24 00:11:30 2025 GMT
        Subject: CN=team7-client
        Subject Public Key Info:
            Public Key Algorithm: rsaEncryption
                RSA Public-Key: (2048 bit)
                Modulus:
                    00:ab:32:dc:31:9b:ce:18:9f:30:8b:6a:e6:e7:be:
                    80:ee:a9:d4:d6:06:d9:87:db:f4:71:b5:8b:08:cb:
                    99:3a:a4:56:88:7e:ce:b4:ef:9f:0f:87:ae:76:0c:
                    95:28:b8:49:14:4a:5d:4d:72:37:35:58:8c:e6:ed:
                    c5:b0:86:b0:24:d1:1e:eb:10:cf:ee:4c:42:59:25:
                    70:d1:1c:2f:5d:b7:3d:e2:f7:38:9f:12:cc:e3:33:
                    5d:41:5f:0e:bb:6d:88:c6:f5:41:cf:73:cb:c5:d4:
                    2f:dd:9d:2a:79:6d:ba:9a:4e:58:6d:72:d8:65:f6:
                    f9:71:1f:3f:f4:73:1d:5f:9e:f2:eb:8d:02:2c:c5:
                    9e:73:06:17:37:60:19:d8:5d:36:6b:af:2b:aa:c5:
                    23:1d:10:9b:af:f3:57:aa:79:c3:6e:40:73:96:6c:
                    88:21:a6:51:fd:32:ad:6b:6b:f0:89:14:87:c1:f3:
                    f8:4e:b0:0d:7c:f2:b1:70:5f:63:b7:9c:f2:dc:96:
                    36:e0:12:ea:4f:9d:33:d1:02:26:9c:50:b6:ad:0b:
                    ce:a4:ce:e6:4c:72:93:71:1d:c7:85:a4:e5:56:a5:
                    85:a6:54:57:01:b5:4f:ce:c0:f4:ec:5c:dd:cf:9d:
                    c3:03:3e:52:0d:f3:a8:5f:95:7c:6f:da:d7:65:cc:
                    90:61
                Exponent: 65537 (0x10001)
        X509v3 extensions:
            X509v3 Basic Constraints: 
                CA:FALSE
            X509v3 Subject Key Identifier: 
                22:93:27:20:B5:CD:ED:51:82:C1:C5:33:D5:60:9B:FA:3B:E4:12:C0
            X509v3 Authority Key Identifier: 
                keyid:03:FF:50:30:1C:E5:20:23:56:EC:91:BF:5F:FE:8F:5B:A0:83:F2:97
                DirName:/CN=team7-net
                serial:5A:BC:24:57:34:98:E1:9A:99:47:1D:9F:8A:D9:AA:DA:54:A9:1B:DC

            X509v3 Extended Key Usage: 
                TLS Web Client Authentication
            X509v3 Key Usage: 
                Digital Signature
    Signature Algorithm: sha256WithRSAEncryption
         71:ac:e0:09:61:73:a4:7a:ca:fe:52:ac:14:3a:09:19:41:c0:
         f9:73:6a:b9:bb:eb:bc:84:ab:f3:fd:a1:21:d1:e5:36:a1:02:
         45:c8:2c:be:2b:05:82:26:15:22:fa:3a:76:5e:ac:dc:77:82:
         7b:4d:96:3c:fb:ad:d8:87:c8:25:81:a6:26:e8:25:df:f1:35:
         80:74:c3:9e:ff:1b:ec:4d:d5:8a:68:82:00:d6:a1:60:35:b9:
         e1:d6:fe:c3:28:83:6a:cf:4a:6a:7e:8f:68:7a:c9:50:ef:d9:
         9f:4a:02:96:46:ca:9f:73:04:38:cf:34:4e:94:98:2e:82:f8:
         41:f9:9b:46:ea:8a:8c:16:c0:c9:7e:dc:14:43:35:35:b8:32:
         7a:07:22:e1:3c:fb:92:d7:9e:8a:d6:13:d5:d0:dd:ba:f3:87:
         89:98:a1:74:b2:9d:87:b2:8c:49:15:3b:f5:9d:ac:d4:37:9c:
         0c:60:59:2a:65:e5:88:b7:7d:4c:7c:8c:0e:fa:bb:35:e9:c8:
         cd:e2:c2:6e:80:e3:90:5c:a3:06:1e:04:37:2e:5c:e9:17:d8:
         b2:5f:71:e8:70:a1:34:41:ac:5b:df:3b:12:58:2e:70:97:52:
         0d:1c:6a:52:0f:d2:0d:15:ef:48:f9:f1:c4:67:d9:f5:d8:1c:
         8d:33:cc:d0
-----BEGIN CERTIFICATE-----
MIIDVjCCAj6gAwIBAgIQE9/KDN1No6DA0AKs17n+dDANBgkqhkiG9w0BAQsFADAU
MRIwEAYDVQQDDAl0ZWFtNy1uZXQwHhcNMjIwODA5MDAxMTMwWhcNMjUwNzI0MDAx
MTMwWjAXMRUwEwYDVQQDDAx0ZWFtNy1jbGllbnQwggEiMA0GCSqGSIb3DQEBAQUA
A4IBDwAwggEKAoIBAQCrMtwxm84YnzCLaubnvoDuqdTWBtmH2/RxtYsIy5k6pFaI
fs60758Ph652DJUouEkUSl1Ncjc1WIzm7cWwhrAk0R7rEM/uTEJZJXDRHC9dtz3i
9zifEszjM11BXw67bYjG9UHPc8vF1C/dnSp5bbqaTlhtcthl9vlxHz/0cx1fnvLr
jQIsxZ5zBhc3YBnYXTZrryuqxSMdEJuv81eqecNuQHOWbIghplH9Mq1ra/CJFIfB
8/hOsA188rFwX2O3nPLcljbgEupPnTPRAiacULatC86kzuZMcpNxHceFpOVWpYWm
VFcBtU/OwPTsXN3PncMDPlIN86hflXxv2tdlzJBhAgMBAAGjgaAwgZ0wCQYDVR0T
BAIwADAdBgNVHQ4EFgQUIpMnILXN7VGCwcUz1WCb+jvkEsAwTwYDVR0jBEgwRoAU
A/9QMBzlICNW7JG/X/6PW6CD8pehGKQWMBQxEjAQBgNVBAMMCXRlYW03LW5ldIIU
WrwkVzSY4ZqZRx2fitmq2lSpG9wwEwYDVR0lBAwwCgYIKwYBBQUHAwIwCwYDVR0P
BAQDAgeAMA0GCSqGSIb3DQEBCwUAA4IBAQBxrOAJYXOkesr+UqwUOgkZQcD5c2q5
u+u8hKvz/aEh0eU2oQJFyCy+KwWCJhUi+jp2Xqzcd4J7TZY8+63Yh8glgaYm6CXf
8TWAdMOe/xvsTdWKaIIA1qFgNbnh1v7DKINqz0pqfo9oeslQ79mfSgKWRsqfcwQ4
zzROlJgugvhB+ZtG6oqMFsDJftwUQzU1uDJ6ByLhPPuS156K1hPV0N2684eJmKF0
sp2HsoxJFTv1nazUN5wMYFkqZeWIt31MfIwO+rs16cjN4sJugOOQXKMGHgQ3Llzp
F9iyX3HocKE0Qaxb3zsSWC5wl1INHGpSD9INFe9I+fHEZ9n12ByNM8zQ
-----END CERTIFICATE-----
