Certificate:
    Data:
        Version: 3 (0x2)
        Serial Number:
            0f:7b:18:c8:6c:3e:1e:f1:bf:77:63:07:39:f1:42:9c
        Signature Algorithm: sha256WithRSAEncryption
        Issuer: CN=team17-net
        Validity
            Not Before: Aug  9 00:11:39 2022 GMT
            Not After : Jul 24 00:11:39 2025 GMT
        Subject: CN=team17-client
        Subject Public Key Info:
            Public Key Algorithm: rsaEncryption
                RSA Public-Key: (2048 bit)
                Modulus:
                    00:d4:64:42:d0:c2:f4:6c:6b:2f:26:43:92:ea:a0:
                    00:be:3d:d6:28:d0:5d:ee:1c:3e:13:17:24:d2:ea:
                    48:74:a4:28:51:1b:3e:c5:a0:b9:67:43:5f:25:d9:
                    bc:d1:f6:3f:cf:de:1a:3d:aa:70:e1:15:c4:37:b5:
                    e3:46:8b:4b:31:da:0b:81:4b:a2:bb:95:4e:93:55:
                    dc:2e:cb:97:51:e8:92:50:4b:8e:7d:b2:6a:17:65:
                    eb:cc:90:7a:23:35:9c:d6:42:b4:73:a8:76:8b:87:
                    c2:a7:0d:36:af:8b:16:0d:d3:7f:ed:d8:72:47:8d:
                    cb:7e:f1:c5:5f:59:74:ee:95:00:49:75:d3:c0:ee:
                    d3:10:94:e9:86:1d:e7:46:90:bd:25:89:d0:59:8d:
                    c0:d3:5a:80:40:79:e9:5d:d3:e8:10:78:5e:b0:c3:
                    a1:46:bf:44:fd:f0:bc:a1:76:52:70:a7:80:8f:f2:
                    c7:0c:88:2e:57:71:96:95:1b:e6:77:1f:10:59:47:
                    ed:62:22:72:a2:ff:f7:ff:e3:76:80:41:8d:3d:7d:
                    a4:df:6e:4e:8d:55:58:c1:18:b0:94:08:bd:40:c3:
                    7b:1d:d5:8b:57:3a:ab:d3:80:82:ed:0a:8d:1c:69:
                    65:16:b5:c5:ae:0e:e1:79:cf:3b:20:4d:a4:2e:ad:
                    1b:57
                Exponent: 65537 (0x10001)
        X509v3 extensions:
            X509v3 Basic Constraints: 
                CA:FALSE
            X509v3 Subject Key Identifier: 
                19:15:64:DD:C8:D0:32:B8:15:27:99:B4:E6:5E:99:1F:C9:BB:17:12
            X509v3 Authority Key Identifier: 
                keyid:15:9D:1C:9A:70:D0:F2:EA:83:04:42:12:15:ED:43:12:97:BD:95:4E
                DirName:/CN=team17-net
                serial:48:CA:53:6D:EA:48:9B:E5:C9:F3:F2:B2:80:86:01:EF:EE:D2:ED:B3

            X509v3 Extended Key Usage: 
                TLS Web Client Authentication
            X509v3 Key Usage: 
                Digital Signature
    Signature Algorithm: sha256WithRSAEncryption
         48:e5:45:e2:1b:6e:42:d7:78:c3:9f:cb:f9:c4:c4:f2:9c:21:
         a6:0b:9a:ea:db:45:45:92:f4:f7:41:60:5c:b7:cb:fb:b3:c9:
         df:15:ab:bc:0f:ec:30:7e:76:92:86:c4:74:8f:67:d0:1e:65:
         f1:17:fe:c5:ac:b7:f6:d6:6c:4d:13:2f:0e:64:01:f7:8e:d8:
         8c:03:2b:76:20:80:b0:b0:ec:83:e3:24:dd:f7:ac:ac:08:8e:
         6b:cf:3f:30:13:04:96:51:af:9b:87:f8:ba:16:08:3b:b9:04:
         fd:dd:08:7f:c9:ce:4b:4c:d1:8c:f9:ae:dc:ed:96:03:96:fe:
         8d:bc:5a:5f:ce:6c:db:32:11:4a:e0:44:d0:f3:33:fa:cc:de:
         91:5b:51:2f:77:5f:60:96:7a:31:50:77:35:9e:17:17:3d:7f:
         56:e7:b0:04:f4:ca:55:2e:0a:73:2f:12:12:df:69:61:02:39:
         a6:82:a9:62:2d:52:d9:fc:54:a8:98:6f:7c:99:d3:b4:fa:ae:
         43:69:9a:dd:f9:6d:71:a4:6c:2e:d1:47:32:bb:f3:71:1a:2a:
         1c:75:91:b1:cd:69:c8:7f:9f:8e:83:81:05:55:5e:6f:d2:5a:
         40:40:7f:4e:58:77:90:df:2c:9a:88:08:1e:1e:09:bf:71:35:
         10:0b:81:3e
-----BEGIN CERTIFICATE-----
MIIDWTCCAkGgAwIBAgIQD3sYyGw+HvG/d2MHOfFCnDANBgkqhkiG9w0BAQsFADAV
MRMwEQYDVQQDDAp0ZWFtMTctbmV0MB4XDTIyMDgwOTAwMTEzOVoXDTI1MDcyNDAw
MTEzOVowGDEWMBQGA1UEAwwNdGVhbTE3LWNsaWVudDCCASIwDQYJKoZIhvcNAQEB
BQADggEPADCCAQoCggEBANRkQtDC9GxrLyZDkuqgAL491ijQXe4cPhMXJNLqSHSk
KFEbPsWguWdDXyXZvNH2P8/eGj2qcOEVxDe140aLSzHaC4FLoruVTpNV3C7Ll1Ho
klBLjn2yahdl68yQeiM1nNZCtHOodouHwqcNNq+LFg3Tf+3YckeNy37xxV9ZdO6V
AEl108Du0xCU6YYd50aQvSWJ0FmNwNNagEB56V3T6BB4XrDDoUa/RP3wvKF2UnCn
gI/yxwyILldxlpUb5ncfEFlH7WIicqL/9//jdoBBjT19pN9uTo1VWMEYsJQIvUDD
ex3Vi1c6q9OAgu0KjRxpZRa1xa4O4XnPOyBNpC6tG1cCAwEAAaOBoTCBnjAJBgNV
HRMEAjAAMB0GA1UdDgQWBBQZFWTdyNAyuBUnmbTmXpkfybsXEjBQBgNVHSMESTBH
gBQVnRyacNDy6oMEQhIV7UMSl72VTqEZpBcwFTETMBEGA1UEAwwKdGVhbTE3LW5l
dIIUSMpTbepIm+XJ8/KygIYB7+7S7bMwEwYDVR0lBAwwCgYIKwYBBQUHAwIwCwYD
VR0PBAQDAgeAMA0GCSqGSIb3DQEBCwUAA4IBAQBI5UXiG25C13jDn8v5xMTynCGm
C5rq20VFkvT3QWBct8v7s8nfFau8D+wwfnaShsR0j2fQHmXxF/7FrLf21mxNEy8O
ZAH3jtiMAyt2IICwsOyD4yTd96ysCI5rzz8wEwSWUa+bh/i6Fgg7uQT93Qh/yc5L
TNGM+a7c7ZYDlv6NvFpfzmzbMhFK4ETQ8zP6zN6RW1Evd19glnoxUHc1nhcXPX9W
57AE9MpVLgpzLxIS32lhAjmmgqliLVLZ/FSomG98mdO0+q5DaZrd+W1xpGwu0Ucy
u/NxGiocdZGxzWnIf5+Og4EFVV5v0lpAQH9OWHeQ3yyaiAgeHgm/cTUQC4E+
-----END CERTIFICATE-----
