Certificate:
    Data:
        Version: 3 (0x2)
        Serial Number:
            72:bf:25:5f:97:9f:3f:71:9b:8c:1a:27:a9:0b:21:35
        Signature Algorithm: sha256WithRSAEncryption
        Issuer: CN=team17-net
        Validity
            Not Before: Aug  9 18:52:39 2022 GMT
            Not After : Jul 24 18:52:39 2025 GMT
        Subject: CN=team17-client
        Subject Public Key Info:
            Public Key Algorithm: rsaEncryption
                RSA Public-Key: (2048 bit)
                Modulus:
                    00:a4:3d:95:8f:34:e6:96:09:b1:f0:8f:eb:2d:92:
                    65:aa:ed:cb:cc:33:08:8a:af:da:69:4f:4b:1c:7f:
                    3c:95:8b:f6:fe:22:28:1c:b1:fa:c3:2b:62:9b:01:
                    d4:94:bc:e7:1f:1c:8d:94:be:f1:3f:17:d9:ee:90:
                    4a:67:fc:be:52:7e:41:f1:4b:bf:a6:c8:f0:b1:0e:
                    f2:cc:ce:2f:23:c8:3d:62:70:26:49:25:9b:ac:a0:
                    2b:5f:eb:c7:17:9e:8a:dc:72:9d:ac:88:7b:29:c6:
                    4f:54:c5:0f:41:17:b7:50:ad:5f:7c:67:e7:af:b6:
                    76:a8:41:38:77:2f:f3:e4:e9:1c:07:e6:38:61:c0:
                    c3:96:b4:cf:b9:05:03:23:94:02:c1:4c:32:05:ed:
                    8f:f0:48:25:b5:1e:08:b5:47:d0:b8:c4:bf:82:92:
                    a4:a7:8d:6a:7f:5d:a7:53:91:e5:bc:ff:2f:d3:bf:
                    d2:f4:e4:a6:c0:2a:12:4d:45:67:81:6d:0f:c5:1f:
                    9b:db:a1:7a:5e:4f:89:0b:a8:59:67:a6:4f:8d:ef:
                    09:56:0e:23:98:31:e4:75:d3:02:55:48:a3:cc:4c:
                    e2:95:27:32:b2:78:b9:5a:c2:33:52:f1:c8:d1:34:
                    b8:28:b5:47:dd:24:d1:6f:c0:dc:65:81:f7:e3:d6:
                    8b:99
                Exponent: 65537 (0x10001)
        X509v3 extensions:
            X509v3 Basic Constraints: 
                CA:FALSE
            X509v3 Subject Key Identifier: 
                FE:C8:C9:E6:FD:1F:FC:94:7B:EF:FA:3E:22:18:3C:3B:90:3F:11:28
            X509v3 Authority Key Identifier: 
                keyid:56:C8:07:80:A4:3A:39:E6:28:C9:E6:29:36:10:B0:61:B0:DF:CC:41
                DirName:/CN=team17-net
                serial:4A:28:B3:F1:DE:EB:98:C4:4E:64:94:0D:4D:2E:F2:11:49:97:30:0C

            X509v3 Extended Key Usage: 
                TLS Web Client Authentication
            X509v3 Key Usage: 
                Digital Signature
    Signature Algorithm: sha256WithRSAEncryption
         88:c0:aa:73:60:4e:1f:e8:6c:b8:56:32:64:90:8b:82:9d:c1:
         82:bb:cd:31:dd:1c:6b:d1:01:48:ce:06:b7:32:81:ac:c5:f9:
         33:06:b9:ce:32:9e:61:e1:6b:d4:03:c7:e6:45:d9:79:fe:78:
         1f:c7:29:07:c9:e7:a4:88:3e:c5:a7:bf:20:ce:49:44:87:35:
         3a:95:90:22:bf:d7:05:3e:7f:17:98:59:d2:85:eb:e2:fc:03:
         4b:e3:cf:7a:1a:96:df:33:d6:09:fc:29:89:98:7b:45:b1:fc:
         5a:c9:dd:91:87:a4:12:cb:a8:6c:a2:20:92:30:3a:5d:66:80:
         8e:c3:24:0d:71:a2:19:ce:9f:d4:bf:c7:87:30:1e:a7:83:ee:
         8b:35:13:6c:c0:d9:ad:a0:a6:3d:2f:f9:78:33:78:c7:6a:36:
         4e:53:26:ea:e4:5e:8f:d2:a7:ad:19:b5:f3:a6:11:ab:29:75:
         d9:31:7e:42:89:f7:a3:8d:79:64:47:e8:69:c7:bc:a6:25:24:
         63:d4:0e:76:e4:88:94:dd:6d:98:03:9f:00:36:c4:3f:b5:ca:
         af:8e:19:7c:2b:e3:45:98:03:fe:bb:c4:9b:5a:67:df:81:7b:
         dc:63:13:a9:8e:30:64:81:31:b4:f7:3e:77:ee:83:47:51:7b:
         82:11:8a:eb
-----BEGIN CERTIFICATE-----
MIIDWTCCAkGgAwIBAgIQcr8lX5efP3GbjBonqQshNTANBgkqhkiG9w0BAQsFADAV
MRMwEQYDVQQDDAp0ZWFtMTctbmV0MB4XDTIyMDgwOTE4NTIzOVoXDTI1MDcyNDE4
NTIzOVowGDEWMBQGA1UEAwwNdGVhbTE3LWNsaWVudDCCASIwDQYJKoZIhvcNAQEB
BQADggEPADCCAQoCggEBAKQ9lY805pYJsfCP6y2SZarty8wzCIqv2mlPSxx/PJWL
9v4iKByx+sMrYpsB1JS85x8cjZS+8T8X2e6QSmf8vlJ+QfFLv6bI8LEO8szOLyPI
PWJwJkklm6ygK1/rxxeeitxynayIeynGT1TFD0EXt1CtX3xn56+2dqhBOHcv8+Tp
HAfmOGHAw5a0z7kFAyOUAsFMMgXtj/BIJbUeCLVH0LjEv4KSpKeNan9dp1OR5bz/
L9O/0vTkpsAqEk1FZ4FtD8Ufm9uhel5PiQuoWWemT43vCVYOI5gx5HXTAlVIo8xM
4pUnMrJ4uVrCM1LxyNE0uCi1R90k0W/A3GWB9+PWi5kCAwEAAaOBoTCBnjAJBgNV
HRMEAjAAMB0GA1UdDgQWBBT+yMnm/R/8lHvv+j4iGDw7kD8RKDBQBgNVHSMESTBH
gBRWyAeApDo55ijJ5ik2ELBhsN/MQaEZpBcwFTETMBEGA1UEAwwKdGVhbTE3LW5l
dIIUSiiz8d7rmMROZJQNTS7yEUmXMAwwEwYDVR0lBAwwCgYIKwYBBQUHAwIwCwYD
VR0PBAQDAgeAMA0GCSqGSIb3DQEBCwUAA4IBAQCIwKpzYE4f6Gy4VjJkkIuCncGC
u80x3Rxr0QFIzga3MoGsxfkzBrnOMp5h4WvUA8fmRdl5/ngfxykHyeekiD7Fp78g
zklEhzU6lZAiv9cFPn8XmFnShevi/ANL4896GpbfM9YJ/CmJmHtFsfxayd2Rh6QS
y6hsoiCSMDpdZoCOwyQNcaIZzp/Uv8eHMB6ng+6LNRNswNmtoKY9L/l4M3jHajZO
Uybq5F6P0qetGbXzphGrKXXZMX5CifejjXlkR+hpx7ymJSRj1A525IiU3W2YA58A
NsQ/tcqvjhl8K+NFmAP+u8SbWmffgXvcYxOpjjBkgTG09z537oNHUXuCEYrr
-----END CERTIFICATE-----
