Certificate:
    Data:
        Version: 3 (0x2)
        Serial Number:
            29:5d:9b:2b:8e:01:ca:db:50:93:d3:6c:d6:19:51:e3
        Signature Algorithm: sha256WithRSAEncryption
        Issuer: CN=team7-net
        Validity
            Not Before: Aug  4 12:27:50 2022 GMT
            Not After : Jul 19 12:27:50 2025 GMT
        Subject: CN=team7-server
        Subject Public Key Info:
            Public Key Algorithm: rsaEncryption
                RSA Public-Key: (2048 bit)
                Modulus:
                    00:ef:11:7c:86:7d:75:b0:60:58:81:3d:c2:dc:8e:
                    91:32:5a:e6:b3:56:0a:e8:75:4f:37:46:1f:70:0c:
                    31:8f:a5:56:d0:2c:11:5f:d9:c7:01:0d:60:b4:02:
                    c1:88:4a:f5:80:5d:98:fd:d1:d1:fd:9f:a7:2f:9e:
                    16:47:20:1b:d5:6a:cc:96:7a:87:fd:bd:13:0c:00:
                    eb:d9:61:4b:5f:92:49:f4:8a:fb:a7:12:f1:7e:d7:
                    f7:34:88:0c:7f:37:fa:9e:f9:5c:9f:41:17:2d:15:
                    80:b8:59:7c:b9:ea:82:eb:e0:ab:3a:df:2d:9a:1e:
                    bb:ec:6e:86:12:e1:ff:9c:69:bb:c7:38:11:a7:13:
                    d0:83:29:03:f5:9b:21:69:9a:88:61:a0:0a:ac:0d:
                    57:96:01:1f:5f:97:59:ad:2c:8e:a0:6d:b0:01:42:
                    97:cf:8e:da:d3:be:ad:9b:3e:c9:ff:88:ba:63:35:
                    33:64:7c:2e:ce:6b:52:ec:08:1c:c7:11:0a:4d:75:
                    1d:a4:44:97:fa:21:1c:92:fb:80:0e:38:18:66:05:
                    64:e4:0a:d6:c3:88:ba:c9:ef:11:e6:3e:08:51:66:
                    1b:1c:99:85:19:68:37:79:9a:27:76:8f:b7:49:af:
                    be:f8:eb:e3:59:b9:ac:94:8b:dc:2c:ec:0d:79:61:
                    09:97
                Exponent: 65537 (0x10001)
        X509v3 extensions:
            X509v3 Basic Constraints: 
                CA:FALSE
            X509v3 Subject Key Identifier: 
                66:47:FE:9E:A0:E3:27:80:33:F0:3F:F2:74:F8:21:E1:E6:47:F6:3F
            X509v3 Authority Key Identifier: 
                keyid:E4:B9:3E:7B:55:EA:54:06:2F:21:EA:73:5A:4D:00:E7:89:06:84:C8
                DirName:/CN=team7-net
                serial:63:80:60:5D:51:33:7F:9D:9D:20:CF:52:E9:49:3F:5C:0C:E2:FC:2C

            X509v3 Extended Key Usage: 
                TLS Web Server Authentication
            X509v3 Key Usage: 
                Digital Signature, Key Encipherment
            X509v3 Subject Alternative Name: 
                DNS:team7-server
    Signature Algorithm: sha256WithRSAEncryption
         20:51:d1:b9:fc:80:80:c1:55:c3:09:83:7a:10:b8:64:3a:61:
         e1:f2:b7:f2:69:15:e1:30:84:de:84:e4:73:25:c4:c2:80:cf:
         d1:34:16:cd:80:1f:e6:36:42:13:5a:22:9b:55:48:64:82:da:
         1a:fb:4f:53:1a:a2:00:e7:d1:84:d5:81:2d:aa:d9:fd:3b:46:
         d1:85:56:dd:28:57:a3:87:68:58:80:3f:30:cf:07:03:04:36:
         9c:cd:4e:88:96:43:1b:5d:95:d0:c7:6c:84:7a:ac:00:ea:8a:
         38:34:bb:19:4e:97:b7:72:90:51:45:42:48:34:c3:65:36:09:
         14:03:02:e9:40:e3:38:6b:24:e3:aa:f0:ea:be:72:95:25:ca:
         db:07:7a:75:24:8e:36:3e:46:01:9c:ec:23:f4:ee:30:d4:e0:
         d3:e4:9a:12:a3:98:0f:c2:9e:8d:93:85:65:34:ff:e5:95:b5:
         e2:d5:78:5b:2b:a1:df:34:3c:c5:37:e3:95:25:7b:7f:b3:d5:
         8a:a6:d7:c6:bd:ba:4b:70:43:27:63:ee:4c:dd:7b:3e:b3:7e:
         0f:24:9f:6c:21:61:e4:48:28:cf:0b:5a:87:cc:26:29:67:84:
         61:55:d2:23:aa:40:c3:36:65:26:20:2a:5e:c4:58:7e:4d:95:
         3d:64:9d:ca
-----BEGIN CERTIFICATE-----
MIIDbzCCAlegAwIBAgIQKV2bK44ByttQk9Ns1hlR4zANBgkqhkiG9w0BAQsFADAU
MRIwEAYDVQQDDAl0ZWFtNy1uZXQwHhcNMjIwODA0MTIyNzUwWhcNMjUwNzE5MTIy
NzUwWjAXMRUwEwYDVQQDDAx0ZWFtNy1zZXJ2ZXIwggEiMA0GCSqGSIb3DQEBAQUA
A4IBDwAwggEKAoIBAQDvEXyGfXWwYFiBPcLcjpEyWuazVgrodU83Rh9wDDGPpVbQ
LBFf2ccBDWC0AsGISvWAXZj90dH9n6cvnhZHIBvVasyWeof9vRMMAOvZYUtfkkn0
ivunEvF+1/c0iAx/N/qe+VyfQRctFYC4WXy56oLr4Ks63y2aHrvsboYS4f+cabvH
OBGnE9CDKQP1myFpmohhoAqsDVeWAR9fl1mtLI6gbbABQpfPjtrTvq2bPsn/iLpj
NTNkfC7Oa1LsCBzHEQpNdR2kRJf6IRyS+4AOOBhmBWTkCtbDiLrJ7xHmPghRZhsc
mYUZaDd5mid2j7dJr7746+NZuayUi9ws7A15YQmXAgMBAAGjgbkwgbYwCQYDVR0T
BAIwADAdBgNVHQ4EFgQUZkf+nqDjJ4Az8D/ydPgh4eZH9j8wTwYDVR0jBEgwRoAU
5Lk+e1XqVAYvIepzWk0A54kGhMihGKQWMBQxEjAQBgNVBAMMCXRlYW03LW5ldIIU
Y4BgXVEzf52dIM9S6Uk/XAzi/CwwEwYDVR0lBAwwCgYIKwYBBQUHAwEwCwYDVR0P
BAQDAgWgMBcGA1UdEQQQMA6CDHRlYW03LXNlcnZlcjANBgkqhkiG9w0BAQsFAAOC
AQEAIFHRufyAgMFVwwmDehC4ZDph4fK38mkV4TCE3oTkcyXEwoDP0TQWzYAf5jZC
E1oim1VIZILaGvtPUxqiAOfRhNWBLarZ/TtG0YVW3ShXo4doWIA/MM8HAwQ2nM1O
iJZDG12V0MdshHqsAOqKODS7GU6Xt3KQUUVCSDTDZTYJFAMC6UDjOGsk46rw6r5y
lSXK2wd6dSSONj5GAZzsI/TuMNTg0+SaEqOYD8KejZOFZTT/5ZW14tV4Wyuh3zQ8
xTfjlSV7f7PViqbXxr26S3BDJ2PuTN17PrN+DySfbCFh5Egozwtah8wmKWeEYVXS
I6pAwzZlJiAqXsRYfk2VPWSdyg==
-----END CERTIFICATE-----
