Certificate:
    Data:
        Version: 3 (0x2)
        Serial Number:
            5d:18:f1:ed:8e:b3:1e:48:c1:a0:d4:39:d7:1e:f5:00
        Signature Algorithm: sha256WithRSAEncryption
        Issuer: CN=team7-net
        Validity
            Not Before: Aug  9 18:52:30 2022 GMT
            Not After : Jul 24 18:52:30 2025 GMT
        Subject: CN=team7-client
        Subject Public Key Info:
            Public Key Algorithm: rsaEncryption
                RSA Public-Key: (2048 bit)
                Modulus:
                    00:a2:50:ef:f9:d3:48:45:7a:22:4d:17:c9:99:bf:
                    eb:de:d7:45:35:d1:be:0d:05:c4:73:9c:9a:08:a2:
                    08:cc:ba:ad:8f:ed:4f:3a:42:8a:ba:bb:7b:1d:1a:
                    c3:69:d3:bf:32:05:c5:55:0a:a3:c2:6c:97:68:09:
                    ae:78:2f:f2:84:4a:d0:9a:57:16:ed:01:1a:0f:a1:
                    c6:42:30:85:62:64:64:40:d8:a2:83:ec:89:60:67:
                    2f:9e:34:9d:04:66:64:9e:03:78:53:ae:21:e8:6f:
                    7b:89:b0:68:41:00:b9:c4:f0:e4:98:63:82:a2:09:
                    04:d5:42:68:db:d4:33:dc:09:ea:e5:94:7a:01:54:
                    96:5b:d1:88:19:09:6e:b2:f1:7f:cf:42:d0:d3:7d:
                    58:b4:1b:bd:be:ae:77:2b:70:87:89:73:6c:57:43:
                    c7:23:43:f9:db:b9:14:f1:9a:a9:1b:af:a3:46:34:
                    ff:2f:7e:6f:27:17:a0:db:62:d5:37:ca:2e:ab:a6:
                    52:0f:be:eb:23:7e:e8:7b:33:5a:03:ee:35:8f:84:
                    61:bb:bb:98:55:bd:3a:bf:3c:c7:26:10:61:b2:4e:
                    26:2f:30:bc:c1:fd:9a:91:a6:f8:be:11:f5:c8:be:
                    51:8e:af:f9:2a:ad:f3:d4:0d:66:32:3b:9d:84:af:
                    c7:39
                Exponent: 65537 (0x10001)
        X509v3 extensions:
            X509v3 Basic Constraints: 
                CA:FALSE
            X509v3 Subject Key Identifier: 
                3B:B6:1C:4B:29:C5:80:7E:6A:2F:B9:DA:21:6C:88:4D:BA:61:73:14
            X509v3 Authority Key Identifier: 
                keyid:70:9D:AE:B3:57:BB:56:15:82:56:86:54:FF:9A:85:A3:F0:B6:75:23
                DirName:/CN=team7-net
                serial:3F:52:93:AE:D0:AE:B3:DA:8B:06:5E:8A:44:1A:73:CD:19:E1:27:3A

            X509v3 Extended Key Usage: 
                TLS Web Client Authentication
            X509v3 Key Usage: 
                Digital Signature
    Signature Algorithm: sha256WithRSAEncryption
         32:94:10:e7:13:a3:0d:3e:96:99:0f:9d:c6:73:73:0c:1c:b7:
         f8:bb:64:b0:ef:4c:1f:26:94:c9:3f:a8:22:12:8f:88:ae:4d:
         84:d5:2e:47:89:f9:d3:3f:35:7a:42:32:5f:0b:5f:73:69:03:
         b1:a7:7b:eb:e8:e0:53:ea:79:7e:c3:d9:f9:08:62:0c:78:6d:
         a9:ed:d9:b1:0c:e3:b5:45:3e:bd:9a:bb:0b:0c:10:cc:17:66:
         8e:7f:e5:3b:69:4d:87:58:69:de:25:7a:51:ef:23:4e:1c:67:
         d4:90:42:ae:b2:da:b7:41:dd:ac:c3:b9:34:f7:b3:6d:99:7f:
         57:bf:6e:c2:7d:ed:54:0b:66:e0:ff:d1:35:d5:a4:aa:6f:5f:
         cd:94:06:c6:38:8f:87:43:f9:75:50:8c:82:8c:af:d7:7d:69:
         b2:4e:bc:14:58:7c:e7:59:60:e1:1e:7b:2e:6d:7b:0e:d5:43:
         b7:5e:7f:ba:8a:b5:eb:53:b4:31:38:14:50:4f:dd:d6:ea:6b:
         a3:0d:6a:12:c5:ee:1a:0c:88:b3:39:a4:e5:78:81:d2:85:3f:
         c7:7d:58:69:13:c4:a8:46:9d:61:f9:02:9e:b0:2e:63:ef:66:
         d3:a2:4d:57:9b:82:5a:48:0c:d7:88:14:92:ec:3b:13:bd:db:
         a2:97:d8:14
-----BEGIN CERTIFICATE-----
MIIDVjCCAj6gAwIBAgIQXRjx7Y6zHkjBoNQ51x71ADANBgkqhkiG9w0BAQsFADAU
MRIwEAYDVQQDDAl0ZWFtNy1uZXQwHhcNMjIwODA5MTg1MjMwWhcNMjUwNzI0MTg1
MjMwWjAXMRUwEwYDVQQDDAx0ZWFtNy1jbGllbnQwggEiMA0GCSqGSIb3DQEBAQUA
A4IBDwAwggEKAoIBAQCiUO/500hFeiJNF8mZv+ve10U10b4NBcRznJoIogjMuq2P
7U86Qoq6u3sdGsNp078yBcVVCqPCbJdoCa54L/KEStCaVxbtARoPocZCMIViZGRA
2KKD7IlgZy+eNJ0EZmSeA3hTriHob3uJsGhBALnE8OSYY4KiCQTVQmjb1DPcCerl
lHoBVJZb0YgZCW6y8X/PQtDTfVi0G72+rncrcIeJc2xXQ8cjQ/nbuRTxmqkbr6NG
NP8vfm8nF6DbYtU3yi6rplIPvusjfuh7M1oD7jWPhGG7u5hVvTq/PMcmEGGyTiYv
MLzB/ZqRpvi+EfXIvlGOr/kqrfPUDWYyO52Er8c5AgMBAAGjgaAwgZ0wCQYDVR0T
BAIwADAdBgNVHQ4EFgQUO7YcSynFgH5qL7naIWyITbphcxQwTwYDVR0jBEgwRoAU
cJ2us1e7VhWCVoZU/5qFo/C2dSOhGKQWMBQxEjAQBgNVBAMMCXRlYW03LW5ldIIU
P1KTrtCus9qLBl6KRBpzzRnhJzowEwYDVR0lBAwwCgYIKwYBBQUHAwIwCwYDVR0P
BAQDAgeAMA0GCSqGSIb3DQEBCwUAA4IBAQAylBDnE6MNPpaZD53Gc3MMHLf4u2Sw
70wfJpTJP6giEo+Irk2E1S5HifnTPzV6QjJfC19zaQOxp3vr6OBT6nl+w9n5CGIM
eG2p7dmxDOO1RT69mrsLDBDMF2aOf+U7aU2HWGneJXpR7yNOHGfUkEKustq3Qd2s
w7k097NtmX9Xv27Cfe1UC2bg/9E11aSqb1/NlAbGOI+HQ/l1UIyCjK/XfWmyTrwU
WHznWWDhHnsubXsO1UO3Xn+6irXrU7QxOBRQT93W6mujDWoSxe4aDIizOaTleIHS
hT/HfVhpE8SoRp1h+QKesC5j72bTok1Xm4JaSAzXiBSS7DsTvduil9gU
-----END CERTIFICATE-----
