Certificate:
    Data:
        Version: 3 (0x2)
        Serial Number:
            fc:a5:3f:e3:7d:07:35:53:c2:0d:3e:55:2f:63:52:57
        Signature Algorithm: sha256WithRSAEncryption
        Issuer: CN=team7-net
        Validity
            Not Before: Aug  9 18:52:30 2022 GMT
            Not After : Jul 24 18:52:30 2025 GMT
        Subject: CN=team7-server
        Subject Public Key Info:
            Public Key Algorithm: rsaEncryption
                RSA Public-Key: (2048 bit)
                Modulus:
                    00:dc:8f:df:ca:b7:cb:cd:82:38:a6:db:87:0a:f0:
                    9a:0b:82:33:57:2e:21:c1:88:1d:f0:9d:75:2b:23:
                    2c:ee:02:27:95:6a:14:b7:4f:13:b2:9d:1b:8d:a6:
                    0c:18:64:8d:3a:bb:cb:e5:a7:fb:ef:f2:0a:e8:71:
                    30:d1:a7:b1:a7:ae:51:06:f4:a0:d9:d0:3a:16:f4:
                    9f:10:cc:45:14:c5:e4:73:05:c5:cb:23:89:3f:3e:
                    b2:a2:6a:f8:d5:2b:c6:92:5f:8f:75:c7:e7:ba:ae:
                    30:ae:bb:cb:c7:2b:e1:71:2b:a2:b4:02:6e:6d:4c:
                    66:1c:21:86:2e:7d:43:62:dd:4b:d2:8a:b5:e0:dc:
                    9f:98:09:2e:9e:c9:a4:b0:bb:2c:cb:a3:28:06:99:
                    ff:06:74:a5:09:43:32:d1:c5:8f:e4:e6:6e:18:94:
                    66:31:b8:d3:fa:00:30:e9:08:9c:44:a8:d2:12:55:
                    2a:32:24:95:3d:61:14:cd:c9:d4:17:a2:65:db:42:
                    2d:e1:af:84:39:78:61:51:ea:71:93:81:9a:7e:4a:
                    dc:46:73:af:43:d6:11:b0:d8:91:0c:cc:ee:a2:33:
                    38:93:0d:28:9b:85:e7:f5:f4:13:cf:bc:da:a3:4d:
                    de:95:8f:8d:c0:5a:73:7a:f6:8e:7f:f7:95:bd:85:
                    78:a5
                Exponent: 65537 (0x10001)
        X509v3 extensions:
            X509v3 Basic Constraints: 
                CA:FALSE
            X509v3 Subject Key Identifier: 
                2C:B4:6C:45:B1:66:C7:94:7C:26:8A:F4:86:5B:A8:08:C5:95:9C:24
            X509v3 Authority Key Identifier: 
                keyid:70:9D:AE:B3:57:BB:56:15:82:56:86:54:FF:9A:85:A3:F0:B6:75:23
                DirName:/CN=team7-net
                serial:3F:52:93:AE:D0:AE:B3:DA:8B:06:5E:8A:44:1A:73:CD:19:E1:27:3A

            X509v3 Extended Key Usage: 
                TLS Web Server Authentication
            X509v3 Key Usage: 
                Digital Signature, Key Encipherment
            X509v3 Subject Alternative Name: 
                DNS:team7-server
    Signature Algorithm: sha256WithRSAEncryption
         8c:dc:4b:5c:30:00:61:ca:3f:ec:fc:b4:5a:c2:78:94:8c:2e:
         11:a8:64:bc:b3:c8:56:92:d1:cb:4c:15:c8:e9:0c:31:d1:12:
         f4:74:8e:ca:34:11:fe:6d:87:ba:06:eb:19:f5:d6:57:ff:4f:
         c2:9c:26:e9:ba:4b:71:b4:48:c4:9c:51:fd:42:bd:63:c4:2d:
         f2:24:c8:86:f6:b9:f2:07:18:14:7c:bb:fc:c3:e7:26:f8:1b:
         63:11:de:2c:3f:49:41:7b:51:d9:89:7c:3c:c7:cc:59:0b:e9:
         a8:74:72:ce:8f:3f:09:42:dd:43:d6:52:28:7d:c1:d8:1e:c4:
         01:60:ba:b0:6d:55:fb:b6:17:ee:1b:3d:10:00:4b:e7:9a:10:
         a2:1f:93:0d:0c:da:37:be:b7:78:d6:ae:50:2a:2d:6a:e2:98:
         7f:e9:25:d7:51:03:a9:26:db:92:2e:97:5a:29:e5:c4:bc:f3:
         3a:70:95:d7:07:64:79:c3:99:51:cb:fc:a4:32:4b:7f:34:f6:
         08:c3:02:44:5c:4d:8c:c2:5b:7d:9c:7c:89:b0:39:0c:a9:fd:
         7f:d4:81:d5:8a:10:03:13:95:6c:e7:73:ba:35:1a:57:ac:fc:
         9d:9e:63:cb:a6:a2:87:c7:8d:95:a5:d4:f9:66:fe:76:df:dd:
         89:7a:17:c2
-----BEGIN CERTIFICATE-----
MIIDcDCCAligAwIBAgIRAPylP+N9BzVTwg0+VS9jUlcwDQYJKoZIhvcNAQELBQAw
FDESMBAGA1UEAwwJdGVhbTctbmV0MB4XDTIyMDgwOTE4NTIzMFoXDTI1MDcyNDE4
NTIzMFowFzEVMBMGA1UEAwwMdGVhbTctc2VydmVyMIIBIjANBgkqhkiG9w0BAQEF
AAOCAQ8AMIIBCgKCAQEA3I/fyrfLzYI4ptuHCvCaC4IzVy4hwYgd8J11KyMs7gIn
lWoUt08Tsp0bjaYMGGSNOrvL5af77/IK6HEw0aexp65RBvSg2dA6FvSfEMxFFMXk
cwXFyyOJPz6yomr41SvGkl+Pdcfnuq4wrrvLxyvhcSuitAJubUxmHCGGLn1DYt1L
0oq14NyfmAkunsmksLssy6MoBpn/BnSlCUMy0cWP5OZuGJRmMbjT+gAw6QicRKjS
ElUqMiSVPWEUzcnUF6Jl20It4a+EOXhhUepxk4GafkrcRnOvQ9YRsNiRDMzuojM4
kw0om4Xn9fQTz7zao03elY+NwFpzevaOf/eVvYV4pQIDAQABo4G5MIG2MAkGA1Ud
EwQCMAAwHQYDVR0OBBYEFCy0bEWxZseUfCaK9IZbqAjFlZwkME8GA1UdIwRIMEaA
FHCdrrNXu1YVglaGVP+ahaPwtnUjoRikFjAUMRIwEAYDVQQDDAl0ZWFtNy1uZXSC
FD9Sk67QrrPaiwZeikQac80Z4Sc6MBMGA1UdJQQMMAoGCCsGAQUFBwMBMAsGA1Ud
DwQEAwIFoDAXBgNVHREEEDAOggx0ZWFtNy1zZXJ2ZXIwDQYJKoZIhvcNAQELBQAD
ggEBAIzcS1wwAGHKP+z8tFrCeJSMLhGoZLyzyFaS0ctMFcjpDDHREvR0jso0Ef5t
h7oG6xn11lf/T8KcJum6S3G0SMScUf1CvWPELfIkyIb2ufIHGBR8u/zD5yb4G2MR
3iw/SUF7UdmJfDzHzFkL6ah0cs6PPwlC3UPWUih9wdgexAFgurBtVfu2F+4bPRAA
S+eaEKIfkw0M2je+t3jWrlAqLWrimH/pJddRA6km25Iul1op5cS88zpwldcHZHnD
mVHL/KQyS3809gjDAkRcTYzCW32cfImwOQyp/X/UgdWKEAMTlWznc7o1Gles/J2e
Y8umoofHjZWl1Plm/nbf3Yl6F8I=
-----END CERTIFICATE-----
